
mmr_zb_net.elf:     file format elf32-avr

Sections:
Idx Name          Size      VMA       LMA       File off  Algn
  0 .data         000006d8  00800100  00006f90  00007064  2**0
                  CONTENTS, ALLOC, LOAD, DATA
  1 .apflag       00000008  0000eff8  0000eff8  0000773c  2**0
                  CONTENTS, ALLOC, LOAD, DATA
  2 .eeprom       00000190  00810100  00810100  00007744  2**0
                  CONTENTS, ALLOC, LOAD, DATA
  3 .text         00006f90  00000000  00000000  000000d4  2**1
                  CONTENTS, ALLOC, LOAD, READONLY, CODE
  4 .bss          000008f2  008007d8  008007d8  00007744  2**0
                  ALLOC
  5 .comment      00000030  00000000  00000000  000078d4  2**0
                  CONTENTS, READONLY
  6 .debug_aranges 000006a0  00000000  00000000  00007904  2**0
                  CONTENTS, READONLY, DEBUGGING
  7 .debug_info   0000bda7  00000000  00000000  00007fa4  2**0
                  CONTENTS, READONLY, DEBUGGING
  8 .debug_abbrev 00001f03  00000000  00000000  00013d4b  2**0
                  CONTENTS, READONLY, DEBUGGING
  9 .debug_line   000028e3  00000000  00000000  00015c4e  2**0
                  CONTENTS, READONLY, DEBUGGING
 10 .debug_frame  00001448  00000000  00000000  00018534  2**2
                  CONTENTS, READONLY, DEBUGGING
 11 .debug_str    00002251  00000000  00000000  0001997c  2**0
                  CONTENTS, READONLY, DEBUGGING
 12 .debug_loc    000062b1  00000000  00000000  0001bbcd  2**0
                  CONTENTS, READONLY, DEBUGGING
 13 .debug_ranges 00000650  00000000  00000000  00021e7e  2**0
                  CONTENTS, READONLY, DEBUGGING

Disassembly of section .text:

00000000 <__vectors>:
       0:	0c 94 2b 03 	jmp	0x656	; 0x656 <__ctors_end>
       4:	0c 94 48 03 	jmp	0x690	; 0x690 <__bad_interrupt>
       8:	0c 94 48 03 	jmp	0x690	; 0x690 <__bad_interrupt>
       c:	0c 94 48 03 	jmp	0x690	; 0x690 <__bad_interrupt>
      10:	0c 94 48 03 	jmp	0x690	; 0x690 <__bad_interrupt>
      14:	0c 94 48 03 	jmp	0x690	; 0x690 <__bad_interrupt>
      18:	0c 94 99 09 	jmp	0x1332	; 0x1332 <__vector_6>
      1c:	0c 94 b0 09 	jmp	0x1360	; 0x1360 <__vector_7>
      20:	0c 94 c7 09 	jmp	0x138e	; 0x138e <__vector_8>
      24:	0c 94 48 03 	jmp	0x690	; 0x690 <__bad_interrupt>
      28:	0c 94 48 03 	jmp	0x690	; 0x690 <__bad_interrupt>
      2c:	0c 94 48 03 	jmp	0x690	; 0x690 <__bad_interrupt>
      30:	0c 94 48 03 	jmp	0x690	; 0x690 <__bad_interrupt>
      34:	0c 94 48 03 	jmp	0x690	; 0x690 <__bad_interrupt>
      38:	0c 94 48 03 	jmp	0x690	; 0x690 <__bad_interrupt>
      3c:	0c 94 48 03 	jmp	0x690	; 0x690 <__bad_interrupt>
      40:	0c 94 48 03 	jmp	0x690	; 0x690 <__bad_interrupt>
      44:	0c 94 48 03 	jmp	0x690	; 0x690 <__bad_interrupt>
      48:	0c 94 90 08 	jmp	0x1120	; 0x1120 <__vector_18>
      4c:	0c 94 48 03 	jmp	0x690	; 0x690 <__bad_interrupt>
      50:	0c 94 3e 09 	jmp	0x127c	; 0x127c <__vector_20>
      54:	0c 94 48 03 	jmp	0x690	; 0x690 <__bad_interrupt>
      58:	0c 94 16 09 	jmp	0x122c	; 0x122c <__vector_22>
      5c:	0c 94 48 03 	jmp	0x690	; 0x690 <__bad_interrupt>
      60:	0c 94 48 03 	jmp	0x690	; 0x690 <__bad_interrupt>
      64:	0c 94 48 03 	jmp	0x690	; 0x690 <__bad_interrupt>
      68:	0c 94 48 03 	jmp	0x690	; 0x690 <__bad_interrupt>
      6c:	0c 94 48 03 	jmp	0x690	; 0x690 <__bad_interrupt>
      70:	0c 94 71 2b 	jmp	0x56e2	; 0x56e2 <__vector_28>
      74:	0c 94 48 03 	jmp	0x690	; 0x690 <__bad_interrupt>
      78:	0c 94 48 03 	jmp	0x690	; 0x690 <__bad_interrupt>
      7c:	38 05       	cpc	r19, r8
      7e:	b9 05       	cpc	r27, r9
      80:	3a 05       	cpc	r19, r10
      82:	6f 05       	cpc	r22, r15
      84:	a4 05       	cpc	r26, r4
      86:	ad 05       	cpc	r26, r13
      88:	af 05       	cpc	r26, r15
      8a:	b5 05       	cpc	r27, r5
      8c:	b1 05       	cpc	r27, r1
      8e:	b7 05       	cpc	r27, r7
      90:	b3 05       	cpc	r27, r3
      92:	35 05       	cpc	r19, r5
      94:	8a 16       	cp	r8, r26
      96:	8f 16       	cp	r8, r31
      98:	94 16       	cp	r9, r20
      9a:	99 16       	cp	r9, r25
      9c:	9e 16       	cp	r9, r30
      9e:	7e 17       	cp	r23, r30
      a0:	a3 16       	cp	r10, r19
      a2:	a8 16       	cp	r10, r24
      a4:	e2 16       	cp	r14, r18
      a6:	e7 16       	cp	r14, r23
      a8:	ec 16       	cp	r14, r28
      aa:	f1 16       	cp	r15, r17
      ac:	f6 16       	cp	r15, r22
      ae:	00 17       	cp	r16, r16
      b0:	19 17       	cp	r17, r25
      b2:	17 1b       	sub	r17, r23
      b4:	2c 1b       	sub	r18, r28
      b6:	3a 1b       	sub	r19, r26
      b8:	4b 1b       	sub	r20, r27
      ba:	59 1b       	sub	r21, r25
      bc:	69 1b       	sub	r22, r25
      be:	77 1b       	sub	r23, r23
      c0:	88 1b       	sub	r24, r24
      c2:	af 1b       	sub	r26, r31
      c4:	ba 1b       	sub	r27, r26
      c6:	cb 1b       	sub	r28, r27
      c8:	de 1b       	sub	r29, r30
      ca:	f1 1b       	sub	r31, r17
      cc:	04 1c       	adc	r0, r4
      ce:	0f 1c       	adc	r0, r15
      d0:	e2 21       	and	r30, r2
      d2:	e6 21       	and	r30, r6
      d4:	f0 21       	and	r31, r0
      d6:	fc 21       	and	r31, r12
      d8:	04 22       	and	r0, r20
      da:	10 22       	and	r1, r16
      dc:	14 22       	and	r1, r20
      de:	1e 22       	and	r1, r30
      e0:	66 22       	and	r6, r22
      e2:	72 22       	and	r7, r18
      e4:	7e 22       	and	r7, r30
      e6:	8a 22       	and	r8, r26
      e8:	93 22       	and	r9, r19
      ea:	9d 22       	and	r9, r29
      ec:	a7 22       	and	r10, r23
      ee:	5f 23       	and	r21, r31
      f0:	69 23       	and	r22, r25
      f2:	75 23       	and	r23, r21
      f4:	7d 23       	and	r23, r29
      f6:	89 23       	and	r24, r25
      f8:	8d 23       	and	r24, r29
      fa:	97 23       	and	r25, r23
      fc:	dc 23       	and	r29, r28
      fe:	e8 23       	and	r30, r24
     100:	f4 23       	and	r31, r20
     102:	00 24       	eor	r0, r0
     104:	09 24       	eor	r0, r9
     106:	13 24       	eor	r1, r3
     108:	1d 24       	eor	r1, r13
     10a:	d3 24       	eor	r13, r3
     10c:	65 28       	or	r6, r5
     10e:	03 25       	eor	r16, r3
     110:	0e 25       	eor	r16, r14
     112:	e9 24       	eor	r14, r9
     114:	7f 28       	or	r7, r15
     116:	8c 28       	or	r8, r12
     118:	9b 28       	or	r9, r11
     11a:	c1 28       	or	r12, r1
     11c:	cd 28       	or	r12, r13
     11e:	ab 28       	or	r10, r11
     120:	c7 28       	or	r12, r7
     122:	25 29       	or	r18, r5
     124:	25 29       	or	r18, r5
     126:	25 29       	or	r18, r5
     128:	25 29       	or	r18, r5
     12a:	25 29       	or	r18, r5
     12c:	25 29       	or	r18, r5
     12e:	25 29       	or	r18, r5
     130:	25 29       	or	r18, r5
     132:	25 29       	or	r18, r5
     134:	25 29       	or	r18, r5
     136:	25 29       	or	r18, r5
     138:	25 29       	or	r18, r5
     13a:	25 29       	or	r18, r5
     13c:	25 29       	or	r18, r5
     13e:	e6 27       	eor	r30, r22
     140:	25 29       	or	r18, r5
     142:	25 29       	or	r18, r5
     144:	25 29       	or	r18, r5
     146:	72 26       	eor	r7, r18
     148:	a5 26       	eor	r10, r21
     14a:	c0 26       	eor	r12, r16
     14c:	ca 26       	eor	r12, r26
     14e:	d6 26       	eor	r13, r22
     150:	e0 26       	eor	r14, r16
     152:	ea 26       	eor	r14, r26
     154:	25 29       	or	r18, r5
     156:	47 28       	or	r4, r7
     158:	50 27       	eor	r21, r16
     15a:	5a 27       	eor	r21, r26
     15c:	64 27       	eor	r22, r20
     15e:	70 27       	eor	r23, r16
     160:	84 27       	eor	r24, r20
     162:	c8 27       	eor	r28, r24
     164:	d2 27       	eor	r29, r18
     166:	2d 25       	eor	r18, r13
     168:	5a 25       	eor	r21, r10
     16a:	8d 25       	eor	r24, r13
     16c:	ba 25       	eor	r27, r10
     16e:	ed 25       	eor	r30, r13
     170:	06 26       	eor	r0, r22
     172:	24 26       	eor	r2, r20
     174:	3d 26       	eor	r3, r29
     176:	56 26       	eor	r5, r22
     178:	63 26       	eor	r6, r19
     17a:	5b 28       	or	r5, r11
     17c:	5a 27       	eor	r21, r26
     17e:	7a 27       	eor	r23, r26
     180:	24 27       	eor	r18, r20
     182:	6e 26       	eor	r6, r30
     184:	25 29       	or	r18, r5
     186:	25 29       	or	r18, r5
     188:	25 29       	or	r18, r5
     18a:	25 29       	or	r18, r5
     18c:	25 29       	or	r18, r5
     18e:	25 29       	or	r18, r5
     190:	25 29       	or	r18, r5
     192:	25 29       	or	r18, r5
     194:	25 29       	or	r18, r5
     196:	25 29       	or	r18, r5
     198:	25 29       	or	r18, r5
     19a:	25 29       	or	r18, r5
     19c:	25 29       	or	r18, r5
     19e:	25 29       	or	r18, r5
     1a0:	25 29       	or	r18, r5
     1a2:	25 29       	or	r18, r5
     1a4:	25 29       	or	r18, r5
     1a6:	25 29       	or	r18, r5
     1a8:	25 29       	or	r18, r5
     1aa:	15 27       	eor	r17, r21
     1ac:	25 29       	or	r18, r5
     1ae:	25 29       	or	r18, r5
     1b0:	25 29       	or	r18, r5
     1b2:	25 29       	or	r18, r5
     1b4:	25 29       	or	r18, r5
     1b6:	25 29       	or	r18, r5
     1b8:	25 29       	or	r18, r5
     1ba:	25 29       	or	r18, r5
     1bc:	25 29       	or	r18, r5
     1be:	25 29       	or	r18, r5
     1c0:	25 29       	or	r18, r5
     1c2:	25 29       	or	r18, r5
     1c4:	25 29       	or	r18, r5
     1c6:	25 29       	or	r18, r5
     1c8:	25 29       	or	r18, r5
     1ca:	25 29       	or	r18, r5
     1cc:	25 29       	or	r18, r5
     1ce:	25 29       	or	r18, r5
     1d0:	25 29       	or	r18, r5
     1d2:	25 29       	or	r18, r5
     1d4:	25 29       	or	r18, r5
     1d6:	25 29       	or	r18, r5
     1d8:	25 29       	or	r18, r5
     1da:	f5 24       	eor	r15, r5
     1dc:	25 29       	or	r18, r5
     1de:	25 29       	or	r18, r5
     1e0:	25 29       	or	r18, r5
     1e2:	25 29       	or	r18, r5
     1e4:	25 29       	or	r18, r5
     1e6:	25 29       	or	r18, r5
     1e8:	25 29       	or	r18, r5
     1ea:	25 29       	or	r18, r5
     1ec:	25 29       	or	r18, r5
     1ee:	25 29       	or	r18, r5
     1f0:	25 29       	or	r18, r5
     1f2:	25 29       	or	r18, r5
     1f4:	25 29       	or	r18, r5
     1f6:	25 29       	or	r18, r5
     1f8:	25 29       	or	r18, r5
     1fa:	25 29       	or	r18, r5
     1fc:	25 29       	or	r18, r5
     1fe:	25 29       	or	r18, r5
     200:	25 29       	or	r18, r5
     202:	25 29       	or	r18, r5
     204:	25 29       	or	r18, r5
     206:	25 29       	or	r18, r5
     208:	25 29       	or	r18, r5
     20a:	25 29       	or	r18, r5
     20c:	25 29       	or	r18, r5
     20e:	25 29       	or	r18, r5
     210:	25 29       	or	r18, r5
     212:	25 29       	or	r18, r5
     214:	25 29       	or	r18, r5
     216:	25 29       	or	r18, r5
     218:	25 29       	or	r18, r5
     21a:	25 29       	or	r18, r5
     21c:	25 29       	or	r18, r5
     21e:	25 29       	or	r18, r5
     220:	25 29       	or	r18, r5
     222:	88 27       	eor	r24, r24
     224:	f5 27       	eor	r31, r21
     226:	51 28       	or	r5, r1
     228:	0b 27       	eor	r16, r27
     22a:	01 27       	eor	r16, r17
     22c:	25 29       	or	r18, r5
     22e:	25 29       	or	r18, r5
     230:	25 29       	or	r18, r5
     232:	25 29       	or	r18, r5
     234:	25 29       	or	r18, r5
     236:	25 29       	or	r18, r5
     238:	25 29       	or	r18, r5
     23a:	25 29       	or	r18, r5
     23c:	25 29       	or	r18, r5
     23e:	25 29       	or	r18, r5
     240:	25 29       	or	r18, r5
     242:	25 29       	or	r18, r5
     244:	25 29       	or	r18, r5
     246:	25 29       	or	r18, r5
     248:	25 29       	or	r18, r5
     24a:	fb 27       	eor	r31, r27
     24c:	47 28       	or	r4, r7
     24e:	51 28       	or	r5, r1
     250:	75 28       	or	r7, r5
     252:	f4 26       	eor	r15, r20
     254:	d3 28       	or	r13, r3

00000256 <__trampolines_end>:
     256:	00 00       	nop
     258:	00 00       	nop
     25a:	96 30       	cpi	r25, 0x06	; 6
     25c:	07 77       	andi	r16, 0x77	; 119
     25e:	2c 61       	ori	r18, 0x1C	; 28
     260:	0e ee       	ldi	r16, 0xEE	; 238
     262:	ba 51       	subi	r27, 0x1A	; 26
     264:	09 99       	sbic	0x01, 1	; 1
     266:	19 c4       	rjmp	.+2098   	; 0xa9a <OnTimer+0x46>
     268:	6d 07       	cpc	r22, r29
     26a:	8f f4       	brid	.+34     	; 0x28e <__trampolines_end+0x38>
     26c:	6a 70       	andi	r22, 0x0A	; 10
     26e:	35 a5       	ldd	r19, Z+45	; 0x2d
     270:	63 e9       	ldi	r22, 0x93	; 147
     272:	a3 95       	inc	r26
     274:	64 9e       	mul	r6, r20
     276:	32 88       	ldd	r3, Z+18	; 0x12
     278:	db 0e       	add	r13, r27
     27a:	a4 b8       	out	0x04, r10	; 4
     27c:	dc 79       	andi	r29, 0x9C	; 156
     27e:	1e e9       	ldi	r17, 0x9E	; 158
     280:	d5 e0       	ldi	r29, 0x05	; 5
     282:	88 d9       	rcall	.-3312   	; 0xfffff594 <__eeprom_end+0xff7ef304>
     284:	d2 97       	sbiw	r26, 0x32	; 50
     286:	2b 4c       	sbci	r18, 0xCB	; 203
     288:	b6 09       	sbc	r27, r6
     28a:	bd 7c       	andi	r27, 0xCD	; 205
     28c:	b1 7e       	andi	r27, 0xE1	; 225
     28e:	07 2d       	mov	r16, r7
     290:	b8 e7       	ldi	r27, 0x78	; 120
     292:	91 1d       	adc	r25, r1
     294:	bf 90       	pop	r11
     296:	64 10       	cpse	r6, r4
     298:	b7 1d       	adc	r27, r7
     29a:	f2 20       	and	r15, r2
     29c:	b0 6a       	ori	r27, 0xA0	; 160
     29e:	48 71       	andi	r20, 0x18	; 24
     2a0:	b9 f3       	breq	.-18     	; 0x290 <__trampolines_end+0x3a>
     2a2:	de 41       	sbci	r29, 0x1E	; 30
     2a4:	be 84       	ldd	r11, Y+14	; 0x0e
     2a6:	7d d4       	rcall	.+2298   	; 0xba2 <ad_value_handling+0x2e>
     2a8:	da 1a       	sub	r13, r26
     2aa:	eb e4       	ldi	r30, 0x4B	; 75
     2ac:	dd 6d       	ori	r29, 0xDD	; 221
     2ae:	51 b5       	in	r21, 0x21	; 33
     2b0:	d4 f4       	brge	.+52     	; 0x2e6 <__trampolines_end+0x90>
     2b2:	c7 85       	ldd	r28, Z+15	; 0x0f
     2b4:	d3 83       	std	Z+3, r29	; 0x03
     2b6:	56 98       	cbi	0x0a, 6	; 10
     2b8:	6c 13       	cpse	r22, r28
     2ba:	c0 a8       	ldd	r12, Z+48	; 0x30
     2bc:	6b 64       	ori	r22, 0x4B	; 75
     2be:	7a f9       	.word	0xf97a	; ????
     2c0:	62 fd       	sbrc	r22, 2
     2c2:	ec c9       	rjmp	.-3112   	; 0xfffff69c <__eeprom_end+0xff7ef40c>
     2c4:	65 8a       	std	Z+21, r6	; 0x15
     2c6:	4f 5c       	subi	r20, 0xCF	; 207
     2c8:	01 14       	cp	r0, r1
     2ca:	d9 6c       	ori	r29, 0xC9	; 201
     2cc:	06 63       	ori	r16, 0x36	; 54
     2ce:	63 3d       	cpi	r22, 0xD3	; 211
     2d0:	0f fa       	.word	0xfa0f	; ????
     2d2:	f5 0d       	add	r31, r5
     2d4:	08 8d       	ldd	r16, Y+24	; 0x18
     2d6:	c8 20       	and	r12, r8
     2d8:	6e 3b       	cpi	r22, 0xBE	; 190
     2da:	5e 10       	cpse	r5, r14
     2dc:	69 4c       	sbci	r22, 0xC9	; 201
     2de:	e4 41       	sbci	r30, 0x14	; 20
     2e0:	60 d5       	rcall	.+2752   	; 0xda2 <timer0_overflow_handling+0x48>
     2e2:	72 71       	andi	r23, 0x12	; 18
     2e4:	67 a2       	std	Z+39, r6	; 0x27
     2e6:	d1 e4       	ldi	r29, 0x41	; 65
     2e8:	03 3c       	cpi	r16, 0xC3	; 195
     2ea:	47 d4       	rcall	.+2190   	; 0xb7a <ad_value_handling+0x6>
     2ec:	04 4b       	sbci	r16, 0xB4	; 180
     2ee:	fd 85       	ldd	r31, Y+13	; 0x0d
     2f0:	0d d2       	rcall	.+1050   	; 0x70c <base_task+0x14>
     2f2:	6b b5       	in	r22, 0x2b	; 43
     2f4:	0a a5       	ldd	r16, Y+42	; 0x2a
     2f6:	fa a8       	ldd	r15, Y+50	; 0x32
     2f8:	b5 35       	cpi	r27, 0x55	; 85
     2fa:	6c 98       	cbi	0x0d, 4	; 13
     2fc:	b2 42       	sbci	r27, 0x22	; 34
     2fe:	d6 c9       	rjmp	.-3156   	; 0xfffff6ac <__eeprom_end+0xff7ef41c>
     300:	bb db       	rcall	.-2186   	; 0xfffffa78 <__eeprom_end+0xff7ef7e8>
     302:	40 f9       	bld	r20, 0
     304:	bc ac       	ldd	r11, Y+60	; 0x3c
     306:	e3 6c       	ori	r30, 0xC3	; 195
     308:	d8 32       	cpi	r29, 0x28	; 40
     30a:	75 5c       	subi	r23, 0xC5	; 197
     30c:	df 45       	sbci	r29, 0x5F	; 95
     30e:	cf 0d       	add	r28, r15
     310:	d6 dc       	rcall	.-1620   	; 0xfffffcbe <__eeprom_end+0xff7efa2e>
     312:	59 3d       	cpi	r21, 0xD9	; 217
     314:	d1 ab       	std	Z+49, r29	; 0x31
     316:	ac 30       	cpi	r26, 0x0C	; 12
     318:	d9 26       	eor	r13, r25
     31a:	3a 00       	.word	0x003a	; ????
     31c:	de 51       	subi	r29, 0x1E	; 30
     31e:	80 51       	subi	r24, 0x10	; 16
     320:	d7 c8       	rjmp	.-3666   	; 0xfffff4d0 <__eeprom_end+0xff7ef240>
     322:	16 61       	ori	r17, 0x16	; 22
     324:	d0 bf       	out	0x30, r29	; 48
     326:	b5 f4       	brhc	.+44     	; 0x354 <__trampolines_end+0xfe>
     328:	b4 21       	and	r27, r4
     32a:	23 c4       	rjmp	.+2118   	; 0xb72 <OnTimer+0x11e>
     32c:	b3 56       	subi	r27, 0x63	; 99
     32e:	99 95       	.word	0x9599	; ????
     330:	ba cf       	rjmp	.-140    	; 0x2a6 <__trampolines_end+0x50>
     332:	0f a5       	ldd	r16, Y+47	; 0x2f
     334:	bd b8       	out	0x0d, r11	; 13
     336:	9e b8       	out	0x0e, r9	; 14
     338:	02 28       	or	r0, r2
     33a:	08 88       	ldd	r0, Y+16	; 0x10
     33c:	05 5f       	subi	r16, 0xF5	; 245
     33e:	b2 d9       	rcall	.-3228   	; 0xfffff6a4 <__eeprom_end+0xff7ef414>
     340:	0c c6       	rjmp	.+3096   	; 0xf5a <main+0xbc>
     342:	24 e9       	ldi	r18, 0x94	; 148
     344:	0b b1       	in	r16, 0x0b	; 11
     346:	87 7c       	andi	r24, 0xC7	; 199
     348:	6f 2f       	mov	r22, r31
     34a:	11 4c       	sbci	r17, 0xC1	; 193
     34c:	68 58       	subi	r22, 0x88	; 136
     34e:	ab 1d       	adc	r26, r11
     350:	61 c1       	rjmp	.+706    	; 0x614 <__trampolines_end+0x3be>
     352:	3d 2d       	mov	r19, r13
     354:	66 b6       	in	r6, 0x36	; 54
     356:	90 41       	sbci	r25, 0x10	; 16
     358:	dc 76       	andi	r29, 0x6C	; 108
     35a:	06 71       	andi	r16, 0x16	; 22
     35c:	db 01       	movw	r26, r22
     35e:	bc 20       	and	r11, r12
     360:	d2 98       	cbi	0x1a, 2	; 26
     362:	2a 10       	cpse	r2, r10
     364:	d5 ef       	ldi	r29, 0xF5	; 245
     366:	89 85       	ldd	r24, Y+9	; 0x09
     368:	b1 71       	andi	r27, 0x11	; 17
     36a:	1f b5       	in	r17, 0x2f	; 47
     36c:	b6 06       	cpc	r11, r22
     36e:	a5 e4       	ldi	r26, 0x45	; 69
     370:	bf 9f       	mul	r27, r31
     372:	33 d4       	rcall	.+2150   	; 0xbda <ad_value_handling+0x66>
     374:	b8 e8       	ldi	r27, 0x88	; 136
     376:	a2 c9       	rjmp	.-3260   	; 0xfffff6bc <__eeprom_end+0xff7ef42c>
     378:	07 78       	andi	r16, 0x87	; 135
     37a:	34 f9       	bld	r19, 4
     37c:	00 0f       	add	r16, r16
     37e:	8e a8       	ldd	r8, Y+54	; 0x36
     380:	09 96       	adiw	r24, 0x09	; 9
     382:	18 98       	cbi	0x03, 0	; 3
     384:	0e e1       	ldi	r16, 0x1E	; 30
     386:	bb 0d       	add	r27, r11
     388:	6a 7f       	andi	r22, 0xFA	; 250
     38a:	2d 3d       	cpi	r18, 0xDD	; 221
     38c:	6d 08       	sbc	r6, r13
     38e:	97 6c       	ori	r25, 0xC7	; 199
     390:	64 91       	lpm	r22, Z
     392:	01 5c       	subi	r16, 0xC1	; 193
     394:	63 e6       	ldi	r22, 0x63	; 99
     396:	f4 51       	subi	r31, 0x14	; 20
     398:	6b 6b       	ori	r22, 0xBB	; 187
     39a:	62 61       	ori	r22, 0x12	; 18
     39c:	6c 1c       	adc	r6, r12
     39e:	d8 30       	cpi	r29, 0x08	; 8
     3a0:	65 85       	ldd	r22, Z+13	; 0x0d
     3a2:	4e 00       	.word	0x004e	; ????
     3a4:	62 f2       	brmi	.-104    	; 0x33e <__trampolines_end+0xe8>
     3a6:	ed 95 06 6c 	jmp	0x7ad80c	; 0x7ad80c <apli_id+0x79e814>
     3aa:	7b a5       	ldd	r23, Y+43	; 0x2b
     3ac:	01 1b       	sub	r16, r17
     3ae:	c1 f4       	brne	.+48     	; 0x3e0 <__trampolines_end+0x18a>
     3b0:	08 82       	st	Y, r0
     3b2:	57 c4       	rjmp	.+2222   	; 0xc62 <ad_value_handling+0xee>
     3b4:	0f f5       	brid	.+66     	; 0x3f8 <__trampolines_end+0x1a2>
     3b6:	c6 d9       	rcall	.-3188   	; 0xfffff744 <__eeprom_end+0xff7ef4b4>
     3b8:	b0 65       	ori	r27, 0x50	; 80
     3ba:	50 e9       	ldi	r21, 0x90	; 144
     3bc:	b7 12       	cpse	r11, r23
     3be:	ea b8       	out	0x0a, r14	; 10
     3c0:	be 8b       	std	Y+22, r27	; 0x16
     3c2:	7c 88       	ldd	r7, Y+20	; 0x14
     3c4:	b9 fc       	.word	0xfcb9	; ????
     3c6:	df 1d       	adc	r29, r15
     3c8:	dd 62       	ori	r29, 0x2D	; 45
     3ca:	49 2d       	mov	r20, r9
     3cc:	da 15       	cp	r29, r10
     3ce:	f3 7c       	andi	r31, 0xC3	; 195
     3d0:	d3 8c       	ldd	r13, Z+27	; 0x1b
     3d2:	65 4c       	sbci	r22, 0xC5	; 197
     3d4:	d4 fb       	bst	r29, 4
     3d6:	58 61       	ori	r21, 0x18	; 24
     3d8:	b2 4d       	sbci	r27, 0xD2	; 210
     3da:	ce 51       	subi	r28, 0x1E	; 30
     3dc:	b5 3a       	cpi	r27, 0xA5	; 165
     3de:	74 00       	.word	0x0074	; ????
     3e0:	bc a3       	std	Y+36, r27	; 0x24
     3e2:	e2 30       	cpi	r30, 0x02	; 2
     3e4:	bb d4       	rcall	.+2422   	; 0xd5c <timer0_overflow_handling+0x2>
     3e6:	41 a5       	ldd	r20, Z+41	; 0x29
     3e8:	df 4a       	sbci	r29, 0xAF	; 175
     3ea:	d7 95       	ror	r29
     3ec:	d8 3d       	cpi	r29, 0xD8	; 216
     3ee:	6d c4       	rjmp	.+2266   	; 0xcca <ad_value_handling+0x156>
     3f0:	d1 a4       	ldd	r13, Z+41	; 0x29
     3f2:	fb f4       	brvc	.+62     	; 0x432 <__trampolines_end+0x1dc>
     3f4:	d6 d3       	rcall	.+1964   	; 0xba2 <ad_value_handling+0x2e>
     3f6:	6a e9       	ldi	r22, 0x9A	; 154
     3f8:	69 43       	sbci	r22, 0x39	; 57
     3fa:	fc d9       	rcall	.-3080   	; 0xfffff7f4 <__eeprom_end+0xff7ef564>
     3fc:	6e 34       	cpi	r22, 0x4E	; 78
     3fe:	46 88       	ldd	r4, Z+22	; 0x16
     400:	67 ad       	ldd	r22, Z+63	; 0x3f
     402:	d0 b8       	out	0x00, r13	; 0
     404:	60 da       	rcall	.-2880   	; 0xfffff8c6 <__eeprom_end+0xff7ef636>
     406:	73 2d       	mov	r23, r3
     408:	04 44       	sbci	r16, 0x44	; 68
     40a:	e5 1d       	adc	r30, r5
     40c:	03 33       	cpi	r16, 0x33	; 51
     40e:	5f 4c       	sbci	r21, 0xCF	; 207
     410:	0a aa       	std	Y+50, r0	; 0x32
     412:	c9 7c       	andi	r28, 0xC9	; 201
     414:	0d dd       	rcall	.-1510   	; 0xfffffe30 <__eeprom_end+0xff7efba0>
     416:	3c 71       	andi	r19, 0x1C	; 28
     418:	05 50       	subi	r16, 0x05	; 5
     41a:	aa 41       	sbci	r26, 0x1A	; 26
     41c:	02 27       	eor	r16, r18
     41e:	10 10       	cpse	r1, r0
     420:	0b be       	out	0x3b, r0	; 59
     422:	86 20       	and	r8, r6
     424:	0c c9       	rjmp	.-3560   	; 0xfffff63e <__eeprom_end+0xff7ef3ae>
     426:	25 b5       	in	r18, 0x25	; 37
     428:	68 57       	subi	r22, 0x78	; 120
     42a:	b3 85       	ldd	r27, Z+11	; 0x0b
     42c:	6f 20       	and	r6, r15
     42e:	09 d4       	rcall	.+2066   	; 0xc42 <ad_value_handling+0xce>
     430:	66 b9       	out	0x06, r22	; 6
     432:	9f e4       	ldi	r25, 0x4F	; 79
     434:	61 ce       	rjmp	.-830    	; 0xf8 <__SREG__+0xb9>
     436:	0e f9       	.word	0xf90e	; ????
     438:	de 5e       	subi	r29, 0xEE	; 238
     43a:	98 c9       	rjmp	.-3280   	; 0xfffff76c <__eeprom_end+0xff7ef4dc>
     43c:	d9 29       	or	r29, r9
     43e:	22 98       	cbi	0x04, 2	; 4
     440:	d0 b0       	in	r13, 0x00	; 0
     442:	b4 a8       	ldd	r11, Z+52	; 0x34
     444:	d7 c7       	rjmp	.+4014   	; 0x13f4 <fmotor_vel+0x18>
     446:	17 3d       	cpi	r17, 0xD7	; 215
     448:	b3 59       	subi	r27, 0x93	; 147
     44a:	81 0d       	add	r24, r1
     44c:	b4 2e       	mov	r11, r20
     44e:	3b 5c       	subi	r19, 0xCB	; 203
     450:	bd b7       	in	r27, 0x3d	; 61
     452:	ad 6c       	ori	r26, 0xCD	; 205
     454:	ba c0       	rjmp	.+372    	; 0x5ca <__trampolines_end+0x374>
     456:	20 83       	st	Z, r18
     458:	b8 ed       	ldi	r27, 0xD8	; 216
     45a:	b6 b3       	in	r27, 0x16	; 22
     45c:	bf 9a       	sbi	0x17, 7	; 23
     45e:	0c e2       	ldi	r16, 0x2C	; 44
     460:	b6 03       	fmuls	r19, r22
     462:	9a d2       	rcall	.+1332   	; 0x998 <softward_init+0xb8>
     464:	b1 74       	andi	r27, 0x41	; 65
     466:	39 47       	sbci	r19, 0x79	; 121
     468:	d5 ea       	ldi	r29, 0xA5	; 165
     46a:	af 77       	andi	r26, 0x7F	; 127
     46c:	d2 9d       	mul	r29, r2
     46e:	15 26       	eor	r1, r21
     470:	db 04       	cpc	r13, r11
     472:	83 16       	cp	r8, r19
     474:	dc 73       	andi	r29, 0x3C	; 60
     476:	12 0b       	sbc	r17, r18
     478:	63 e3       	ldi	r22, 0x33	; 51
     47a:	84 3b       	cpi	r24, 0xB4	; 180
     47c:	64 94       	.word	0x9464	; ????
     47e:	3e 6a       	ori	r19, 0xAE	; 174
     480:	6d 0d       	add	r22, r13
     482:	a8 5a       	subi	r26, 0xA8	; 168
     484:	6a 7a       	andi	r22, 0xAA	; 170
     486:	0b cf       	rjmp	.-490    	; 0x29e <__trampolines_end+0x48>
     488:	0e e4       	ldi	r16, 0x4E	; 78
     48a:	9d ff       	.word	0xff9d	; ????
     48c:	09 93       	st	Y+, r16
     48e:	27 ae       	std	Z+63, r2	; 0x3f
     490:	00 0a       	sbc	r0, r16
     492:	b1 9e       	mul	r11, r17
     494:	07 7d       	andi	r16, 0xD7	; 215
     496:	44 93       	xch	Z, r20
     498:	0f f0       	brie	.+2      	; 0x49c <__trampolines_end+0x246>
     49a:	d2 a3       	std	Z+34, r29	; 0x22
     49c:	08 87       	std	Y+8, r16	; 0x08
     49e:	68 f2       	brcs	.-102    	; 0x43a <__trampolines_end+0x1e4>
     4a0:	01 1e       	adc	r0, r17
     4a2:	fe c2       	rjmp	.+1532   	; 0xaa0 <OnTimer+0x4c>
     4a4:	06 69       	ori	r16, 0x96	; 150
     4a6:	5d 57       	subi	r21, 0x7D	; 125
     4a8:	62 f7       	brpl	.-40     	; 0x482 <__trampolines_end+0x22c>
     4aa:	cb 67       	ori	r28, 0x7B	; 123
     4ac:	65 80       	ldd	r6, Z+5	; 0x05
     4ae:	71 36       	cpi	r23, 0x61	; 97
     4b0:	6c 19       	sub	r22, r12
     4b2:	e7 06       	cpc	r14, r23
     4b4:	6b 6e       	ori	r22, 0xEB	; 235
     4b6:	76 1b       	sub	r23, r22
     4b8:	d4 fe       	sbrs	r13, 4
     4ba:	e0 2b       	or	r30, r16
     4bc:	d3 89       	ldd	r29, Z+19	; 0x13
     4be:	5a 7a       	andi	r21, 0xAA	; 170
     4c0:	da 10       	cpse	r13, r10
     4c2:	cc 4a       	sbci	r28, 0xAC	; 172
     4c4:	dd 67       	ori	r29, 0x7D	; 125
     4c6:	6f df       	rcall	.-290    	; 0x3a6 <__trampolines_end+0x150>
     4c8:	b9 f9       	.word	0xf9b9	; ????
     4ca:	f9 ef       	ldi	r31, 0xF9	; 249
     4cc:	be 8e       	std	Y+30, r11	; 0x1e
     4ce:	43 be       	out	0x33, r4	; 51
     4d0:	b7 17       	cp	r27, r23
     4d2:	d5 8e       	std	Z+29, r13	; 0x1d
     4d4:	b0 60       	ori	r27, 0x00	; 0
     4d6:	e8 a3       	std	Y+32, r30	; 0x20
     4d8:	d6 d6       	rcall	.+3500   	; 0x1286 <__vector_20+0xa>
     4da:	7e 93       	st	-X, r23
     4dc:	d1 a1       	ldd	r29, Z+33	; 0x21
     4de:	c4 c2       	rjmp	.+1416   	; 0xa68 <OnTimer+0x14>
     4e0:	d8 38       	cpi	r29, 0x88	; 136
     4e2:	52 f2       	brmi	.-108    	; 0x478 <__trampolines_end+0x222>
     4e4:	df 4f       	sbci	r29, 0xFF	; 255
     4e6:	f1 67       	ori	r31, 0x71	; 113
     4e8:	bb d1       	rcall	.+886    	; 0x860 <hardward_init+0xc6>
     4ea:	67 57       	subi	r22, 0x77	; 119
     4ec:	bc a6       	std	Y+44, r11	; 0x2c
     4ee:	dd 06       	cpc	r13, r29
     4f0:	b5 3f       	cpi	r27, 0xF5	; 245
     4f2:	4b 36       	cpi	r20, 0x6B	; 107
     4f4:	b2 48       	sbci	r27, 0x82	; 130
     4f6:	da 2b       	or	r29, r26
     4f8:	0d d8       	rcall	.-4070   	; 0xfffff514 <__eeprom_end+0xff7ef284>
     4fa:	4c 1b       	sub	r20, r28
     4fc:	0a af       	std	Y+58, r16	; 0x3a
     4fe:	f6 4a       	sbci	r31, 0xA6	; 166
     500:	03 36       	cpi	r16, 0x63	; 99
     502:	60 7a       	andi	r22, 0xA0	; 160
     504:	04 41       	sbci	r16, 0x14	; 20
     506:	c3 ef       	ldi	r28, 0xF3	; 243
     508:	60 df       	rcall	.-320    	; 0x3ca <__trampolines_end+0x174>
     50a:	55 df       	rcall	.-342    	; 0x3b6 <__trampolines_end+0x160>
     50c:	67 a8       	ldd	r6, Z+55	; 0x37
     50e:	ef 8e       	std	Y+31, r14	; 0x1f
     510:	6e 31       	cpi	r22, 0x1E	; 30
     512:	79 be       	out	0x39, r7	; 57
     514:	69 46       	sbci	r22, 0x69	; 105
     516:	8c b3       	in	r24, 0x1c	; 28
     518:	61 cb       	rjmp	.-2366   	; 0xfffffbdc <__eeprom_end+0xff7ef94c>
     51a:	1a 83       	std	Y+2, r17	; 0x02
     51c:	66 bc       	out	0x26, r6	; 38
     51e:	a0 d2       	rcall	.+1344   	; 0xa60 <OnTimer+0xc>
     520:	6f 25       	eor	r22, r15
     522:	36 e2       	ldi	r19, 0x26	; 38
     524:	68 52       	subi	r22, 0x28	; 40
     526:	95 77       	andi	r25, 0x75	; 117
     528:	0c cc       	rjmp	.-2024   	; 0xfffffd42 <__eeprom_end+0xff7efab2>
     52a:	03 47       	sbci	r16, 0x73	; 115
     52c:	0b bb       	out	0x1b, r16	; 27
     52e:	b9 16       	cp	r11, r25
     530:	02 22       	and	r0, r18
     532:	2f 26       	eor	r2, r31
     534:	05 55       	subi	r16, 0x55	; 85
     536:	be 3b       	cpi	r27, 0xBE	; 190
     538:	ba c5       	rjmp	.+2932   	; 0x10ae <main+0x210>
     53a:	28 0b       	sbc	r18, r24
     53c:	bd b2       	in	r11, 0x1d	; 29
     53e:	92 5a       	subi	r25, 0xA2	; 162
     540:	b4 2b       	or	r27, r20
     542:	04 6a       	ori	r16, 0xA4	; 164
     544:	b3 5c       	subi	r27, 0xC3	; 195
     546:	a7 ff       	sbrs	r26, 7
     548:	d7 c2       	rjmp	.+1454   	; 0xaf8 <OnTimer+0xa4>
     54a:	31 cf       	rjmp	.-414    	; 0x3ae <__trampolines_end+0x158>
     54c:	d0 b5       	in	r29, 0x20	; 32
     54e:	8b 9e       	mul	r8, r27
     550:	d9 2c       	mov	r13, r9
     552:	1d ae       	std	Y+61, r1	; 0x3d
     554:	de 5b       	subi	r29, 0xBE	; 190
     556:	b0 c2       	rjmp	.+1376   	; 0xab8 <OnTimer+0x64>
     558:	64 9b       	sbis	0x0c, 4	; 12
     55a:	26 f2       	brts	.-120    	; 0x4e4 <__trampolines_end+0x28e>
     55c:	63 ec       	ldi	r22, 0xC3	; 195
     55e:	9c a3       	std	Y+36, r25	; 0x24
     560:	6a 75       	andi	r22, 0x5A	; 90
     562:	0a 93       	st	-Y, r16
     564:	6d 02       	muls	r22, r29
     566:	a9 06       	cpc	r10, r25
     568:	09 9c       	mul	r0, r9
     56a:	3f 36       	cpi	r19, 0x6F	; 111
     56c:	0e eb       	ldi	r16, 0xBE	; 190
     56e:	85 67       	ori	r24, 0x75	; 117
     570:	07 72       	andi	r16, 0x27	; 39
     572:	13 57       	subi	r17, 0x73	; 115
     574:	00 05       	cpc	r16, r0
     576:	82 4a       	sbci	r24, 0xA2	; 162
     578:	bf 95 14 7a 	call	0x6ef428	; 0x6ef428 <apli_id+0x6e0430>
     57c:	b8 e2       	ldi	r27, 0x28	; 40
     57e:	ae 2b       	or	r26, r30
     580:	b1 7b       	andi	r27, 0xB1	; 177
     582:	38 1b       	sub	r19, r24
     584:	b6 0c       	add	r11, r6
     586:	9b 8e       	std	Y+27, r9	; 0x1b
     588:	d2 92       	st	-Z, r13
     58a:	0d be       	out	0x3d, r0	; 61
     58c:	d5 e5       	ldi	r29, 0x55	; 85
     58e:	b7 ef       	ldi	r27, 0xF7	; 247
     590:	dc 7c       	andi	r29, 0xCC	; 204
     592:	21 df       	rcall	.-446    	; 0x3d6 <__trampolines_end+0x180>
     594:	db 0b       	sbc	r29, r27
     596:	d4 d2       	rcall	.+1448   	; 0xb40 <OnTimer+0xec>
     598:	d3 86       	std	Z+11, r13	; 0x0b
     59a:	42 e2       	ldi	r20, 0x22	; 34
     59c:	d4 f1       	brlt	.+116    	; 0x612 <__trampolines_end+0x3bc>
     59e:	f8 b3       	in	r31, 0x18	; 24
     5a0:	dd 68       	ori	r29, 0x8D	; 141
     5a2:	6e 83       	std	Y+6, r22	; 0x06
     5a4:	da 1f       	adc	r29, r26
     5a6:	cd 16       	cp	r12, r29
     5a8:	be 81       	ldd	r27, Y+6	; 0x06
     5aa:	5b 26       	eor	r5, r27
     5ac:	b9 f6       	brne	.-82     	; 0x55c <__trampolines_end+0x306>
     5ae:	e1 77       	andi	r30, 0x71	; 113
     5b0:	b0 6f       	ori	r27, 0xF0	; 240
     5b2:	77 47       	sbci	r23, 0x77	; 119
     5b4:	b7 18       	sub	r11, r7
     5b6:	e6 5a       	subi	r30, 0xA6	; 166
     5b8:	08 88       	ldd	r0, Y+16	; 0x10
     5ba:	70 6a       	ori	r23, 0xA0	; 160
     5bc:	0f ff       	.word	0xff0f	; ????
     5be:	ca 3b       	cpi	r28, 0xBA	; 186
     5c0:	06 66       	ori	r16, 0x66	; 102
     5c2:	5c 0b       	sbc	r21, r28
     5c4:	01 11       	cpse	r16, r1
     5c6:	ff 9e       	mul	r15, r31
     5c8:	65 8f       	std	Z+29, r22	; 0x1d
     5ca:	69 ae       	std	Y+57, r6	; 0x39
     5cc:	62 f8       	bld	r6, 2
     5ce:	d3 ff       	sbrs	r29, 3
     5d0:	6b 61       	ori	r22, 0x1B	; 27
     5d2:	45 cf       	rjmp	.-374    	; 0x45e <__trampolines_end+0x208>
     5d4:	6c 16       	cp	r6, r28
     5d6:	78 e2       	ldi	r23, 0x28	; 40
     5d8:	0a a0       	ldd	r0, Y+34	; 0x22
     5da:	ee d2       	rcall	.+1500   	; 0xbb8 <ad_value_handling+0x44>
     5dc:	0d d7       	rcall	.+3610   	; 0x13f8 <fmotor_vel+0x1c>
     5de:	54 83       	std	Z+4, r21	; 0x04
     5e0:	04 4e       	sbci	r16, 0xE4	; 228
     5e2:	c2 b3       	in	r28, 0x12	; 18
     5e4:	03 39       	cpi	r16, 0x93	; 147
     5e6:	61 26       	eor	r6, r17
     5e8:	67 a7       	std	Z+47, r22	; 0x2f
     5ea:	f7 16       	cp	r15, r23
     5ec:	60 d0       	rcall	.+192    	; 0x6ae <check_bootloader+0x1a>
     5ee:	4d 47       	sbci	r20, 0x7D	; 125
     5f0:	69 49       	sbci	r22, 0x99	; 153
     5f2:	db 77       	andi	r29, 0x7B	; 123
     5f4:	6e 3e       	cpi	r22, 0xEE	; 238
     5f6:	4a 6a       	ori	r20, 0xAA	; 170
     5f8:	d1 ae       	std	Z+57, r13	; 0x39
     5fa:	dc 5a       	subi	r29, 0xAC	; 172
     5fc:	d6 d9       	rcall	.-3156   	; 0xfffff9aa <__eeprom_end+0xff7ef71a>
     5fe:	66 0b       	sbc	r22, r22
     600:	df 40       	sbci	r29, 0x0F	; 15
     602:	f0 3b       	cpi	r31, 0xB0	; 176
     604:	d8 37       	cpi	r29, 0x78	; 120
     606:	53 ae       	std	Z+59, r5	; 0x3b
     608:	bc a9       	ldd	r27, Y+52	; 0x34
     60a:	c5 9e       	mul	r12, r21
     60c:	bb de       	rcall	.-650    	; 0x384 <__trampolines_end+0x12e>
     60e:	7f cf       	rjmp	.-258    	; 0x50e <__trampolines_end+0x2b8>
     610:	b2 47       	sbci	r27, 0x72	; 114
     612:	e9 ff       	.word	0xffe9	; ????
     614:	b5 30       	cpi	r27, 0x05	; 5
     616:	1c f2       	brlt	.-122    	; 0x59e <__trampolines_end+0x348>
     618:	bd bd       	out	0x2d, r27	; 45
     61a:	8a c2       	rjmp	.+1300   	; 0xb30 <OnTimer+0xdc>
     61c:	ba ca       	rjmp	.-2700   	; 0xfffffb92 <__eeprom_end+0xff7ef902>
     61e:	30 93 b3 53 	sts	0x53B3, r19
     622:	a6 a3       	std	Z+38, r26	; 0x26
     624:	b4 24       	eor	r11, r4
     626:	05 36       	cpi	r16, 0x65	; 101
     628:	d0 ba       	out	0x10, r13	; 16
     62a:	93 06       	cpc	r9, r19
     62c:	d7 cd       	rjmp	.-1106   	; 0x1dc <__SREG__+0x19d>
     62e:	29 57       	subi	r18, 0x79	; 121
     630:	de 54       	subi	r29, 0x4E	; 78
     632:	bf 67       	ori	r27, 0x7F	; 127
     634:	d9 23       	and	r29, r25
     636:	2e 7a       	andi	r18, 0xAE	; 174
     638:	66 b3       	in	r22, 0x16	; 22
     63a:	b8 4a       	sbci	r27, 0xA8	; 168
     63c:	61 c4       	rjmp	.+2242   	; 0xf00 <main+0x62>
     63e:	02 1b       	sub	r16, r18
     640:	68 5d       	subi	r22, 0xD8	; 216
     642:	94 2b       	or	r25, r20
     644:	6f 2a       	or	r6, r31
     646:	37 be       	out	0x37, r3	; 55
     648:	0b b4       	in	r0, 0x2b	; 43
     64a:	a1 8e       	std	Z+25, r10	; 0x19
     64c:	0c c3       	rjmp	.+1560   	; 0xc66 <ad_value_handling+0xf2>
     64e:	1b df       	rcall	.-458    	; 0x486 <__trampolines_end+0x230>
     650:	05 5a       	subi	r16, 0xA5	; 165
     652:	8d ef       	ldi	r24, 0xFD	; 253
     654:	02 2d       	mov	r16, r2

00000656 <__ctors_end>:
     656:	11 24       	eor	r1, r1
     658:	1f be       	out	0x3f, r1	; 63
     65a:	cf ef       	ldi	r28, 0xFF	; 255
     65c:	d0 e1       	ldi	r29, 0x10	; 16
     65e:	de bf       	out	0x3e, r29	; 62
     660:	cd bf       	out	0x3d, r28	; 61

00000662 <__do_copy_data>:
     662:	17 e0       	ldi	r17, 0x07	; 7
     664:	a0 e0       	ldi	r26, 0x00	; 0
     666:	b1 e0       	ldi	r27, 0x01	; 1
     668:	e0 e9       	ldi	r30, 0x90	; 144
     66a:	ff e6       	ldi	r31, 0x6F	; 111
     66c:	02 c0       	rjmp	.+4      	; 0x672 <__do_copy_data+0x10>
     66e:	05 90       	lpm	r0, Z+
     670:	0d 92       	st	X+, r0
     672:	a8 3d       	cpi	r26, 0xD8	; 216
     674:	b1 07       	cpc	r27, r17
     676:	d9 f7       	brne	.-10     	; 0x66e <__do_copy_data+0xc>

00000678 <__do_clear_bss>:
     678:	20 e1       	ldi	r18, 0x10	; 16
     67a:	a8 ed       	ldi	r26, 0xD8	; 216
     67c:	b7 e0       	ldi	r27, 0x07	; 7
     67e:	01 c0       	rjmp	.+2      	; 0x682 <.do_clear_bss_start>

00000680 <.do_clear_bss_loop>:
     680:	1d 92       	st	X+, r1

00000682 <.do_clear_bss_start>:
     682:	aa 3c       	cpi	r26, 0xCA	; 202
     684:	b2 07       	cpc	r27, r18
     686:	e1 f7       	brne	.-8      	; 0x680 <.do_clear_bss_loop>
     688:	0e 94 4f 07 	call	0xe9e	; 0xe9e <main>
     68c:	0c 94 c6 37 	jmp	0x6f8c	; 0x6f8c <_exit>

00000690 <__bad_interrupt>:
     690:	0c 94 00 00 	jmp	0	; 0x0 <__vectors>

00000694 <check_bootloader>:
	*/
	//
	unsigned char tmp[4];
	//
	//这句话没有实际的意义，只是让编译器不要优化掉了apli_id数组，为其分配空间。
	hard_uart_rx_addr = pgm_read_byte(&apli_id[2]);
     694:	ea ef       	ldi	r30, 0xFA	; 250
     696:	ff ee       	ldi	r31, 0xEF	; 239
     698:	e4 91       	lpm	r30, Z
     69a:	e0 93 4b 0a 	sts	0x0A4B, r30
	//
	tmp[0] = pgm_read_byte(0xf001);
     69e:	e1 e0       	ldi	r30, 0x01	; 1
     6a0:	f0 ef       	ldi	r31, 0xF0	; 240
     6a2:	24 91       	lpm	r18, Z
	tmp[1] = pgm_read_byte(0xf005);
     6a4:	e5 e0       	ldi	r30, 0x05	; 5
     6a6:	f0 ef       	ldi	r31, 0xF0	; 240
     6a8:	94 91       	lpm	r25, Z
	tmp[2] = pgm_read_byte(0xf008);
     6aa:	e8 e0       	ldi	r30, 0x08	; 8
     6ac:	f0 ef       	ldi	r31, 0xF0	; 240
     6ae:	84 91       	lpm	r24, Z
	tmp[3] = pgm_read_byte(0xf00c);
     6b0:	ec e0       	ldi	r30, 0x0C	; 12
     6b2:	f0 ef       	ldi	r31, 0xF0	; 240
     6b4:	e4 91       	lpm	r30, Z
	if((0x94!=tmp[0]) || (0x94!=tmp[1]) || (0x0c!=tmp[2]) || (0x0c!=tmp[3]))
     6b6:	24 39       	cpi	r18, 0x94	; 148
     6b8:	31 f4       	brne	.+12     	; 0x6c6 <check_bootloader+0x32>
     6ba:	94 39       	cpi	r25, 0x94	; 148
     6bc:	21 f4       	brne	.+8      	; 0x6c6 <check_bootloader+0x32>
     6be:	8c 30       	cpi	r24, 0x0C	; 12
     6c0:	11 f4       	brne	.+4      	; 0x6c6 <check_bootloader+0x32>
     6c2:	ec 30       	cpi	r30, 0x0C	; 12
     6c4:	b9 f0       	breq	.+46     	; 0x6f4 <check_bootloader+0x60>
	{
		//bootloader missed
		//
		is_wdt_rst = 0;
     6c6:	84 b7       	in	r24, 0x34	; 52
     6c8:	87 7f       	andi	r24, 0xF7	; 247
     6ca:	84 bf       	out	0x34, r24	; 52
		wdt_reset(); //检测到没有引导软件，应用软件不执行
     6cc:	a8 95       	wdr
		wdt_disable();
     6ce:	88 e1       	ldi	r24, 0x18	; 24
     6d0:	0f b6       	in	r0, 0x3f	; 63
     6d2:	f8 94       	cli
     6d4:	80 93 60 00 	sts	0x0060, r24
     6d8:	10 92 60 00 	sts	0x0060, r1
     6dc:	0f be       	out	0x3f, r0	; 63
		//
		for(;;) //没有bootloader
		{
			set_sleep_mode(SLEEP_MODE_IDLE);
     6de:	83 b7       	in	r24, 0x33	; 51
     6e0:	81 7f       	andi	r24, 0xF1	; 241
     6e2:	83 bf       	out	0x33, r24	; 51
			sleep_enable();
     6e4:	83 b7       	in	r24, 0x33	; 51
     6e6:	81 60       	ori	r24, 0x01	; 1
     6e8:	83 bf       	out	0x33, r24	; 51
			sleep_cpu();
     6ea:	88 95       	sleep
			sleep_disable();
     6ec:	83 b7       	in	r24, 0x33	; 51
     6ee:	8e 7f       	andi	r24, 0xFE	; 254
     6f0:	83 bf       	out	0x33, r24	; 51
     6f2:	f5 cf       	rjmp	.-22     	; 0x6de <check_bootloader+0x4a>
		}
	}
	//
	asm volatile("nop");
     6f4:	00 00       	nop
     6f6:	08 95       	ret

000006f8 <base_task>:
{
	//10ms执行一次任务
	//
	//rs485通信

	time_flag++;
     6f8:	80 91 dc 07 	lds	r24, 0x07DC
     6fc:	90 91 dd 07 	lds	r25, 0x07DD
     700:	01 96       	adiw	r24, 0x01	; 1
     702:	90 93 dd 07 	sts	0x07DD, r25
     706:	80 93 dc 07 	sts	0x07DC, r24




    //if (time_flag >20)
	if (time_flag >20)
     70a:	45 97       	sbiw	r24, 0x15	; 21
     70c:	58 f0       	brcs	.+22     	; 0x724 <base_task+0x2c>
    {
	    uart_tx();
     70e:	0e 94 a6 0b 	call	0x174c	; 0x174c <uart_tx>

		time_flag= 0;
     712:	10 92 dd 07 	sts	0x07DD, r1
     716:	10 92 dc 07 	sts	0x07DC, r1
		temp1_flag_count ++;
     71a:	80 91 4a 0a 	lds	r24, 0x0A4A
     71e:	8f 5f       	subi	r24, 0xFF	; 255
     720:	80 93 4a 0a 	sts	0x0A4A, r24
    }



    //数码管显示处理
	led_display();
     724:	0e 94 b2 1c 	call	0x3964	; 0x3964 <led_display>
	//
	//自动手动运行处理
	auto_run();
     728:	0e 94 6c 0b 	call	0x16d8	; 0x16d8 <auto_run>
	manual_run();
     72c:	0e 94 9f 0b 	call	0x173e	; 0x173e <manual_run>
	//
	//变频器控制
    //控制B路
	fmotor_vel();
     730:	0e 94 ee 09 	call	0x13dc	; 0x13dc <fmotor_vel>
	fmotor_vel_a();
     734:	0e 94 62 0a 	call	0x14c4	; 0x14c4 <fmotor_vel_a>
	//
	//远控模式下运行处理
	run_in_remote_ctrl();
     738:	0e 94 66 15 	call	0x2acc	; 0x2acc <run_in_remote_ctrl>
	//
	//检测输入信号并处理
	mb_signal_handling();
     73c:	0e 94 09 18 	call	0x3012	; 0x3012 <mb_signal_handling>
	dw_signal_handling();
     740:	0e 94 fc 17 	call	0x2ff8	; 0x2ff8 <dw_signal_handling>
	//
	lw_signal_handling();
     744:	0e 94 c7 17 	call	0x2f8e	; 0x2f8e <lw_signal_handling>
	//
	//设备运行时间记录
	runed_time();
     748:	0c 94 d5 11 	jmp	0x23aa	; 0x23aa <runed_time>

0000074c <pin_init>:
}
////////////////////////////////////////////////////////////////
void pin_init(void)
{
	//全部复位，然后在设置
	PORTA = 0;
     74c:	12 b8       	out	0x02, r1	; 2
	PORTB = 0;
     74e:	15 b8       	out	0x05, r1	; 5
	PORTC = 0;
     750:	18 b8       	out	0x08, r1	; 8
	PORTD = 0;
     752:	1b b8       	out	0x0b, r1	; 11
	DDRA = 0;
     754:	11 b8       	out	0x01, r1	; 1
	DDRB = 0;
     756:	14 b8       	out	0x04, r1	; 4
	DDRC = 0;
     758:	17 b8       	out	0x07, r1	; 7
	DDRD = 0;
     75a:	1a b8       	out	0x0a, r1	; 10
	//
	//七路继电器输出
	ddr_by = 1;
     75c:	3e 9a       	sbi	0x07, 6	; 7
	ddr_zk = 1;
     75e:	38 9a       	sbi	0x07, 0	; 7
	ddr_zt = 1;
     760:	39 9a       	sbi	0x07, 1	; 7
	ddr_wg = 1;
     762:	3a 9a       	sbi	0x07, 2	; 7
	ddr_hz = 1;
     764:	3b 9a       	sbi	0x07, 3	; 7
	ddr_lz = 1;
     766:	3c 9a       	sbi	0x07, 4	; 7
	ddr_bj = 1;
     768:	3d 9a       	sbi	0x07, 5	; 7
	ddr_mbbj = 1; //mb信号故障报警
     76a:	3e 9a       	sbi	0x07, 6	; 7
	//
	//四路ADC
	port_d1 = 0;
     76c:	16 98       	cbi	0x02, 6	; 2
	port_d2 = 0;
     76e:	17 98       	cbi	0x02, 7	; 2
	port_l = 0;
     770:	10 98       	cbi	0x02, 0	; 2
	port_d3 = 0;
     772:	11 98       	cbi	0x02, 1	; 2
	//
	//两路pwm出
	ddr_pwma = 1;
     774:	55 9a       	sbi	0x0a, 5	; 10
	ddr_pwmb = 1;
     776:	54 9a       	sbi	0x0a, 4	; 10
	//
	//八路数字入(光电隔离)
	port_lw = 1;
     778:	12 9a       	sbi	0x02, 2	; 2
	port_yq = 1;
     77a:	13 9a       	sbi	0x02, 3	; 2
	port_yz = 1;
     77c:	14 9a       	sbi	0x02, 4	; 2
	port_mb = 1;
     77e:	47 9a       	sbi	0x08, 7	; 8
	port_qr = 1;
     780:	5e 9a       	sbi	0x0b, 6	; 11
	port_ql = 1;
     782:	15 9a       	sbi	0x02, 5	; 2
	port_dw = 1;
     784:	5f 9a       	sbi	0x0b, 7	; 11
	//
	//485发送使能(高电平有效)
	ddr_485en = 1;
     786:	21 9a       	sbi	0x04, 1	; 4
	port_485ro = 1;//RXD上拉
     788:	58 9a       	sbi	0x0b, 0	; 11
	ddr_485di = 1;//TXD
     78a:	51 9a       	sbi	0x0a, 1	; 10
	//
	//spi模拟uart
	ddr_pc_485en = 1;
     78c:	20 9a       	sbi	0x04, 0	; 4
	port_pc_485ro = 1;//上拉
     78e:	5a 9a       	sbi	0x0b, 2	; 11
	ddr_pc_485di = 1;//输出
     790:	53 9a       	sbi	0x0a, 3	; 10
	//
	ddr_w5500_rst = 1;
     792:	24 9a       	sbi	0x04, 4	; 4
	ddr_w5500_cs = 1;
     794:	23 9a       	sbi	0x04, 3	; 4
	ddr_w5500_int = 0;
     796:	22 98       	cbi	0x04, 2	; 4
     798:	08 95       	ret

0000079a <hardward_init>:
	}
	#endif
}
////////////////////////////////////////////////////////////
void hardward_init(void)
{
     79a:	cf 93       	push	r28
	//硬件初始化程序,设置固定的端口方向,串口属性,AD属性等
	//
	//IO
	if(RST_CAUSE_WDT != reset_cause)
     79c:	80 91 c3 09 	lds	r24, 0x09C3
     7a0:	88 30       	cpi	r24, 0x08	; 8
     7a2:	11 f0       	breq	.+4      	; 0x7a8 <hardward_init+0xe>
	{
		pin_init();
     7a4:	0e 94 a6 03 	call	0x74c	; 0x74c <pin_init>
	}
	//
	if(m_rPara.para.baud_modbus < MODBUS_BAUD_9600)
     7a8:	80 91 73 0a 	lds	r24, 0x0A73
     7ac:	81 11       	cpse	r24, r1
     7ae:	02 c0       	rjmp	.+4      	; 0x7b4 <hardward_init+0x1a>
	{
		m_rPara.para.baud_modbus = MODBUS_BAUD_9600;
     7b0:	81 e0       	ldi	r24, 0x01	; 1
     7b2:	03 c0       	rjmp	.+6      	; 0x7ba <hardward_init+0x20>
	}
	else if(m_rPara.para.baud_modbus > MODBUS_BAUD_38400)
     7b4:	84 30       	cpi	r24, 0x04	; 4
     7b6:	18 f0       	brcs	.+6      	; 0x7be <hardward_init+0x24>
	{
		m_rPara.para.baud_modbus = MODBUS_BAUD_38400;
     7b8:	83 e0       	ldi	r24, 0x03	; 3
     7ba:	80 93 73 0a 	sts	0x0A73, r24
	}
	//
	set_modbus_baud(m_rPara.para.baud_modbus);
     7be:	80 91 73 0a 	lds	r24, 0x0A73
     7c2:	0e 94 e6 2a 	call	0x55cc	; 0x55cc <set_modbus_baud>
	TRACE_STRING("uart1 set ok\r\n\0");
     7c6:	6e e0       	ldi	r22, 0x0E	; 14
     7c8:	82 e1       	ldi	r24, 0x12	; 18
     7ca:	91 e0       	ldi	r25, 0x01	; 1
     7cc:	0e 94 20 2b 	call	0x5640	; 0x5640 <send_uart1_to_computer>
	//
	//定时器0
	TCCR0A = 0x00;//普通模式，不输出
     7d0:	14 bc       	out	0x24, r1	; 36
	TCCR0B = 0x03;//4MHz时钟,64分频
     7d2:	83 e0       	ldi	r24, 0x03	; 3
     7d4:	85 bd       	out	0x25, r24	; 37
	TCNT0 = 256-60;//计数62次,约1毫秒
     7d6:	84 ec       	ldi	r24, 0xC4	; 196
     7d8:	86 bd       	out	0x26, r24	; 38
	TIMSK0 |= _BV(TOIE0);//定时器0中断使能
     7da:	80 91 6e 00 	lds	r24, 0x006E
     7de:	81 60       	ori	r24, 0x01	; 1
     7e0:	80 93 6e 00 	sts	0x006E, r24
	TRACE_STRING("timer0 set ok\r\n\0");
     7e4:	6f e0       	ldi	r22, 0x0F	; 15
     7e6:	82 e2       	ldi	r24, 0x22	; 34
     7e8:	91 e0       	ldi	r25, 0x01	; 1
     7ea:	0e 94 20 2b 	call	0x5640	; 0x5640 <send_uart1_to_computer>
	//
	//定时器1
	TCCR1A = 0xa2;//oc1a,oc1b匹配时清零,达到TOP时置1
     7ee:	82 ea       	ldi	r24, 0xA2	; 162
     7f0:	80 93 80 00 	sts	0x0080, r24
	TCCR1B = 0x19;//时钟不分频
     7f4:	89 e1       	ldi	r24, 0x19	; 25
     7f6:	80 93 81 00 	sts	0x0081, r24
	TCCR1C = 0x00;//没有强制输出
     7fa:	10 92 82 00 	sts	0x0082, r1
	ICR1 = 1001;//TOP
     7fe:	89 ee       	ldi	r24, 0xE9	; 233
     800:	93 e0       	ldi	r25, 0x03	; 3
     802:	90 93 87 00 	sts	0x0087, r25
     806:	80 93 86 00 	sts	0x0086, r24
    bpwma = 500;//占空比50%
     80a:	84 ef       	ldi	r24, 0xF4	; 244
     80c:	91 e0       	ldi	r25, 0x01	; 1
     80e:	90 93 89 00 	sts	0x0089, r25
     812:	80 93 88 00 	sts	0x0088, r24
    bpwmb = 500;
     816:	90 93 8b 00 	sts	0x008B, r25
     81a:	80 93 8a 00 	sts	0x008A, r24
    TRACE_STRING("timer1 set ok\r\n\0");
     81e:	6f e0       	ldi	r22, 0x0F	; 15
     820:	83 e3       	ldi	r24, 0x33	; 51
     822:	91 e0       	ldi	r25, 0x01	; 1
     824:	0e 94 20 2b 	call	0x5640	; 0x5640 <send_uart1_to_computer>
	//
	//外中断
	EIMSK = 0;//全部禁用外部中断
     828:	1d ba       	out	0x1d, r1	; 29
	EICRA = 0b00101010;//int2下降沿触发//int1下降沿触发//int0下降沿触发
     82a:	8a e2       	ldi	r24, 0x2A	; 42
     82c:	80 93 69 00 	sts	0x0069, r24
	EIMSK &= ~_BV(INT2);//w5500_int中断禁用
     830:	ea 98       	cbi	0x1d, 2	; 29
	TRACE_STRING("int2 disable(w5500 int)\r\n\0");
     832:	69 e1       	ldi	r22, 0x19	; 25
     834:	84 e4       	ldi	r24, 0x44	; 68
     836:	91 e0       	ldi	r25, 0x01	; 1
     838:	0e 94 20 2b 	call	0x5640	; 0x5640 <send_uart1_to_computer>
	//
	PCICR = 0;
     83c:	10 92 68 00 	sts	0x0068, r1
	PCMSK0 = 0;
     840:	10 92 6b 00 	sts	0x006B, r1
	PCMSK1 = 0;
     844:	10 92 6c 00 	sts	0x006C, r1
	PCMSK2 = 0;
     848:	10 92 6d 00 	sts	0x006D, r1
	PCMSK3 = 0;
     84c:	10 92 73 00 	sts	0x0073, r1
	//if(MB_PULSE == m_rPara.para.mb_level_pulse)
	{
		PCICR |= _BV(PCIE2);//PCINT23使能，检测MB脉冲
     850:	80 91 68 00 	lds	r24, 0x0068
     854:	84 60       	ori	r24, 0x04	; 4
     856:	80 93 68 00 	sts	0x0068, r24
		PCMSK2 |= _BV(PCINT23);
     85a:	80 91 6d 00 	lds	r24, 0x006D
     85e:	80 68       	ori	r24, 0x80	; 128
     860:	80 93 6d 00 	sts	0x006D, r24
	}
	//if(DW_PULSE == m_rPara.para.dw_level_pulse)
	{
		PCICR |= _BV(PCIE3);//PCINT31使能，检测DW脉冲
     864:	80 91 68 00 	lds	r24, 0x0068
     868:	88 60       	ori	r24, 0x08	; 8
     86a:	80 93 68 00 	sts	0x0068, r24
		PCMSK3 |= _BV(PCINT31);
     86e:	80 91 73 00 	lds	r24, 0x0073
     872:	80 68       	ori	r24, 0x80	; 128
     874:	80 93 73 00 	sts	0x0073, r24
	}
	//
	//SPI，控制网络芯片w5500
	//中断禁用，spi使能，高位先出,主机,mode0(sck空闲时为低，在上升沿的时候采样数据)
	SPCR = _BV(SPE)|_BV(MSTR);//fosc/4   //（1M）
     878:	80 e5       	ldi	r24, 0x50	; 80
     87a:	8c bd       	out	0x2c, r24	; 44
	//SPCR = _BV(SPE)|_BV(MSTR)|_BV(SPR0);//fosc/16   //（256k）
	//SPCR = _BV(SPE)|_BV(MSTR)|_BV(SPR1);//fosc/64   //（64k）
	//SPCR = _BV(SPE)|_BV(MSTR)|_BV(SPR1)|_BV(SPR0);//fosc/128   //（32k）
	SPSR |= _BV(SPI2X); //设置该位，SPI速度是上面设置速度的两倍
     87c:	8d b5       	in	r24, 0x2d	; 45
     87e:	81 60       	ori	r24, 0x01	; 1
     880:	8d bd       	out	0x2d, r24	; 45
	//
	SPSR=0;
     882:	1d bc       	out	0x2d, r1	; 45
	ddr_w5500_mosi = 1;
     884:	25 9a       	sbi	0x04, 5	; 4
	ddr_w5500_miso = 0;
     886:	26 98       	cbi	0x04, 6	; 4
	ddr_w5500_sck = 1;
     888:	27 9a       	sbi	0x04, 7	; 4
	TRACE_STRING("spi set ok\r\n\0");
     88a:	6c e0       	ldi	r22, 0x0C	; 12
     88c:	8f e5       	ldi	r24, 0x5F	; 95
     88e:	91 e0       	ldi	r25, 0x01	; 1
     890:	0e 94 20 2b 	call	0x5640	; 0x5640 <send_uart1_to_computer>
	//
	//ADC
	ADMUX=bD1;//0000 0000//AREF参考
     894:	c6 e0       	ldi	r28, 0x06	; 6
     896:	c0 93 7c 00 	sts	0x007C, r28
	ADCSRA=0xa5;//1010 0101//允许ad转换,自动触发使能,不允许中断,32分频(125K)
     89a:	85 ea       	ldi	r24, 0xA5	; 165
     89c:	80 93 7a 00 	sts	0x007A, r24
	ADCSRB=0;//自由连续转换
     8a0:	10 92 7b 00 	sts	0x007B, r1
	adsc=1;//启动AD转换
     8a4:	80 91 7a 00 	lds	r24, 0x007A
     8a8:	80 64       	ori	r24, 0x40	; 64
     8aa:	80 93 7a 00 	sts	0x007A, r24
	TRACE_STRING("adc set ok\r\n\0");
     8ae:	6c e0       	ldi	r22, 0x0C	; 12
     8b0:	8d e6       	ldi	r24, 0x6D	; 109
     8b2:	91 e0       	ldi	r25, 0x01	; 1
     8b4:	0e 94 20 2b 	call	0x5640	; 0x5640 <send_uart1_to_computer>
	//
	//USART
	//38461.5 Bd //0.2%
	UBRR0H=0;
     8b8:	10 92 c5 00 	sts	0x00C5, r1
	UBRR0L=12;
     8bc:	8c e0       	ldi	r24, 0x0C	; 12
     8be:	80 93 c4 00 	sts	0x00C4, r24

	//19200
	//UBRR0L=24;
	UCSR0A=(1<<U2X0);//波特率分频因子从16降到8
     8c2:	82 e0       	ldi	r24, 0x02	; 2
     8c4:	80 93 c0 00 	sts	0x00C0, r24
	UCSR0B=(1<<RXEN0)|(1<<TXEN0)|(1<<RXCIE0)|(1<<TXCIE0);//接收中断使能
     8c8:	88 ed       	ldi	r24, 0xD8	; 216
     8ca:	80 93 c1 00 	sts	0x00C1, r24
	UCSR0C=(3<<UCSZ00);//8N1
     8ce:	c0 93 c2 00 	sts	0x00C2, r28
	//
    b485en=0;//接收使能,发送禁止
     8d2:	29 98       	cbi	0x05, 1	; 5
    TRACE_STRING("uart0 set ok\r\n\0");
     8d4:	6e e0       	ldi	r22, 0x0E	; 14
     8d6:	8b e7       	ldi	r24, 0x7B	; 123
     8d8:	91 e0       	ldi	r25, 0x01	; 1
}
     8da:	cf 91       	pop	r28
	UCSR0A=(1<<U2X0);//波特率分频因子从16降到8
	UCSR0B=(1<<RXEN0)|(1<<TXEN0)|(1<<RXCIE0)|(1<<TXCIE0);//接收中断使能
	UCSR0C=(3<<UCSZ00);//8N1
	//
    b485en=0;//接收使能,发送禁止
    TRACE_STRING("uart0 set ok\r\n\0");
     8dc:	0c 94 20 2b 	jmp	0x5640	; 0x5640 <send_uart1_to_computer>

000008e0 <softward_init>:
	ddr_w5500_int = 0;
}
////////////////////////////////////////////////////////////////
void softward_init(void)
{
	timer0_overflow_count = 0;
     8e0:	10 92 55 0a 	sts	0x0A55, r1
	//
    ad_counter[bD1]=0;//ad采样个数清零
     8e4:	10 92 d9 0a 	sts	0x0AD9, r1
     8e8:	10 92 d8 0a 	sts	0x0AD8, r1
    ad_counter[bD2]=0;//ad采样个数清零
     8ec:	10 92 db 0a 	sts	0x0ADB, r1
     8f0:	10 92 da 0a 	sts	0x0ADA, r1
    ad_counter[bD3]=0;//ad采样个数清零
     8f4:	10 92 cf 0a 	sts	0x0ACF, r1
     8f8:	10 92 ce 0a 	sts	0x0ACE, r1
    ad_counter[bL]=0;//ad采样个数清零
     8fc:	10 92 cd 0a 	sts	0x0ACD, r1
     900:	10 92 cc 0a 	sts	0x0ACC, r1
	ad_add_value[bD1].ml=0;
     904:	10 92 29 0b 	sts	0x0B29, r1
     908:	10 92 2a 0b 	sts	0x0B2A, r1
     90c:	10 92 2b 0b 	sts	0x0B2B, r1
     910:	10 92 2c 0b 	sts	0x0B2C, r1
    ad_add_value[bD2].ml=0;
     914:	10 92 2d 0b 	sts	0x0B2D, r1
     918:	10 92 2e 0b 	sts	0x0B2E, r1
     91c:	10 92 2f 0b 	sts	0x0B2F, r1
     920:	10 92 30 0b 	sts	0x0B30, r1
    ad_add_value[bD3].ml=0;
     924:	10 92 15 0b 	sts	0x0B15, r1
     928:	10 92 16 0b 	sts	0x0B16, r1
     92c:	10 92 17 0b 	sts	0x0B17, r1
     930:	10 92 18 0b 	sts	0x0B18, r1
    ad_add_value[bL].ml=0;
     934:	10 92 11 0b 	sts	0x0B11, r1
     938:	10 92 12 0b 	sts	0x0B12, r1
     93c:	10 92 13 0b 	sts	0x0B13, r1
     940:	10 92 14 0b 	sts	0x0B14, r1
        
	//
	uart_rx_counter=0;
     944:	10 92 b9 0a 	sts	0x0AB9, r1
    uart_frame_head_ok=0;
     948:	10 92 e7 0a 	sts	0x0AE7, r1
    uart_frame_ok=0;
     94c:	10 92 57 0a 	sts	0x0A57, r1
	//
    key_value=0xff;
     950:	8f ef       	ldi	r24, 0xFF	; 255
     952:	80 93 c2 0a 	sts	0x0AC2, r24
    m_cgq_cmd=XUYAOSHUJU;
     956:	83 e3       	ldi	r24, 0x33	; 51
     958:	80 93 48 0b 	sts	0x0B48, r24
    m_material_counter=0;
     95c:	10 92 52 0b 	sts	0x0B52, r1
    //
	part_stop_bmb = 0;
     960:	10 92 e8 0a 	sts	0x0AE8, r1
	bmbbj = 0;
     964:	46 98       	cbi	0x08, 6	; 8
    bit_lock=0;
     966:	10 92 08 0b 	sts	0x0B08, r1
	bit_roll_in=0;
     96a:	10 92 b7 0a 	sts	0x0AB7, r1
	//
	mb_invalid_delay = 1;
     96e:	81 e0       	ldi	r24, 0x01	; 1
     970:	80 93 10 0b 	sts	0x0B10, r24
	mb_is_invalid = 0;
     974:	10 92 51 0b 	sts	0x0B51, r1
	//
	hard_uart_rx_addr=0;
     978:	10 92 4b 0a 	sts	0x0A4B, r1
	hard_uart_load_addr=0;
     97c:	10 92 c4 09 	sts	0x09C4, r1
	hard_uart_byte_count=0;
     980:	10 92 c5 09 	sts	0x09C5, r1
	//
	modbus_init();
     984:	0e 94 9e 1d 	call	0x3b3c	; 0x3b3c <modbus_init>
	TRACE_STRING("modbus init ok\r\n\0");
     988:	60 e1       	ldi	r22, 0x10	; 16
     98a:	8b e8       	ldi	r24, 0x8B	; 139
     98c:	91 e0       	ldi	r25, 0x01	; 1
     98e:	0e 94 20 2b 	call	0x5640	; 0x5640 <send_uart1_to_computer>
	//
	init_soft_timer();
     992:	0e 94 b8 2a 	call	0x5570	; 0x5570 <init_soft_timer>
	TRACE_STRING("soft_timer init ok\r\n\0");
     996:	64 e1       	ldi	r22, 0x14	; 20
     998:	8d e9       	ldi	r24, 0x9D	; 157
     99a:	91 e0       	ldi	r25, 0x01	; 1
     99c:	0e 94 20 2b 	call	0x5640	; 0x5640 <send_uart1_to_computer>
	//
	bmmstop = 0;
     9a0:	41 98       	cbi	0x08, 1	; 8
     9a2:	08 95       	ret

000009a4 <display_current_value>:
		}
	}
	#else //__D2_USED__
	{
		//没有启用备用的电流采样
		bit_current_1st = 0;
     9a4:	10 92 b6 0a 	sts	0x0AB6, r1
		bit_current_2nd = 0;
     9a8:	10 92 ba 0a 	sts	0x0ABA, r1
		m_cur_cal = m_cur_d1;
     9ac:	20 91 f0 0a 	lds	r18, 0x0AF0
     9b0:	30 91 f1 0a 	lds	r19, 0x0AF1
     9b4:	30 93 63 0b 	sts	0x0B63, r19
     9b8:	20 93 62 0b 	sts	0x0B62, r18
		m_cur_round = cur_d1_round;
     9bc:	80 91 e5 0a 	lds	r24, 0x0AE5
     9c0:	80 93 e0 0a 	sts	0x0AE0, r24
		//////////////////////电流过载判断
		//注意,这里的m_cur_cal有乘10的效果
		if(m_cur_cal > mmotor_cur1_cmp)
     9c4:	80 91 46 0b 	lds	r24, 0x0B46
     9c8:	90 91 47 0b 	lds	r25, 0x0B47
     9cc:	40 91 19 0d 	lds	r20, 0x0D19
     9d0:	82 17       	cp	r24, r18
     9d2:	93 07       	cpc	r25, r19
     9d4:	38 f4       	brcc	.+14     	; 0x9e4 <display_current_value+0x40>
		{
			bit_over_i = 1;//过载等亮
     9d6:	81 e0       	ldi	r24, 0x01	; 1
     9d8:	80 93 a9 0a 	sts	0x0AA9, r24
			modbus_status.status.m_i_over = STATUS_ON;
     9dc:	40 64       	ori	r20, 0x40	; 64
     9de:	40 93 19 0d 	sts	0x0D19, r20
     9e2:	10 c0       	rjmp	.+32     	; 0xa04 <display_current_value+0x60>
			bcomerr = 1;//主板错误灯亮
		}
		else
		{
			bit_over_i = 0;//电流过载灯灭
     9e4:	10 92 a9 0a 	sts	0x0AA9, r1
			modbus_status.status.m_i_over = STATUS_OFF;
     9e8:	84 2f       	mov	r24, r20
     9ea:	8f 7b       	andi	r24, 0xBF	; 191
     9ec:	80 93 19 0d 	sts	0x0D19, r24
			if((0==bit_comm_error) && (0==bit_qr_ql_error))
     9f0:	80 91 56 0a 	lds	r24, 0x0A56
     9f4:	81 11       	cpse	r24, r1
     9f6:	06 c0       	rjmp	.+12     	; 0xa04 <display_current_value+0x60>
     9f8:	80 91 4e 0b 	lds	r24, 0x0B4E
     9fc:	81 11       	cpse	r24, r1
     9fe:	02 c0       	rjmp	.+4      	; 0xa04 <display_current_value+0x60>
			{
				bcomerr = 0;
     a00:	45 98       	cbi	0x08, 5	; 8
     a02:	01 c0       	rjmp	.+2      	; 0xa06 <display_current_value+0x62>
			}
			else
			{
				bcomerr = 1;
     a04:	45 9a       	sbi	0x08, 5	; 8
		}
		//
		///////////////////////
		//修正主电机电流显示值
		//因为主电机电流值不可能超过400,而修正值最大是130,所以直接乘即可
		m_cur_cal*=m_rPara.para.current1_modify;
     a06:	40 91 6f 0a 	lds	r20, 0x0A6F
     a0a:	42 9f       	mul	r20, r18
     a0c:	c0 01       	movw	r24, r0
     a0e:	43 9f       	mul	r20, r19
     a10:	90 0d       	add	r25, r0
     a12:	11 24       	eor	r1, r1
		m_cur_cal/=100;
     a14:	64 e6       	ldi	r22, 0x64	; 100
     a16:	70 e0       	ldi	r23, 0x00	; 0
     a18:	0e 94 22 37 	call	0x6e44	; 0x6e44 <__udivmodhi4>
     a1c:	70 93 63 0b 	sts	0x0B63, r23
     a20:	60 93 62 0b 	sts	0x0B62, r22
     a24:	08 95       	ret

00000a26 <low_speed_task>:
////////////////////////////////////////////////////////////
void low_speed_task(void)
{	
	//1s
	//两个电流显示交替时间
	display_current_value();
     a26:	0e 94 d2 04 	call	0x9a4	; 0x9a4 <display_current_value>
	//
	if(bit_mm_control)//电流过载停机需要连锁控制
     a2a:	80 91 c1 0a 	lds	r24, 0x0AC1
     a2e:	88 23       	and	r24, r24
     a30:	81 f0       	breq	.+32     	; 0xa52 <low_speed_task+0x2c>
	{	
	//主电机电流溢出停机检测
	if(cur_overflow_delay > 20)//秒钟 //5
     a32:	80 91 31 0b 	lds	r24, 0x0B31
     a36:	85 31       	cpi	r24, 0x15	; 21
     a38:	60 f0       	brcs	.+24     	; 0xa52 <low_speed_task+0x2c>
	{
		cur_overflow_delay=0;
     a3a:	10 92 31 0b 	sts	0x0B31, r1
		//
		all_stop();//主电机电流溢出情况下
     a3e:	0e 94 4d 0b 	call	0x169a	; 0x169a <all_stop>
		//bit_remote = 0;//退出远控模式
		modbus_status.status.m_yk = STATUS_OFF;
     a42:	80 91 19 0d 	lds	r24, 0x0D19
     a46:	8e 7f       	andi	r24, 0xFE	; 254
     a48:	80 93 19 0d 	sts	0x0D19, r24
		//
		m_rPara.para.all_stop_id = 2;
     a4c:	82 e0       	ldi	r24, 0x02	; 2
     a4e:	80 93 6c 0a 	sts	0x0A6C, r24
     a52:	08 95       	ret

00000a54 <OnTimer>:
}
////////////////////////////////////////////////////////////////
void OnTimer(unsigned short id)
{
	//软件定时器处理程序
	switch(id)
     a54:	8b 58       	subi	r24, 0x8B	; 139
     a56:	93 41       	sbci	r25, 0x13	; 19
     a58:	8c 30       	cpi	r24, 0x0C	; 12
     a5a:	91 05       	cpc	r25, r1
     a5c:	08 f0       	brcs	.+2      	; 0xa60 <OnTimer+0xc>
     a5e:	89 c0       	rjmp	.+274    	; 0xb72 <OnTimer+0x11e>
     a60:	82 5c       	subi	r24, 0xC2	; 194
     a62:	9f 4f       	sbci	r25, 0xFF	; 255
     a64:	fc 01       	movw	r30, r24
     a66:	0c 94 6c 37 	jmp	0x6ed8	; 0x6ed8 <__tablejump2__>
		}
		break;
		case MT_READ_PARA:
		{
			//定时读取参数，刷新简单错误
			read_para(1);//不允许初始化上电参数
     a6a:	81 e0       	ldi	r24, 0x01	; 1
     a6c:	0c 94 9f 12 	jmp	0x253e	; 0x253e <read_para>
		}
		break;
		case MT_BASETASK:
		{
			base_task();//10ms任务集中处理
     a70:	0c 94 7c 03 	jmp	0x6f8	; 0x6f8 <base_task>
		}
		break;
		case MT_MB_COUNTER:
		{
			mb_60s_sample_buf[mb_60s_sample_addr] = (mb_counter_tmp+1)/2;//电平变化
     a74:	80 91 ff 0b 	lds	r24, 0x0BFF
     a78:	20 91 5d 0b 	lds	r18, 0x0B5D
     a7c:	30 91 5e 0b 	lds	r19, 0x0B5E
     a80:	2f 5f       	subi	r18, 0xFF	; 255
     a82:	3f 4f       	sbci	r19, 0xFF	; 255
     a84:	36 95       	lsr	r19
     a86:	27 95       	ror	r18
     a88:	e8 2f       	mov	r30, r24
     a8a:	f0 e0       	ldi	r31, 0x00	; 0
     a8c:	ed 53       	subi	r30, 0x3D	; 61
     a8e:	f4 4f       	sbci	r31, 0xF4	; 244
     a90:	20 83       	st	Z, r18
			mb_3s_sample_buf[mb_3s_sample_addr] = (mb_counter_tmp+1)/2;
     a92:	30 91 bf 0b 	lds	r19, 0x0BBF
     a96:	e3 2f       	mov	r30, r19
     a98:	f0 e0       	ldi	r31, 0x00	; 0
     a9a:	e0 54       	subi	r30, 0x40	; 64
     a9c:	f4 4f       	sbci	r31, 0xF4	; 244
     a9e:	20 83       	st	Z, r18
			mb_counter_tmp = 0;
     aa0:	10 92 5e 0b 	sts	0x0B5E, r1
     aa4:	10 92 5d 0b 	sts	0x0B5D, r1
			//
			mb_60s_sample_addr++;
     aa8:	8f 5f       	subi	r24, 0xFF	; 255
			mb_60s_sample_addr %= MB_60S_SAMPLE_SIZE;
     aaa:	6c e3       	ldi	r22, 0x3C	; 60
     aac:	0e 94 16 37 	call	0x6e2c	; 0x6e2c <__udivmodqi4>
     ab0:	90 93 ff 0b 	sts	0x0BFF, r25
			mb_3s_sample_addr++;
     ab4:	81 e0       	ldi	r24, 0x01	; 1
     ab6:	83 0f       	add	r24, r19
			mb_3s_sample_addr %= MB_3S_SAMPLE_SIZE;
     ab8:	63 e0       	ldi	r22, 0x03	; 3
     aba:	0e 94 16 37 	call	0x6e2c	; 0x6e2c <__udivmodqi4>
     abe:	90 93 bf 0b 	sts	0x0BBF, r25
			//
			//更新一分钟MB计数值
			mb_counter_60s = get_mb_counter_60s();
     ac2:	0e 94 7f 17 	call	0x2efe	; 0x2efe <get_mb_counter_60s>
     ac6:	90 93 42 0b 	sts	0x0B42, r25
     aca:	80 93 41 0b 	sts	0x0B41, r24
			mb_counter_3s = get_mb_counter_3s();
     ace:	0e 94 8b 17 	call	0x2f16	; 0x2f16 <get_mb_counter_3s>
     ad2:	90 e0       	ldi	r25, 0x00	; 0
     ad4:	90 93 c7 0a 	sts	0x0AC7, r25
     ad8:	80 93 c6 0a 	sts	0x0AC6, r24
		}
		break;
     adc:	08 95       	ret
		case MT_DW_COUNTER:
		{
			dw_60s_sample_buf[dw_60s_sample_addr] = (dw_counter_tmp+1)/2;
     ade:	80 91 81 0b 	lds	r24, 0x0B81
     ae2:	20 91 f5 0a 	lds	r18, 0x0AF5
     ae6:	30 91 f6 0a 	lds	r19, 0x0AF6
     aea:	2f 5f       	subi	r18, 0xFF	; 255
     aec:	3f 4f       	sbci	r19, 0xFF	; 255
     aee:	36 95       	lsr	r19
     af0:	27 95       	ror	r18
     af2:	e8 2f       	mov	r30, r24
     af4:	f0 e0       	ldi	r31, 0x00	; 0
     af6:	ee 57       	subi	r30, 0x7E	; 126
     af8:	f4 4f       	sbci	r31, 0xF4	; 244
     afa:	20 83       	st	Z, r18
			dw_3s_sample_buf[dw_3s_sample_addr] = (dw_counter_tmp+1)/2;
     afc:	30 91 be 0b 	lds	r19, 0x0BBE
     b00:	e3 2f       	mov	r30, r19
     b02:	f0 e0       	ldi	r31, 0x00	; 0
     b04:	e2 58       	subi	r30, 0x82	; 130
     b06:	f4 4f       	sbci	r31, 0xF4	; 244
     b08:	20 83       	st	Z, r18
			dw_counter_tmp = 0;
     b0a:	10 92 f6 0a 	sts	0x0AF6, r1
     b0e:	10 92 f5 0a 	sts	0x0AF5, r1
			//
			dw_60s_sample_addr++;
     b12:	8f 5f       	subi	r24, 0xFF	; 255
			dw_60s_sample_addr %= DW_60S_SAMPLE_SIZE;
     b14:	6c e3       	ldi	r22, 0x3C	; 60
     b16:	0e 94 16 37 	call	0x6e2c	; 0x6e2c <__udivmodqi4>
     b1a:	90 93 81 0b 	sts	0x0B81, r25
			dw_3s_sample_addr++;
     b1e:	81 e0       	ldi	r24, 0x01	; 1
     b20:	83 0f       	add	r24, r19
			dw_3s_sample_addr %= DW_3S_SAMPLE_SIZE;
     b22:	63 e0       	ldi	r22, 0x03	; 3
     b24:	0e 94 16 37 	call	0x6e2c	; 0x6e2c <__udivmodqi4>
     b28:	90 93 be 0b 	sts	0x0BBE, r25
			//
			//更新一分钟MB计数值
			dw_counter_60s = get_dw_counter_60s();
     b2c:	0e 94 94 17 	call	0x2f28	; 0x2f28 <get_dw_counter_60s>
     b30:	90 93 05 0b 	sts	0x0B05, r25
     b34:	80 93 04 0b 	sts	0x0B04, r24
			dw_counter_3s = get_dw_counter_3s();
     b38:	0e 94 a0 17 	call	0x2f40	; 0x2f40 <get_dw_counter_3s>
     b3c:	90 e0       	ldi	r25, 0x00	; 0
     b3e:	90 93 ea 0a 	sts	0x0AEA, r25
     b42:	80 93 e9 0a 	sts	0x0AE9, r24
		}
		break;
     b46:	08 95       	ret
		case MT_START_QR_QL_CHECK:
		{
			SetTimer(MT_CHECK_QR_QL,200,-1);
     b48:	2f ef       	ldi	r18, 0xFF	; 255
     b4a:	48 ec       	ldi	r20, 0xC8	; 200
     b4c:	50 e0       	ldi	r21, 0x00	; 0
     b4e:	60 e0       	ldi	r22, 0x00	; 0
     b50:	70 e0       	ldi	r23, 0x00	; 0
     b52:	80 e9       	ldi	r24, 0x90	; 144
     b54:	93 e1       	ldi	r25, 0x13	; 19
     b56:	0c 94 3a 29 	jmp	0x5274	; 0x5274 <SetTimer>
		}
		break;
		case MT_CHECK_QR_QL:
		{
			qr_ql_signal_handling();
     b5a:	0c 94 a9 17 	jmp	0x2f52	; 0x2f52 <qr_ql_signal_handling>
		}
		break;
		case MT_LOW_SPEED_TASK:
		{
			low_speed_task();
     b5e:	0c 94 13 05 	jmp	0xa26	; 0xa26 <low_speed_task>
	//5ms
	//
	//MODBUS UART
	#if USED_MODBUS_UART == TRUE
	{
		modbus_task();
     b62:	0c 94 88 20 	jmp	0x4110	; 0x4110 <modbus_task>
	//尽量避免同时应答。
	//
	//w5500网络
	#if USED_W5500 == TRUE
	{
		w5500_task();
     b66:	0c 94 11 37 	jmp	0x6e22	; 0x6e22 <w5500_task>
		}
		break;
		case MT_CLEAN_MODBUS_RX_FLAG:
		{
			extern void modbus_clean_rx_flag(void);
			modbus_clean_rx_flag();
     b6a:	0c 94 45 21 	jmp	0x428a	; 0x428a <modbus_clean_rx_flag>
		}
		break;
		case MT_AUTO_RUN_DELAY:
		{
			//延时启动自动运行
			key_auto_run();
     b6e:	0c 94 50 15 	jmp	0x2aa0	; 0x2aa0 <key_auto_run>
     b72:	08 95       	ret

00000b74 <ad_value_handling>:
//unsigned int	ad_counter = 0;

static unsigned long AD_time_mogun_delay=0;

void ad_value_handling(void)
{
     b74:	cf 93       	push	r28
    //unsigned char yuzhi =m_rPara.para.set_yuzhi;



	//
	m_temp.mc[0] = ADCL;//累加ad值
     b76:	80 91 78 00 	lds	r24, 0x0078
     b7a:	28 2f       	mov	r18, r24
	m_temp.mc[1] = ADCH;
     b7c:	80 91 79 00 	lds	r24, 0x0079
     b80:	38 2f       	mov	r19, r24
	m_temp.ms[0] &= 0x03ff;
     b82:	b9 01       	movw	r22, r18
     b84:	73 70       	andi	r23, 0x03	; 3
		}//end switch
		ADMUX=ad_channel;
		}
#else

ad_add_value[0].ml += m_temp.ms[0];
     b86:	80 91 11 0b 	lds	r24, 0x0B11
     b8a:	90 91 12 0b 	lds	r25, 0x0B12
     b8e:	a0 91 13 0b 	lds	r26, 0x0B13
     b92:	b0 91 14 0b 	lds	r27, 0x0B14
     b96:	86 0f       	add	r24, r22
     b98:	97 1f       	adc	r25, r23
     b9a:	a1 1d       	adc	r26, r1
     b9c:	b1 1d       	adc	r27, r1
     b9e:	80 93 11 0b 	sts	0x0B11, r24
     ba2:	90 93 12 0b 	sts	0x0B12, r25
     ba6:	a0 93 13 0b 	sts	0x0B13, r26
     baa:	b0 93 14 0b 	sts	0x0B14, r27
//
//采样个数计数
ad_counter[0]++;
     bae:	60 91 cc 0a 	lds	r22, 0x0ACC
     bb2:	70 91 cd 0a 	lds	r23, 0x0ACD
     bb6:	6f 5f       	subi	r22, 0xFF	; 255
     bb8:	7f 4f       	sbci	r23, 0xFF	; 255
//采样1024个值,耗时1024毫秒,也就是1024毫秒得到一个有效的采样值
if(ad_counter[0] >= 1024)//约一秒得到一个数据
     bba:	61 15       	cp	r22, r1
     bbc:	e4 e0       	ldi	r30, 0x04	; 4
     bbe:	7e 07       	cpc	r23, r30
     bc0:	28 f4       	brcc	.+10     	; 0xbcc <ad_value_handling+0x58>
#else

ad_add_value[0].ml += m_temp.ms[0];
//
//采样个数计数
ad_counter[0]++;
     bc2:	70 93 cd 0a 	sts	0x0ACD, r23
     bc6:	60 93 cc 0a 	sts	0x0ACC, r22
     bca:	c5 c0       	rjmp	.+394    	; 0xd56 <ad_value_handling+0x1e2>
//采样1024个值,耗时1024毫秒,也就是1024毫秒得到一个有效的采样值
if(ad_counter[0] >= 1024)//约一秒得到一个数据
{
	ad_counter[0] = 0;
     bcc:	10 92 cd 0a 	sts	0x0ACD, r1
     bd0:	10 92 cc 0a 	sts	0x0ACC, r1
	ad_add_value[0].ml >>= 4;
     bd4:	e4 e0       	ldi	r30, 0x04	; 4
     bd6:	b6 95       	lsr	r27
     bd8:	a7 95       	ror	r26
     bda:	97 95       	ror	r25
     bdc:	87 95       	ror	r24
     bde:	ea 95       	dec	r30
     be0:	d1 f7       	brne	.-12     	; 0xbd6 <ad_value_handling+0x62>
	m_temp.ms[0] = ad_add_value[0].ms[0];//得到采样值
     be2:	9c 01       	movw	r18, r24
	m_temp.ms[1] = 0;
     be4:	40 e0       	ldi	r20, 0x00	; 0
     be6:	50 e0       	ldi	r21, 0x00	; 0
	ad_add_value[0].ml = 0;
     be8:	10 92 11 0b 	sts	0x0B11, r1
     bec:	10 92 12 0b 	sts	0x0B12, r1
     bf0:	10 92 13 0b 	sts	0x0B13, r1
     bf4:	10 92 14 0b 	sts	0x0B14, r1
	//
	ad_channel = ADMUX&0xf0;
     bf8:	c0 91 7c 00 	lds	r28, 0x007C
     bfc:	c0 7f       	andi	r28, 0xF0	; 240
	ad_temp = ADMUX&0x07;
     bfe:	60 91 7c 00 	lds	r22, 0x007C
     c02:	67 70       	andi	r22, 0x07	; 7
	switch(ad_temp)
     c04:	09 f4       	brne	.+2      	; 0xc08 <ad_value_handling+0x94>
     c06:	97 c0       	rjmp	.+302    	; 0xd36 <ad_value_handling+0x1c2>
     c08:	66 30       	cpi	r22, 0x06	; 6
     c0a:	09 f0       	breq	.+2      	; 0xc0e <ad_value_handling+0x9a>
     c0c:	a1 c0       	rjmp	.+322    	; 0xd50 <ad_value_handling+0x1dc>
     c0e:	e0 91 66 0a 	lds	r30, 0x0A66
			{
				ad_channel |= bL;
			}
			#endif
			//
			if(m_temp.ms[0] > 0x4175)// (0x4175//16757//1.3v)  (0x325a//12890//1v)
     c12:	86 37       	cpi	r24, 0x76	; 118
     c14:	61 e4       	ldi	r22, 0x41	; 65
     c16:	96 07       	cpc	r25, r22
     c18:	10 f1       	brcs	.+68     	; 0xc5e <ad_value_handling+0xea>
			{
				m_temp.ms[0] -= 0x325a;//0-4v
     c1a:	2a 55       	subi	r18, 0x5A	; 90
     c1c:	32 43       	sbci	r19, 0x32	; 50
				m_temp.ml *= m_rPara.para.cur1_full;
     c1e:	a3 e3       	ldi	r26, 0x33	; 51
     c20:	b0 e0       	ldi	r27, 0x00	; 0
     c22:	0e 94 81 37 	call	0x6f02	; 0x6f02 <__muluhisi3>
     c26:	9b 01       	movw	r18, r22
     c28:	ac 01       	movw	r20, r24
				m_temp.ml *= 51;
     c2a:	ae 2f       	mov	r26, r30
     c2c:	b0 e0       	ldi	r27, 0x00	; 0
     c2e:	0e 94 81 37 	call	0x6f02	; 0x6f02 <__muluhisi3>
     c32:	9b 01       	movw	r18, r22
     c34:	ac 01       	movw	r20, r24
				m_temp.ml >>= 2;
     c36:	72 e0       	ldi	r23, 0x02	; 2
     c38:	56 95       	lsr	r21
     c3a:	47 95       	ror	r20
     c3c:	37 95       	ror	r19
     c3e:	27 95       	ror	r18
     c40:	7a 95       	dec	r23
     c42:	d1 f7       	brne	.-12     	; 0xc38 <ad_value_handling+0xc4>
				if(m_temp.ms[0] > 0x7fff)//25780//2v
     c44:	37 ff       	sbrs	r19, 7
     c46:	04 c0       	rjmp	.+8      	; 0xc50 <ad_value_handling+0xdc>
				{
					cur_d1_round=5;
     c48:	85 e0       	ldi	r24, 0x05	; 5
     c4a:	80 93 e5 0a 	sts	0x0AE5, r24
     c4e:	02 c0       	rjmp	.+4      	; 0xc54 <ad_value_handling+0xe0>
				}
				else
				{
					cur_d1_round=0;
     c50:	10 92 e5 0a 	sts	0x0AE5, r1
				}
				m_cur_d1=m_temp.ms[1];
     c54:	50 93 f1 0a 	sts	0x0AF1, r21
     c58:	40 93 f0 0a 	sts	0x0AF0, r20
     c5c:	7a c0       	rjmp	.+244    	; 0xd52 <ad_value_handling+0x1de>
			}
			else
			{
				//m_cur_d1=0;
				if(m_temp.ms[0] >0x325a)
     c5e:	8b 35       	cpi	r24, 0x5B	; 91
     c60:	62 e3       	ldi	r22, 0x32	; 50
     c62:	96 07       	cpc	r25, r22
     c64:	20 f0       	brcs	.+8      	; 0xc6e <ad_value_handling+0xfa>
				{
					m_temp.ms[0] -= 0x325a;//0-4v
     c66:	9c 01       	movw	r18, r24
     c68:	2a 55       	subi	r18, 0x5A	; 90
     c6a:	32 43       	sbci	r19, 0x32	; 50
     c6c:	02 c0       	rjmp	.+4      	; 0xc72 <ad_value_handling+0xfe>
				}
				else
				{
					m_temp.ms[0] =0	;			
     c6e:	20 e0       	ldi	r18, 0x00	; 0
     c70:	30 e0       	ldi	r19, 0x00	; 0
				}

				m_temp.ml *= m_rPara.para.cur1_full;
     c72:	a3 e3       	ldi	r26, 0x33	; 51
     c74:	b0 e0       	ldi	r27, 0x00	; 0
     c76:	0e 94 81 37 	call	0x6f02	; 0x6f02 <__muluhisi3>
     c7a:	9b 01       	movw	r18, r22
     c7c:	ac 01       	movw	r20, r24
				m_temp.ml *= 51;
     c7e:	ae 2f       	mov	r26, r30
     c80:	b0 e0       	ldi	r27, 0x00	; 0
     c82:	0e 94 81 37 	call	0x6f02	; 0x6f02 <__muluhisi3>
     c86:	9b 01       	movw	r18, r22
     c88:	ac 01       	movw	r20, r24
				m_temp.ml >>= 2;
     c8a:	62 e0       	ldi	r22, 0x02	; 2
     c8c:	56 95       	lsr	r21
     c8e:	47 95       	ror	r20
     c90:	37 95       	ror	r19
     c92:	27 95       	ror	r18
     c94:	6a 95       	dec	r22
     c96:	d1 f7       	brne	.-12     	; 0xc8c <ad_value_handling+0x118>
								
				m_cur_d1=m_temp.ms[1];
     c98:	50 93 f1 0a 	sts	0x0AF1, r21
     c9c:	40 93 f0 0a 	sts	0x0AF0, r20

				cur_d1_round=0;
     ca0:	10 92 e5 0a 	sts	0x0AE5, r1
				if(((0==m_rPara.para.mm_control) && (1==bit_mmotor)) && ((1==bit_remote) || (1==bit_auto) || (1==bit_manual)))
     ca4:	80 91 65 0a 	lds	r24, 0x0A65
     ca8:	81 11       	cpse	r24, r1
     caa:	34 c0       	rjmp	.+104    	; 0xd14 <ad_value_handling+0x1a0>
     cac:	80 91 43 0b 	lds	r24, 0x0B43
     cb0:	81 30       	cpi	r24, 0x01	; 1
     cb2:	81 f5       	brne	.+96     	; 0xd14 <ad_value_handling+0x1a0>
     cb4:	80 91 40 0b 	lds	r24, 0x0B40
     cb8:	81 30       	cpi	r24, 0x01	; 1
     cba:	41 f0       	breq	.+16     	; 0xccc <ad_value_handling+0x158>
     cbc:	80 91 0d 0b 	lds	r24, 0x0B0D
     cc0:	81 30       	cpi	r24, 0x01	; 1
     cc2:	21 f0       	breq	.+8      	; 0xccc <ad_value_handling+0x158>
     cc4:	80 91 fe 0a 	lds	r24, 0x0AFE
     cc8:	81 30       	cpi	r24, 0x01	; 1
     cca:	21 f5       	brne	.+72     	; 0xd14 <ad_value_handling+0x1a0>
				{
					//在连锁控制模式下
					//bit_remote=0;//退出远控模式
					modbus_status.status.m_yk = STATUS_OFF;
     ccc:	80 91 19 0d 	lds	r24, 0x0D19
     cd0:	8e 7f       	andi	r24, 0xFE	; 254
     cd2:	80 93 19 0d 	sts	0x0D19, r24
					m_rPara.para.all_stop_id = 7;
     cd6:	87 e0       	ldi	r24, 0x07	; 7
     cd8:	80 93 6c 0a 	sts	0x0A6C, r24
					//ZANXIAOFEIQUXIAOQONG
					if (boot_time - AD_time_mogun_delay  > (NO_CURRENT_DELAY_TIME_S*1000))
     cdc:	80 91 58 0b 	lds	r24, 0x0B58
     ce0:	90 91 59 0b 	lds	r25, 0x0B59
     ce4:	a0 91 5a 0b 	lds	r26, 0x0B5A
     ce8:	b0 91 5b 0b 	lds	r27, 0x0B5B
     cec:	40 91 d8 07 	lds	r20, 0x07D8
     cf0:	50 91 d9 07 	lds	r21, 0x07D9
     cf4:	60 91 da 07 	lds	r22, 0x07DA
     cf8:	70 91 db 07 	lds	r23, 0x07DB
     cfc:	84 1b       	sub	r24, r20
     cfe:	95 0b       	sbc	r25, r21
     d00:	a6 0b       	sbc	r26, r22
     d02:	b7 0b       	sbc	r27, r23
     d04:	89 35       	cpi	r24, 0x59	; 89
     d06:	9b 41       	sbci	r25, 0x1B	; 27
     d08:	a1 05       	cpc	r26, r1
     d0a:	b1 05       	cpc	r27, r1
     d0c:	10 f1       	brcs	.+68     	; 0xd52 <ad_value_handling+0x1de>
					{
						all_stop();
     d0e:	0e 94 4d 0b 	call	0x169a	; 0x169a <all_stop>
     d12:	1f c0       	rjmp	.+62     	; 0xd52 <ad_value_handling+0x1de>
					}

				}
				else
				{
					AD_time_mogun_delay = boot_time;
     d14:	80 91 58 0b 	lds	r24, 0x0B58
     d18:	90 91 59 0b 	lds	r25, 0x0B59
     d1c:	a0 91 5a 0b 	lds	r26, 0x0B5A
     d20:	b0 91 5b 0b 	lds	r27, 0x0B5B
     d24:	80 93 d8 07 	sts	0x07D8, r24
     d28:	90 93 d9 07 	sts	0x07D9, r25
     d2c:	a0 93 da 07 	sts	0x07DA, r26
     d30:	b0 93 db 07 	sts	0x07DB, r27
     d34:	0e c0       	rjmp	.+28     	; 0xd52 <ad_value_handling+0x1de>
			break;
		}
		#endif //__D2_USED__
		case bL://料位
		{
			ad_channel|=bD1;
     d36:	c6 60       	ori	r28, 0x06	; 6
			//////////////////////////////////从AD采样料位数据
			if((MATERIAL_PORT_ONLY_AD==m_rPara.para.material_port)	|| (MATERIAL_PORT_RS485_AD==m_rPara.para.material_port))
     d38:	20 91 67 0a 	lds	r18, 0x0A67
     d3c:	2d 7f       	andi	r18, 0xFD	; 253
     d3e:	21 30       	cpi	r18, 0x01	; 1
     d40:	41 f4       	brne	.+16     	; 0xd52 <ad_value_handling+0x1de>
			{
				m_material_value=m_temp.ms[0];
     d42:	90 93 0a 0b 	sts	0x0B0A, r25
     d46:	80 93 09 0b 	sts	0x0B09, r24
				material_2_vel_enable=1;
     d4a:	20 93 bb 0a 	sts	0x0ABB, r18
     d4e:	01 c0       	rjmp	.+2      	; 0xd52 <ad_value_handling+0x1de>
			}
		}
		break;
		default:
		{
			ad_channel |= bD1;
     d50:	c6 60       	ori	r28, 0x06	; 6
		}
		break;
	}//end switch
	ADMUX=ad_channel;
     d52:	c0 93 7c 00 	sts	0x007C, r28
}//end if	

#endif		
		

}
     d56:	cf 91       	pop	r28
     d58:	08 95       	ret

00000d5a <timer0_overflow_handling>:
/////////////////////////////////////////////////////////////////
void timer0_overflow_handling(void)
{
	//1ms中断一次
	//
	ms1_counter++;
     d5a:	80 91 c8 0a 	lds	r24, 0x0AC8
     d5e:	8f 5f       	subi	r24, 0xFF	; 255
     d60:	80 93 c8 0a 	sts	0x0AC8, r24
	if(ms1_counter > 9)
     d64:	8a 30       	cpi	r24, 0x0A	; 10
     d66:	08 f4       	brcc	.+2      	; 0xd6a <timer0_overflow_handling+0x10>
     d68:	84 c0       	rjmp	.+264    	; 0xe72 <timer0_overflow_handling+0x118>
	{
		ms1_counter=0;
     d6a:	10 92 c8 0a 	sts	0x0AC8, r1
		//10ms
		//
		//主电机启动,停止脉冲信号,合轧,离轧脉冲信号
		mmotor_delay++;
     d6e:	80 91 ec 0a 	lds	r24, 0x0AEC
     d72:	8f 5f       	subi	r24, 0xFF	; 255
     d74:	80 93 ec 0a 	sts	0x0AEC, r24
		roll_delay++;
     d78:	80 91 02 0b 	lds	r24, 0x0B02
     d7c:	8f 5f       	subi	r24, 0xFF	; 255
     d7e:	80 93 02 0b 	sts	0x0B02, r24
		key_delay++;
     d82:	80 91 53 0b 	lds	r24, 0x0B53
     d86:	8f 5f       	subi	r24, 0xFF	; 255
     d88:	80 93 53 0b 	sts	0x0B53, r24
		//
		comm_error_delay++;
     d8c:	80 91 f9 0a 	lds	r24, 0x0AF9
     d90:	8f 5f       	subi	r24, 0xFF	; 255
		if(comm_error_delay > 99)
     d92:	84 36       	cpi	r24, 0x64	; 100
     d94:	18 f4       	brcc	.+6      	; 0xd9c <timer0_overflow_handling+0x42>
		//主电机启动,停止脉冲信号,合轧,离轧脉冲信号
		mmotor_delay++;
		roll_delay++;
		key_delay++;
		//
		comm_error_delay++;
     d96:	80 93 f9 0a 	sts	0x0AF9, r24
     d9a:	0b c0       	rjmp	.+22     	; 0xdb2 <timer0_overflow_handling+0x58>
		if(comm_error_delay > 99)
		{
			comm_error_delay=0;
     d9c:	10 92 f9 0a 	sts	0x0AF9, r1
			bcomerr=1;
     da0:	45 9a       	sbi	0x08, 5	; 8
			bit_comm_error=1;
     da2:	81 e0       	ldi	r24, 0x01	; 1
     da4:	80 93 56 0a 	sts	0x0A56, r24
			modbus_status.status.m_comm_error = STATUS_ON;
     da8:	80 91 19 0d 	lds	r24, 0x0D19
     dac:	80 68       	ori	r24, 0x80	; 128
     dae:	80 93 19 0d 	sts	0x0D19, r24
		}
		//
		mb_invalid_delay++;//10ms，判断mb信号是否有效
     db2:	80 91 10 0b 	lds	r24, 0x0B10
     db6:	8f 5f       	subi	r24, 0xFF	; 255
     db8:	80 93 10 0b 	sts	0x0B10, r24
		//
		ms10_counter++;
     dbc:	80 91 ca 0a 	lds	r24, 0x0ACA
     dc0:	8f 5f       	subi	r24, 0xFF	; 255
     dc2:	80 93 ca 0a 	sts	0x0ACA, r24
		if(ms10_counter > 9)
     dc6:	8a 30       	cpi	r24, 0x0A	; 10
     dc8:	08 f4       	brcc	.+2      	; 0xdcc <timer0_overflow_handling+0x72>
     dca:	53 c0       	rjmp	.+166    	; 0xe72 <timer0_overflow_handling+0x118>
		{
			ms10_counter=0;
     dcc:	10 92 ca 0a 	sts	0x0ACA, r1
			//
			//100ms
			m_cgq_ack_delay++;//传感器应答后显示时间(100ms)
     dd0:	80 91 69 0b 	lds	r24, 0x0B69
     dd4:	8f 5f       	subi	r24, 0xFF	; 255
     dd6:	80 93 69 0b 	sts	0x0B69, r24
			wait_rollin++;
     dda:	80 91 ee 0a 	lds	r24, 0x0AEE
     dde:	8f 5f       	subi	r24, 0xFF	; 255
     de0:	80 93 ee 0a 	sts	0x0AEE, r24
			key_delay_set_in++;//内部参数设定进入等待
     de4:	80 91 56 0b 	lds	r24, 0x0B56
     de8:	8f 5f       	subi	r24, 0xFF	; 255
     dea:	80 93 56 0b 	sts	0x0B56, r24
			password_delay++;
     dee:	80 91 e1 0a 	lds	r24, 0x0AE1
     df2:	8f 5f       	subi	r24, 0xFF	; 255
     df4:	80 93 e1 0a 	sts	0x0AE1, r24
			//
			enable_mb_delay++; //100ms
     df8:	80 91 ab 0a 	lds	r24, 0x0AAB
     dfc:	8f 5f       	subi	r24, 0xFF	; 255
			if(enable_mb_delay > 200)//20s
     dfe:	89 3c       	cpi	r24, 0xC9	; 201
     e00:	08 f0       	brcs	.+2      	; 0xe04 <timer0_overflow_handling+0xaa>
			{
				enable_mb_delay=200;
     e02:	88 ec       	ldi	r24, 0xC8	; 200
     e04:	80 93 ab 0a 	sts	0x0AAB, r24
			}
			//
			ms100_counter++;
     e08:	80 91 64 0b 	lds	r24, 0x0B64
     e0c:	8f 5f       	subi	r24, 0xFF	; 255
     e0e:	80 93 64 0b 	sts	0x0B64, r24
			if(ms100_counter > 9)
     e12:	8a 30       	cpi	r24, 0x0A	; 10
     e14:	70 f1       	brcs	.+92     	; 0xe72 <timer0_overflow_handling+0x118>
			{
				ms100_counter=0;
     e16:	10 92 64 0b 	sts	0x0B64, r1
				//1s
				cur_overflow_delay++;
     e1a:	80 91 31 0b 	lds	r24, 0x0B31
     e1e:	8f 5f       	subi	r24, 0xFF	; 255
     e20:	80 93 31 0b 	sts	0x0B31, r24
				#if LIMITEDTIME_ENABLE == 1
				{
					m_used_1s++;
     e24:	80 91 44 0b 	lds	r24, 0x0B44
     e28:	90 91 45 0b 	lds	r25, 0x0B45
     e2c:	01 96       	adiw	r24, 0x01	; 1
     e2e:	90 93 45 0b 	sts	0x0B45, r25
     e32:	80 93 44 0b 	sts	0x0B44, r24
				}
				#endif
				//
				set_idle_wait++;
     e36:	80 91 de 0a 	lds	r24, 0x0ADE
     e3a:	8f 5f       	subi	r24, 0xFF	; 255
     e3c:	80 93 de 0a 	sts	0x0ADE, r24
				if((1==bit_setmode) || (1==bit_alarm_mode) || (1==bit_monitor_mode))
     e40:	90 91 c5 0a 	lds	r25, 0x0AC5
     e44:	91 30       	cpi	r25, 0x01	; 1
     e46:	41 f0       	breq	.+16     	; 0xe58 <timer0_overflow_handling+0xfe>
     e48:	90 91 df 0a 	lds	r25, 0x0ADF
     e4c:	91 30       	cpi	r25, 0x01	; 1
     e4e:	21 f0       	breq	.+8      	; 0xe58 <timer0_overflow_handling+0xfe>
     e50:	90 91 f2 0a 	lds	r25, 0x0AF2
     e54:	91 30       	cpi	r25, 0x01	; 1
     e56:	69 f4       	brne	.+26     	; 0xe72 <timer0_overflow_handling+0x118>
				{
					if(set_idle_wait > 30)//30s
     e58:	8f 31       	cpi	r24, 0x1F	; 31
     e5a:	58 f0       	brcs	.+22     	; 0xe72 <timer0_overflow_handling+0x118>
					{
						TRACE_STRING("jingruguozuomoshi5");
     e5c:	62 e1       	ldi	r22, 0x12	; 18
     e5e:	8f eb       	ldi	r24, 0xBF	; 191
     e60:	94 e0       	ldi	r25, 0x04	; 4
     e62:	0e 94 20 2b 	call	0x5640	; 0x5640 <send_uart1_to_computer>
						reset_set_status();
     e66:	0e 94 30 15 	call	0x2a60	; 0x2a60 <reset_set_status>
						//
						bit_monitor_mode = 0;
     e6a:	10 92 f2 0a 	sts	0x0AF2, r1
						bit_alarm_mode = 0;
     e6e:	10 92 df 0a 	sts	0x0ADF, r1
     e72:	08 95       	ret

00000e74 <hardware_uart_receive>:
{
	//unsigned char sum;
	//UCHAR2 m_temp;
	//const unsigned char uart_value = val;
	//
	comm_error_delay=0;//通信延时清零
     e74:	10 92 f9 0a 	sts	0x0AF9, r1
	bit_comm_error=0;
     e78:	10 92 56 0a 	sts	0x0A56, r1
	modbus_status.status.m_comm_error = STATUS_OFF;
     e7c:	80 91 19 0d 	lds	r24, 0x0D19
     e80:	8f 77       	andi	r24, 0x7F	; 127
     e82:	80 93 19 0d 	sts	0x0D19, r24
	if((0==bit_over_i) && (0==bit_qr_ql_error))
     e86:	80 91 a9 0a 	lds	r24, 0x0AA9
     e8a:	81 11       	cpse	r24, r1
     e8c:	06 c0       	rjmp	.+12     	; 0xe9a <hardware_uart_receive+0x26>
     e8e:	80 91 4e 0b 	lds	r24, 0x0B4E
     e92:	81 11       	cpse	r24, r1
     e94:	02 c0       	rjmp	.+4      	; 0xe9a <hardware_uart_receive+0x26>
	{
		bcomerr = 0;
     e96:	45 98       	cbi	0x08, 5	; 8
     e98:	08 95       	ret
	}
	else
	{
		bcomerr = 1;
     e9a:	45 9a       	sbi	0x08, 5	; 8
     e9c:	08 95       	ret

00000e9e <main>:

////////////////////////////////////////////////////////////
int main()
{
	int i,j;
	reset_cause = (MCUSR&0x0f);
     e9e:	84 b7       	in	r24, 0x34	; 52
     ea0:	8f 70       	andi	r24, 0x0F	; 15
     ea2:	80 93 c3 09 	sts	0x09C3, r24
	is_wdt_rst = 0; //必须清除，否则可能无法关闭wdt
     ea6:	84 b7       	in	r24, 0x34	; 52
     ea8:	87 7f       	andi	r24, 0xF7	; 247
     eaa:	84 bf       	out	0x34, r24	; 52
	//
    cli();//main
     eac:	f8 94       	cli
	wdt_reset();
     eae:	a8 95       	wdr
	wdt_disable();
     eb0:	88 e1       	ldi	r24, 0x18	; 24
     eb2:	0f b6       	in	r0, 0x3f	; 63
     eb4:	f8 94       	cli
     eb6:	80 93 60 00 	sts	0x0060, r24
     eba:	10 92 60 00 	sts	0x0060, r1
     ebe:	0f be       	out	0x3f, r0	; 63
	//
	if(RST_CAUSE_WDT != reset_cause)
     ec0:	80 91 c3 09 	lds	r24, 0x09C3
     ec4:	88 30       	cpi	r24, 0x08	; 8
     ec6:	49 f0       	breq	.+18     	; 0xeda <main+0x3c>
	#else
		//round up by default
		__ticks_dc = (uint32_t)(ceil(fabs(__tmp)));
	#endif

	__builtin_avr_delay_cycles(__ticks_dc);
     ec8:	2f e7       	ldi	r18, 0x7F	; 127
     eca:	89 ea       	ldi	r24, 0xA9	; 169
     ecc:	93 e0       	ldi	r25, 0x03	; 3
     ece:	21 50       	subi	r18, 0x01	; 1
     ed0:	80 40       	sbci	r24, 0x00	; 0
     ed2:	90 40       	sbci	r25, 0x00	; 0
     ed4:	e1 f7       	brne	.-8      	; 0xece <main+0x30>
     ed6:	00 c0       	rjmp	.+0      	; 0xed8 <main+0x3a>
     ed8:	00 00       	nop
	{
		delay_ms(300);
	}
	//
	TRACE_STRING("init");
     eda:	64 e0       	ldi	r22, 0x04	; 4
     edc:	82 ed       	ldi	r24, 0xD2	; 210
     ede:	94 e0       	ldi	r25, 0x04	; 4
     ee0:	0e 94 20 2b 	call	0x5640	; 0x5640 <send_uart1_to_computer>
    read_para(0);//在初始化过程中有些需要用到部分参数
     ee4:	80 e0       	ldi	r24, 0x00	; 0
     ee6:	0e 94 9f 12 	call	0x253e	; 0x253e <read_para>
    hardward_init();
     eea:	0e 94 cd 03 	call	0x79a	; 0x79a <hardward_init>
    softward_init();
     eee:	0e 94 70 04 	call	0x8e0	; 0x8e0 <softward_init>
    TRACE_STRING("init2");
     ef2:	65 e0       	ldi	r22, 0x05	; 5
     ef4:	87 ed       	ldi	r24, 0xD7	; 215
     ef6:	94 e0       	ldi	r25, 0x04	; 4
     ef8:	0e 94 20 2b 	call	0x5640	; 0x5640 <send_uart1_to_computer>
    read_para(0);//初始化完后，可能参数被覆盖，重新读取
     efc:	80 e0       	ldi	r24, 0x00	; 0
     efe:	0e 94 9f 12 	call	0x253e	; 0x253e <read_para>
    sei();//启动全局中断
     f02:	78 94       	sei
    //
    #if USED_W5500 == TRUE
    {
	    //初始化网络芯片，指定延时时间(ms)		
		w5500_read_para();
     f04:	0e 94 61 33 	call	0x66c2	; 0x66c2 <w5500_read_para>
	    if(TRUE == init_w5500(10)) //100
     f08:	6a e0       	ldi	r22, 0x0A	; 10
     f0a:	70 e0       	ldi	r23, 0x00	; 0
     f0c:	80 e0       	ldi	r24, 0x00	; 0
     f0e:	90 e0       	ldi	r25, 0x00	; 0
     f10:	0e 94 fb 31 	call	0x63f6	; 0x63f6 <init_w5500>
     f14:	81 30       	cpi	r24, 0x01	; 1
     f16:	21 f4       	brne	.+8      	; 0xf20 <main+0x82>
	    {
		    TRACE_STRING("w5500 set ok\r\n\0");
     f18:	6e e0       	ldi	r22, 0x0E	; 14
     f1a:	83 eb       	ldi	r24, 0xB3	; 179
     f1c:	91 e0       	ldi	r25, 0x01	; 1
     f1e:	03 c0       	rjmp	.+6      	; 0xf26 <main+0x88>
	    }
	    else
	    {
		    TRACE_STRING("w5500 set fail\r\n\0");
     f20:	60 e1       	ldi	r22, 0x10	; 16
     f22:	83 ec       	ldi	r24, 0xC3	; 195
     f24:	91 e0       	ldi	r25, 0x01	; 1
     f26:	0e 94 20 2b 	call	0x5640	; 0x5640 <send_uart1_to_computer>
    #endif
    //
	//if(MB_PULSE == m_rPara.para.mb_level_pulse)
	{
		//检测MB脉冲
		SetTimer(MT_MB_COUNTER,MB_DETECTION_INTERVAL*1000,-1);
     f2a:	2f ef       	ldi	r18, 0xFF	; 255
     f2c:	48 ee       	ldi	r20, 0xE8	; 232
     f2e:	53 e0       	ldi	r21, 0x03	; 3
     f30:	60 e0       	ldi	r22, 0x00	; 0
     f32:	70 e0       	ldi	r23, 0x00	; 0
     f34:	8d e8       	ldi	r24, 0x8D	; 141
     f36:	93 e1       	ldi	r25, 0x13	; 19
     f38:	0e 94 3a 29 	call	0x5274	; 0x5274 <SetTimer>
	}
	//if(DW_PULSE == m_rPara.para.dw_level_pulse)
	{
		//检测DW脉冲
		SetTimer(MT_DW_COUNTER,DW_DETECTION_INTERVAL*1000,-1);
     f3c:	2f ef       	ldi	r18, 0xFF	; 255
     f3e:	48 ee       	ldi	r20, 0xE8	; 232
     f40:	53 e0       	ldi	r21, 0x03	; 3
     f42:	60 e0       	ldi	r22, 0x00	; 0
     f44:	70 e0       	ldi	r23, 0x00	; 0
     f46:	8e e8       	ldi	r24, 0x8E	; 142
     f48:	93 e1       	ldi	r25, 0x13	; 19
     f4a:	0e 94 3a 29 	call	0x5274	; 0x5274 <SetTimer>
	}
	//
	//如果检测不到bootloader，程序不再往下执行
	check_bootloader();
     f4e:	0e 94 4a 03 	call	0x694	; 0x694 <check_bootloader>
	//
	if(RST_CAUSE_WDT != reset_cause)
     f52:	80 91 c3 09 	lds	r24, 0x09C3
     f56:	88 30       	cpi	r24, 0x08	; 8
     f58:	49 f0       	breq	.+18     	; 0xf6c <main+0xce>
     f5a:	2f ef       	ldi	r18, 0xFF	; 255
     f5c:	80 e7       	ldi	r24, 0x70	; 112
     f5e:	92 e0       	ldi	r25, 0x02	; 2
     f60:	21 50       	subi	r18, 0x01	; 1
     f62:	80 40       	sbci	r24, 0x00	; 0
     f64:	90 40       	sbci	r25, 0x00	; 0
     f66:	e1 f7       	brne	.-8      	; 0xf60 <main+0xc2>
     f68:	00 c0       	rjmp	.+0      	; 0xf6a <main+0xcc>
     f6a:	00 00       	nop
	{
		delay_ms(200);
	}	
	//
	//启动看门狗定时器
	wdt_enable(WDTO_2S);
     f6c:	2f e0       	ldi	r18, 0x0F	; 15
     f6e:	88 e1       	ldi	r24, 0x18	; 24
     f70:	90 e0       	ldi	r25, 0x00	; 0
     f72:	0f b6       	in	r0, 0x3f	; 63
     f74:	f8 94       	cli
     f76:	a8 95       	wdr
     f78:	80 93 60 00 	sts	0x0060, r24
     f7c:	0f be       	out	0x3f, r0	; 63
     f7e:	20 93 60 00 	sts	0x0060, r18
	//
	if(RST_CAUSE_BOR == reset_cause)
     f82:	80 91 c3 09 	lds	r24, 0x09C3
     f86:	84 30       	cpi	r24, 0x04	; 4
     f88:	21 f4       	brne	.+8      	; 0xf92 <main+0xf4>
	{
		TRACE_STRING("bor reset completed\r\n\0");
     f8a:	65 e1       	ldi	r22, 0x15	; 21
     f8c:	85 ed       	ldi	r24, 0xD5	; 213
     f8e:	91 e0       	ldi	r25, 0x01	; 1
     f90:	17 c0       	rjmp	.+46     	; 0xfc0 <main+0x122>
	}
	else if(RST_CAUSE_POR == reset_cause)
     f92:	80 91 c3 09 	lds	r24, 0x09C3
     f96:	81 30       	cpi	r24, 0x01	; 1
     f98:	21 f4       	brne	.+8      	; 0xfa2 <main+0x104>
	{
		TRACE_STRING("por reset completed\r\n\0");
     f9a:	65 e1       	ldi	r22, 0x15	; 21
     f9c:	8c ee       	ldi	r24, 0xEC	; 236
     f9e:	91 e0       	ldi	r25, 0x01	; 1
     fa0:	0f c0       	rjmp	.+30     	; 0xfc0 <main+0x122>
	}
	else if(RST_CAUSE_EXT == reset_cause)
     fa2:	80 91 c3 09 	lds	r24, 0x09C3
     fa6:	82 30       	cpi	r24, 0x02	; 2
     fa8:	21 f4       	brne	.+8      	; 0xfb2 <main+0x114>
	{
		TRACE_STRING("extern reset completed\r\n\0");
     faa:	68 e1       	ldi	r22, 0x18	; 24
     fac:	83 e0       	ldi	r24, 0x03	; 3
     fae:	92 e0       	ldi	r25, 0x02	; 2
     fb0:	07 c0       	rjmp	.+14     	; 0xfc0 <main+0x122>
	}
	else if(RST_CAUSE_WDT == reset_cause)
     fb2:	80 91 c3 09 	lds	r24, 0x09C3
     fb6:	88 30       	cpi	r24, 0x08	; 8
     fb8:	29 f4       	brne	.+10     	; 0xfc4 <main+0x126>
	{
		TRACE_STRING("wdt reset completed\r\n\0");
     fba:	65 e1       	ldi	r22, 0x15	; 21
     fbc:	8d e1       	ldi	r24, 0x1D	; 29
     fbe:	92 e0       	ldi	r25, 0x02	; 2
     fc0:	0e 94 20 2b 	call	0x5640	; 0x5640 <send_uart1_to_computer>
	}
	//
	//SetTimer(MT_TRY,1000,-1);//测试用
	SetTimer(MT_BASETASK,10,-1);//10ms执行一次基本任务
     fc4:	2f ef       	ldi	r18, 0xFF	; 255
     fc6:	4a e0       	ldi	r20, 0x0A	; 10
     fc8:	50 e0       	ldi	r21, 0x00	; 0
     fca:	60 e0       	ldi	r22, 0x00	; 0
     fcc:	70 e0       	ldi	r23, 0x00	; 0
     fce:	8b e8       	ldi	r24, 0x8B	; 139
     fd0:	93 e1       	ldi	r25, 0x13	; 19
     fd2:	0e 94 3a 29 	call	0x5274	; 0x5274 <SetTimer>
	SetTimer(MT_POLL_TASK,5,-1);//轮询任务
     fd6:	2f ef       	ldi	r18, 0xFF	; 255
     fd8:	45 e0       	ldi	r20, 0x05	; 5
     fda:	50 e0       	ldi	r21, 0x00	; 0
     fdc:	60 e0       	ldi	r22, 0x00	; 0
     fde:	70 e0       	ldi	r23, 0x00	; 0
     fe0:	83 e9       	ldi	r24, 0x93	; 147
     fe2:	93 e1       	ldi	r25, 0x13	; 19
     fe4:	0e 94 3a 29 	call	0x5274	; 0x5274 <SetTimer>
	SetTimer(MT_NET_TASK,10,-1);//网络任务，收发网络数据
     fe8:	2f ef       	ldi	r18, 0xFF	; 255
     fea:	4a e0       	ldi	r20, 0x0A	; 10
     fec:	50 e0       	ldi	r21, 0x00	; 0
     fee:	60 e0       	ldi	r22, 0x00	; 0
     ff0:	70 e0       	ldi	r23, 0x00	; 0
     ff2:	85 e9       	ldi	r24, 0x95	; 149
     ff4:	93 e1       	ldi	r25, 0x13	; 19
     ff6:	0e 94 3a 29 	call	0x5274	; 0x5274 <SetTimer>
	SetTimer(MT_LOW_SPEED_TASK,1000,-1);
     ffa:	2f ef       	ldi	r18, 0xFF	; 255
     ffc:	48 ee       	ldi	r20, 0xE8	; 232
     ffe:	53 e0       	ldi	r21, 0x03	; 3
    1000:	60 e0       	ldi	r22, 0x00	; 0
    1002:	70 e0       	ldi	r23, 0x00	; 0
    1004:	81 e9       	ldi	r24, 0x91	; 145
    1006:	93 e1       	ldi	r25, 0x13	; 19
    1008:	0e 94 3a 29 	call	0x5274	; 0x5274 <SetTimer>
	SetTimer(MT_READ_PARA, 60*60*1000UL, -1); //60分钟读一次参数
    100c:	2f ef       	ldi	r18, 0xFF	; 255
    100e:	40 e8       	ldi	r20, 0x80	; 128
    1010:	5e ee       	ldi	r21, 0xEE	; 238
    1012:	66 e3       	ldi	r22, 0x36	; 54
    1014:	70 e0       	ldi	r23, 0x00	; 0
    1016:	86 e9       	ldi	r24, 0x96	; 150
    1018:	93 e1       	ldi	r25, 0x13	; 19
    101a:	0e 94 3a 29 	call	0x5274	; 0x5274 <SetTimer>
	//
    for(;;) //主循环
    {
        wdt_reset();//程序主循环中喂狗
    101e:	a8 95       	wdr
        //
        for (i =0; i < 2; i++)
        {
        	if (temp_count_data[i] > (1000 * 10))
    1020:	80 91 de 07 	lds	r24, 0x07DE
    1024:	90 91 df 07 	lds	r25, 0x07DF
    1028:	81 31       	cpi	r24, 0x11	; 17
    102a:	97 42       	sbci	r25, 0x27	; 39
    102c:	58 f0       	brcs	.+22     	; 0x1044 <main+0x1a6>
    102e:	ef e0       	ldi	r30, 0x0F	; 15
    1030:	f8 e0       	ldi	r31, 0x08	; 8
    1032:	df 01       	movw	r26, r30
    1034:	11 97       	sbiw	r26, 0x01	; 1
        	{
				for (j =0; j < 10; j ++)
				{
					temp_data[i*20 +j*2] = 0;
    1036:	1c 92       	st	X, r1
					temp_data[i*20+ j*2+1] = 0;
    1038:	10 82       	st	Z, r1
    103a:	32 96       	adiw	r30, 0x02	; 2
        //
        for (i =0; i < 2; i++)
        {
        	if (temp_count_data[i] > (1000 * 10))
        	{
				for (j =0; j < 10; j ++)
    103c:	88 e0       	ldi	r24, 0x08	; 8
    103e:	e3 32       	cpi	r30, 0x23	; 35
    1040:	f8 07       	cpc	r31, r24
    1042:	b9 f7       	brne	.-18     	; 0x1032 <main+0x194>
    {
        wdt_reset();//程序主循环中喂狗
        //
        for (i =0; i < 2; i++)
        {
        	if (temp_count_data[i] > (1000 * 10))
    1044:	80 91 e0 07 	lds	r24, 0x07E0
    1048:	90 91 e1 07 	lds	r25, 0x07E1
    104c:	81 31       	cpi	r24, 0x11	; 17
    104e:	97 42       	sbci	r25, 0x27	; 39
    1050:	88 f4       	brcc	.+34     	; 0x1074 <main+0x1d6>
			}

		}
			

		brollin = li_he_zha;
    1052:	80 91 69 08 	lds	r24, 0x0869
    1056:	80 fd       	sbrc	r24, 0
    1058:	43 9a       	sbi	0x08, 3	; 8
    105a:	80 ff       	sbrs	r24, 0
    105c:	43 98       	cbi	0x08, 3	; 8
		//依赖串口数据的接收，没有接收到数据也就没有必要处理
        if(1==uart_frame_ok)
    105e:	80 91 57 0a 	lds	r24, 0x0A57
    1062:	81 30       	cpi	r24, 0x01	; 1
    1064:	99 f4       	brne	.+38     	; 0x108c <main+0x1ee>
        {
			//按键处理
            deal_key(key_value);
    1066:	80 91 c2 0a 	lds	r24, 0x0AC2
    106a:	0e 94 7a 24 	call	0x48f4	; 0x48f4 <deal_key>
            uart_frame_ok=0;
    106e:	10 92 57 0a 	sts	0x0A57, r1
    1072:	0c c0       	rjmp	.+24     	; 0x108c <main+0x1ee>
    1074:	e3 e2       	ldi	r30, 0x23	; 35
    1076:	f8 e0       	ldi	r31, 0x08	; 8
    1078:	df 01       	movw	r26, r30
    107a:	11 97       	sbiw	r26, 0x01	; 1
        {
        	if (temp_count_data[i] > (1000 * 10))
        	{
				for (j =0; j < 10; j ++)
				{
					temp_data[i*20 +j*2] = 0;
    107c:	1c 92       	st	X, r1
					temp_data[i*20+ j*2+1] = 0;
    107e:	10 82       	st	Z, r1
    1080:	32 96       	adiw	r30, 0x02	; 2
        //
        for (i =0; i < 2; i++)
        {
        	if (temp_count_data[i] > (1000 * 10))
        	{
				for (j =0; j < 10; j ++)
    1082:	88 e0       	ldi	r24, 0x08	; 8
    1084:	e7 33       	cpi	r30, 0x37	; 55
    1086:	f8 07       	cpc	r31, r24
    1088:	b9 f7       	brne	.-18     	; 0x1078 <main+0x1da>
    108a:	e3 cf       	rjmp	.-58     	; 0x1052 <main+0x1b4>
			//按键处理
            deal_key(key_value);
            uart_frame_ok=0;
        }
        //
        if(1==material_2_vel_enable)
    108c:	80 91 bb 0a 	lds	r24, 0x0ABB
    1090:	81 30       	cpi	r24, 0x01	; 1
    1092:	81 f4       	brne	.+32     	; 0x10b4 <main+0x216>
        {
            material_2_vel_enable=0;
    1094:	10 92 bb 0a 	sts	0x0ABB, r1
            material_2_vel(m_material_value);
    1098:	80 91 09 0b 	lds	r24, 0x0B09
    109c:	90 91 0a 0b 	lds	r25, 0x0B0A
    10a0:	0e 94 b2 0d 	call	0x1b64	; 0x1b64 <material_2_vel>
			//
			//料位
			modbus_status.status.m_lw = m_material_value;
    10a4:	80 91 09 0b 	lds	r24, 0x0B09
    10a8:	90 91 0a 0b 	lds	r25, 0x0B0A
    10ac:	90 93 18 0d 	sts	0x0D18, r25
    10b0:	80 93 17 0d 	sts	0x0D17, r24
        }
		//
		/////////////////////////////////////////
		//
		//硬件串口接收字节处理(128个接收缓冲)
		if(hard_uart_byte_count > 0)
    10b4:	80 91 c5 09 	lds	r24, 0x09C5
    10b8:	88 23       	and	r24, r24
    10ba:	b9 f0       	breq	.+46     	; 0x10ea <main+0x24c>
		{
			hard_uart_byte_count--;
    10bc:	80 91 c5 09 	lds	r24, 0x09C5
    10c0:	81 50       	subi	r24, 0x01	; 1
    10c2:	80 93 c5 09 	sts	0x09C5, r24
			hardware_uart_receive(hard_uart_rx_buf[hard_uart_load_addr]);
    10c6:	e0 91 c4 09 	lds	r30, 0x09C4
    10ca:	f0 e0       	ldi	r31, 0x00	; 0
    10cc:	ea 53       	subi	r30, 0x3A	; 58
    10ce:	f6 4f       	sbci	r31, 0xF6	; 246
    10d0:	80 81       	ld	r24, Z
    10d2:	0e 94 3a 07 	call	0xe74	; 0xe74 <hardware_uart_receive>
			hard_uart_load_addr++;
    10d6:	80 91 c4 09 	lds	r24, 0x09C4
    10da:	8f 5f       	subi	r24, 0xFF	; 255
    10dc:	80 93 c4 09 	sts	0x09C4, r24
			hard_uart_load_addr &= UART0_RX_BUF_MASK;
    10e0:	80 91 c4 09 	lds	r24, 0x09C4
    10e4:	8f 77       	andi	r24, 0x7F	; 127
    10e6:	80 93 c4 09 	sts	0x09C4, r24
		}
		//
		timer_run();
    10ea:	0e 94 cd 29 	call	0x539a	; 0x539a <timer_run>
        //
		{
			//这段程序实际没有多大的意义了，在离轧过程中做了处理，理论上不会再出现
			//喂料电机标志和离轧标志不一致的情况。但代码空间和处理能力足够，保留为
			//异常处理。 bear,20160102
			if(((1==bit_auto)||(1==bit_manual)) && (0==bftstart))
    10ee:	80 91 0d 0b 	lds	r24, 0x0B0D
    10f2:	81 30       	cpi	r24, 0x01	; 1
    10f4:	21 f0       	breq	.+8      	; 0x10fe <main+0x260>
    10f6:	80 91 fe 0a 	lds	r24, 0x0AFE
    10fa:	81 30       	cpi	r24, 0x01	; 1
    10fc:	11 f4       	brne	.+4      	; 0x1102 <__stack+0x3>
    10fe:	42 9b       	sbis	0x08, 2	; 8
			{
				//手动或者自动模式下，如果没有离轧，就执行离轧。
				//bear，20160101
				if(1 == brollin)
    1100:	88 b1       	in	r24, 0x08	; 8
				}
			}			
		}
		//
		//定时器溢出操作
		if(timer0_overflow_count > 0)
    1102:	80 91 55 0a 	lds	r24, 0x0A55
    1106:	88 23       	and	r24, r24
    1108:	09 f4       	brne	.+2      	; 0x110c <__stack+0xd>
    110a:	89 cf       	rjmp	.-238    	; 0x101e <main+0x180>
		{
			//1ms
			timer0_overflow_count--;
    110c:	80 91 55 0a 	lds	r24, 0x0A55
    1110:	81 50       	subi	r24, 0x01	; 1
    1112:	80 93 55 0a 	sts	0x0A55, r24
			//
			timer0_overflow_handling();
    1116:	0e 94 ad 06 	call	0xd5a	; 0xd5a <timer0_overflow_handling>
			ad_value_handling();
    111a:	0e 94 ba 05 	call	0xb74	; 0xb74 <ad_value_handling>
    111e:	7f cf       	rjmp	.-258    	; 0x101e <main+0x180>

00001120 <__vector_18>:
//
//定时器0作为全局定时器,用来管理所有任务的调度
//
//unsigned int temp_count_data[10] = {0};
ISR(TIMER0_OVF_vect/*,ISR_NOBLOCK*/)//加入ISR_NOBLOCK属性,在中断服务程序中允许中断套嵌
{
    1120:	1f 92       	push	r1
    1122:	0f 92       	push	r0
    1124:	0f b6       	in	r0, 0x3f	; 63
    1126:	0f 92       	push	r0
    1128:	11 24       	eor	r1, r1
    112a:	8f 93       	push	r24
    112c:	9f 93       	push	r25
    112e:	af 93       	push	r26
    1130:	bf 93       	push	r27
    1132:	ef 93       	push	r30
    1134:	ff 93       	push	r31
	TCNT0=256-62;//4MHz时钟,64分频,计数62次,定时约1毫秒
    1136:	82 ec       	ldi	r24, 0xC2	; 194
    1138:	86 bd       	out	0x26, r24	; 38
    //1ms
    boot_time++;//软件定时器时间基准，应该放到中断服务函数里，便于主程序等待延时
    113a:	80 91 58 0b 	lds	r24, 0x0B58
    113e:	90 91 59 0b 	lds	r25, 0x0B59
    1142:	a0 91 5a 0b 	lds	r26, 0x0B5A
    1146:	b0 91 5b 0b 	lds	r27, 0x0B5B
    114a:	01 96       	adiw	r24, 0x01	; 1
    114c:	a1 1d       	adc	r26, r1
    114e:	b1 1d       	adc	r27, r1
    1150:	80 93 58 0b 	sts	0x0B58, r24
    1154:	90 93 59 0b 	sts	0x0B59, r25
    1158:	a0 93 5a 0b 	sts	0x0B5A, r26
    115c:	b0 93 5b 0b 	sts	0x0B5B, r27
    zan_count ++;
    1160:	80 91 6b 08 	lds	r24, 0x086B
    1164:	90 91 6c 08 	lds	r25, 0x086C
    1168:	01 96       	adiw	r24, 0x01	; 1
    116a:	90 93 6c 08 	sts	0x086C, r25
    116e:	80 93 6b 08 	sts	0x086B, r24
    //
	timer0_overflow_count++;
    1172:	80 91 55 0a 	lds	r24, 0x0A55
    1176:	8f 5f       	subi	r24, 0xFF	; 255
    1178:	80 93 55 0a 	sts	0x0A55, r24
	temp_count_data[0]++;
    117c:	ee ed       	ldi	r30, 0xDE	; 222
    117e:	f7 e0       	ldi	r31, 0x07	; 7
    1180:	80 81       	ld	r24, Z
    1182:	91 81       	ldd	r25, Z+1	; 0x01
    1184:	01 96       	adiw	r24, 0x01	; 1
    1186:	91 83       	std	Z+1, r25	; 0x01
    1188:	80 83       	st	Z, r24
	temp_count_data[1]++;
    118a:	e0 ee       	ldi	r30, 0xE0	; 224
    118c:	f7 e0       	ldi	r31, 0x07	; 7
    118e:	80 81       	ld	r24, Z
    1190:	91 81       	ldd	r25, Z+1	; 0x01
    1192:	01 96       	adiw	r24, 0x01	; 1
    1194:	91 83       	std	Z+1, r25	; 0x01
    1196:	80 83       	st	Z, r24
	temp_count_data[2]++;
    1198:	e2 ee       	ldi	r30, 0xE2	; 226
    119a:	f7 e0       	ldi	r31, 0x07	; 7
    119c:	80 81       	ld	r24, Z
    119e:	91 81       	ldd	r25, Z+1	; 0x01
    11a0:	01 96       	adiw	r24, 0x01	; 1
    11a2:	91 83       	std	Z+1, r25	; 0x01
    11a4:	80 83       	st	Z, r24
	temp_count_data[3]++;
    11a6:	e4 ee       	ldi	r30, 0xE4	; 228
    11a8:	f7 e0       	ldi	r31, 0x07	; 7
    11aa:	80 81       	ld	r24, Z
    11ac:	91 81       	ldd	r25, Z+1	; 0x01
    11ae:	01 96       	adiw	r24, 0x01	; 1
    11b0:	91 83       	std	Z+1, r25	; 0x01
    11b2:	80 83       	st	Z, r24
	temp_count_data[4]++;
    11b4:	e6 ee       	ldi	r30, 0xE6	; 230
    11b6:	f7 e0       	ldi	r31, 0x07	; 7
    11b8:	80 81       	ld	r24, Z
    11ba:	91 81       	ldd	r25, Z+1	; 0x01
    11bc:	01 96       	adiw	r24, 0x01	; 1
    11be:	91 83       	std	Z+1, r25	; 0x01
    11c0:	80 83       	st	Z, r24
	temp_count_data[5]++;
    11c2:	e8 ee       	ldi	r30, 0xE8	; 232
    11c4:	f7 e0       	ldi	r31, 0x07	; 7
    11c6:	80 81       	ld	r24, Z
    11c8:	91 81       	ldd	r25, Z+1	; 0x01
    11ca:	01 96       	adiw	r24, 0x01	; 1
    11cc:	91 83       	std	Z+1, r25	; 0x01
    11ce:	80 83       	st	Z, r24
	temp_count_data[6]++;
    11d0:	ea ee       	ldi	r30, 0xEA	; 234
    11d2:	f7 e0       	ldi	r31, 0x07	; 7
    11d4:	80 81       	ld	r24, Z
    11d6:	91 81       	ldd	r25, Z+1	; 0x01
    11d8:	01 96       	adiw	r24, 0x01	; 1
    11da:	91 83       	std	Z+1, r25	; 0x01
    11dc:	80 83       	st	Z, r24
	temp_count_data[7]++;
    11de:	ec ee       	ldi	r30, 0xEC	; 236
    11e0:	f7 e0       	ldi	r31, 0x07	; 7
    11e2:	80 81       	ld	r24, Z
    11e4:	91 81       	ldd	r25, Z+1	; 0x01
    11e6:	01 96       	adiw	r24, 0x01	; 1
    11e8:	91 83       	std	Z+1, r25	; 0x01
    11ea:	80 83       	st	Z, r24
	temp_count_data[8]++;
    11ec:	ee ee       	ldi	r30, 0xEE	; 238
    11ee:	f7 e0       	ldi	r31, 0x07	; 7
    11f0:	80 81       	ld	r24, Z
    11f2:	91 81       	ldd	r25, Z+1	; 0x01
    11f4:	01 96       	adiw	r24, 0x01	; 1
    11f6:	91 83       	std	Z+1, r25	; 0x01
    11f8:	80 83       	st	Z, r24
	temp_count_data[9]++;
    11fa:	e0 ef       	ldi	r30, 0xF0	; 240
    11fc:	f7 e0       	ldi	r31, 0x07	; 7
    11fe:	80 81       	ld	r24, Z
    1200:	91 81       	ldd	r25, Z+1	; 0x01
    1202:	01 96       	adiw	r24, 0x01	; 1
    1204:	91 83       	std	Z+1, r25	; 0x01
    1206:	80 83       	st	Z, r24
	temp_count_data[10]++;	
    1208:	e2 ef       	ldi	r30, 0xF2	; 242
    120a:	f7 e0       	ldi	r31, 0x07	; 7
    120c:	80 81       	ld	r24, Z
    120e:	91 81       	ldd	r25, Z+1	; 0x01
    1210:	01 96       	adiw	r24, 0x01	; 1
    1212:	91 83       	std	Z+1, r25	; 0x01
    1214:	80 83       	st	Z, r24
}
    1216:	ff 91       	pop	r31
    1218:	ef 91       	pop	r30
    121a:	bf 91       	pop	r27
    121c:	af 91       	pop	r26
    121e:	9f 91       	pop	r25
    1220:	8f 91       	pop	r24
    1222:	0f 90       	pop	r0
    1224:	0f be       	out	0x3f, r0	; 63
    1226:	0f 90       	pop	r0
    1228:	1f 90       	pop	r1
    122a:	18 95       	reti

0000122c <__vector_22>:
//
//串口发送中断
//
extern  char canshu_peizhi;
ISR(USART0_TX_vect)
{
    122c:	1f 92       	push	r1
    122e:	0f 92       	push	r0
    1230:	0f b6       	in	r0, 0x3f	; 63
    1232:	0f 92       	push	r0
    1234:	11 24       	eor	r1, r1
    1236:	8f 93       	push	r24
    1238:	9f 93       	push	r25
    123a:	ef 93       	push	r30
    123c:	ff 93       	push	r31

    if(uart_tx_addr < 10)
    123e:	e0 91 c3 0a 	lds	r30, 0x0AC3
    1242:	ea 30       	cpi	r30, 0x0A	; 10
    1244:	58 f4       	brcc	.+22     	; 0x125c <__vector_22+0x30>
    {
        UDR0 = uart_tx_buf[uart_tx_addr++];
    1246:	81 e0       	ldi	r24, 0x01	; 1
    1248:	8e 0f       	add	r24, r30
    124a:	80 93 c3 0a 	sts	0x0AC3, r24
    124e:	f0 e0       	ldi	r31, 0x00	; 0
    1250:	e4 55       	subi	r30, 0x54	; 84
    1252:	f5 4f       	sbci	r31, 0xF5	; 245
    1254:	80 81       	ld	r24, Z
    1256:	80 93 c6 00 	sts	0x00C6, r24
    125a:	07 c0       	rjmp	.+14     	; 0x126a <__vector_22+0x3e>
	#else
		//round up by default
		__ticks_dc = (uint32_t)(ceil(fabs(__tmp)));
	#endif

	__builtin_avr_delay_cycles(__ticks_dc);
    125c:	89 ef       	ldi	r24, 0xF9	; 249
    125e:	90 e0       	ldi	r25, 0x00	; 0
    1260:	01 97       	sbiw	r24, 0x01	; 1
    1262:	f1 f7       	brne	.-4      	; 0x1260 <__vector_22+0x34>
    1264:	00 c0       	rjmp	.+0      	; 0x1266 <__vector_22+0x3a>
    1266:	00 00       	nop
    }
    else
    {
	    delay_us(250);
        b485en=0;
    1268:	29 98       	cbi	0x05, 1	; 5
    }
		
}
    126a:	ff 91       	pop	r31
    126c:	ef 91       	pop	r30
    126e:	9f 91       	pop	r25
    1270:	8f 91       	pop	r24
    1272:	0f 90       	pop	r0
    1274:	0f be       	out	0x3f, r0	; 63
    1276:	0f 90       	pop	r0
    1278:	1f 90       	pop	r1
    127a:	18 95       	reti

0000127c <__vector_20>:
/////////////////////////////////////////////////////////////////
//
//串口接收中断
//
ISR(USART0_RX_vect)
{
    127c:	1f 92       	push	r1
    127e:	0f 92       	push	r0
    1280:	0f b6       	in	r0, 0x3f	; 63
    1282:	0f 92       	push	r0
    1284:	11 24       	eor	r1, r1
    1286:	2f 93       	push	r18
    1288:	3f 93       	push	r19
    128a:	4f 93       	push	r20
    128c:	8f 93       	push	r24
    128e:	9f 93       	push	r25
    1290:	ef 93       	push	r30
    1292:	ff 93       	push	r31
	unsigned char i = 0;
	//unsigned char j = 0;
    //unsigned char temp;
	unsigned char sum;
	
    uart_rx_buf[i] = UDR0;
    1294:	80 91 c6 00 	lds	r24, 0x00C6
    1298:	80 93 34 0b 	sts	0x0B34, r24
	hard_uart_rx_addr &= UART0_RX_BUF_MASK;
	hard_uart_byte_count++;
	*/
	//unsigned char data[40];
	unsigned int UART_Timeout = 0;
	unsigned char i = 0;
    129c:	20 e0       	ldi	r18, 0x00	; 0
		
		while((0==(UCSR0A&0x80))&&(UART_Timeout<5000))
		{UART_Timeout++;}
		if(UART_Timeout>=5000)
		{
			uart_rx_buf[i]='E'; // 如果接收超时，退出中断
    129e:	35 e4       	ldi	r19, 0x45	; 69
	//unsigned char j = 0;
    //unsigned char temp;
	unsigned char sum;
	
    uart_rx_buf[i] = UDR0;
    while(uart_rx_buf[i]!='E')
    12a0:	e2 2f       	mov	r30, r18
    12a2:	f0 e0       	ldi	r31, 0x00	; 0
    12a4:	ec 5c       	subi	r30, 0xCC	; 204
    12a6:	f4 4f       	sbci	r31, 0xF4	; 244
    12a8:	80 81       	ld	r24, Z
    12aa:	85 34       	cpi	r24, 0x45	; 69
    12ac:	f1 f0       	breq	.+60     	; 0x12ea <__vector_20+0x6e>
	{
	
		i++;
    12ae:	2f 5f       	subi	r18, 0xFF	; 255
		
		while((0==(UCSR0A&0x80))&&(UART_Timeout<5000))
    12b0:	80 e0       	ldi	r24, 0x00	; 0
    12b2:	90 e0       	ldi	r25, 0x00	; 0
    12b4:	40 91 c0 00 	lds	r20, 0x00C0
    12b8:	47 fd       	sbrc	r20, 7
    12ba:	06 c0       	rjmp	.+12     	; 0x12c8 <__vector_20+0x4c>
    12bc:	88 38       	cpi	r24, 0x88	; 136
    12be:	43 e1       	ldi	r20, 0x13	; 19
    12c0:	94 07       	cpc	r25, r20
    12c2:	29 f0       	breq	.+10     	; 0x12ce <__vector_20+0x52>
		{UART_Timeout++;}
    12c4:	01 96       	adiw	r24, 0x01	; 1
    12c6:	f6 cf       	rjmp	.-20     	; 0x12b4 <__vector_20+0x38>
		if(UART_Timeout>=5000)
    12c8:	88 38       	cpi	r24, 0x88	; 136
    12ca:	93 41       	sbci	r25, 0x13	; 19
    12cc:	31 f4       	brne	.+12     	; 0x12da <__vector_20+0x5e>
		{
			uart_rx_buf[i]='E'; // 如果接收超时，退出中断
    12ce:	e2 2f       	mov	r30, r18
    12d0:	f0 e0       	ldi	r31, 0x00	; 0
    12d2:	ec 5c       	subi	r30, 0xCC	; 204
    12d4:	f4 4f       	sbci	r31, 0xF4	; 244
    12d6:	30 83       	st	Z, r19
    12d8:	e3 cf       	rjmp	.-58     	; 0x12a0 <__vector_20+0x24>
		}
		else
		{
			uart_rx_buf[i] = UDR0;
    12da:	80 91 c6 00 	lds	r24, 0x00C6
    12de:	e2 2f       	mov	r30, r18
    12e0:	f0 e0       	ldi	r31, 0x00	; 0
    12e2:	ec 5c       	subi	r30, 0xCC	; 204
    12e4:	f4 4f       	sbci	r31, 0xF4	; 244
    12e6:	80 83       	st	Z, r24
    12e8:	db cf       	rjmp	.-74     	; 0x12a0 <__vector_20+0x24>
    12ea:	e4 e3       	ldi	r30, 0x34	; 52
    12ec:	fb e0       	ldi	r31, 0x0B	; 11
	//unsigned char j = 0;
    //unsigned char temp;
	unsigned char sum;
	
    uart_rx_buf[i] = UDR0;
    while(uart_rx_buf[i]!='E')
    12ee:	80 e0       	ldi	r24, 0x00	; 0
	//if(i >= 6)
	{
		sum=0;
		for(i=0;i<7;i++)
		{
			sum+=uart_rx_buf[i];
    12f0:	91 91       	ld	r25, Z+
    12f2:	89 0f       	add	r24, r25
	}
	
	//if(i >= 6)
	{
		sum=0;
		for(i=0;i<7;i++)
    12f4:	9b e0       	ldi	r25, 0x0B	; 11
    12f6:	eb 33       	cpi	r30, 0x3B	; 59
    12f8:	f9 07       	cpc	r31, r25
    12fa:	d1 f7       	brne	.-12     	; 0x12f0 <__vector_20+0x74>
		{
			sum+=uart_rx_buf[i];
		}
		if(sum == uart_rx_buf[7])
    12fc:	90 91 3b 0b 	lds	r25, 0x0B3B
    1300:	89 13       	cpse	r24, r25
    1302:	0b c0       	rjmp	.+22     	; 0x131a <__vector_20+0x9e>
		{
			if(ADDR_XSB==uart_rx_buf[1])
    1304:	80 91 35 0b 	lds	r24, 0x0B35
    1308:	82 30       	cpi	r24, 0x02	; 2
    130a:	39 f4       	brne	.+14     	; 0x131a <__vector_20+0x9e>
			{
				key_value=uart_rx_buf[2];//保存键值
    130c:	80 91 36 0b 	lds	r24, 0x0B36
    1310:	80 93 c2 0a 	sts	0x0AC2, r24
				// key_value_secondary=uart_rx_buf[2];//辅助键值，主要针对总停机等
				uart_frame_ok=1;
    1314:	81 e0       	ldi	r24, 0x01	; 1
    1316:	80 93 57 0a 	sts	0x0A57, r24
	/*if(uart_rx_buf[0] == 0x55 &&  uart_rx_buf[4]== 0x45 && uart_rx_buf[3] < 10)
	{
		temp_data[uart_rx_buf[4]*2] = uart_rx_buf[1];
		temp_data[uart_rx_buf[4]*2 + 1] = uart_rx_buf[2];
	}*/
}
    131a:	ff 91       	pop	r31
    131c:	ef 91       	pop	r30
    131e:	9f 91       	pop	r25
    1320:	8f 91       	pop	r24
    1322:	4f 91       	pop	r20
    1324:	3f 91       	pop	r19
    1326:	2f 91       	pop	r18
    1328:	0f 90       	pop	r0
    132a:	0f be       	out	0x3f, r0	; 63
    132c:	0f 90       	pop	r0
    132e:	1f 90       	pop	r1
    1330:	18 95       	reti

00001332 <__vector_6>:
/////////////////////////////////////////////////////////////////
ISR(PCINT2_vect)
{
    1332:	1f 92       	push	r1
    1334:	0f 92       	push	r0
    1336:	0f b6       	in	r0, 0x3f	; 63
    1338:	0f 92       	push	r0
    133a:	11 24       	eor	r1, r1
    133c:	8f 93       	push	r24
    133e:	9f 93       	push	r25
	//MB脉冲检测，下降沿中断
	mb_counter_tmp++;
    1340:	80 91 5d 0b 	lds	r24, 0x0B5D
    1344:	90 91 5e 0b 	lds	r25, 0x0B5E
    1348:	01 96       	adiw	r24, 0x01	; 1
    134a:	90 93 5e 0b 	sts	0x0B5E, r25
    134e:	80 93 5d 0b 	sts	0x0B5D, r24
}
    1352:	9f 91       	pop	r25
    1354:	8f 91       	pop	r24
    1356:	0f 90       	pop	r0
    1358:	0f be       	out	0x3f, r0	; 63
    135a:	0f 90       	pop	r0
    135c:	1f 90       	pop	r1
    135e:	18 95       	reti

00001360 <__vector_7>:
/////////////////////////////////////////////////////////////////
ISR(PCINT3_vect)
{
    1360:	1f 92       	push	r1
    1362:	0f 92       	push	r0
    1364:	0f b6       	in	r0, 0x3f	; 63
    1366:	0f 92       	push	r0
    1368:	11 24       	eor	r1, r1
    136a:	8f 93       	push	r24
    136c:	9f 93       	push	r25
	//DW脉冲检测，下降沿中断
	dw_counter_tmp++;
    136e:	80 91 f5 0a 	lds	r24, 0x0AF5
    1372:	90 91 f6 0a 	lds	r25, 0x0AF6
    1376:	01 96       	adiw	r24, 0x01	; 1
    1378:	90 93 f6 0a 	sts	0x0AF6, r25
    137c:	80 93 f5 0a 	sts	0x0AF5, r24
}
    1380:	9f 91       	pop	r25
    1382:	8f 91       	pop	r24
    1384:	0f 90       	pop	r0
    1386:	0f be       	out	0x3f, r0	; 63
    1388:	0f 90       	pop	r0
    138a:	1f 90       	pop	r1
    138c:	18 95       	reti

0000138e <__vector_8>:
/////////////////////////////////////////////////////////////////
ISR(WDT_vect)
{
    138e:	1f 92       	push	r1
    1390:	0f 92       	push	r0
    1392:	0f b6       	in	r0, 0x3f	; 63
    1394:	0f 92       	push	r0
    1396:	11 24       	eor	r1, r1
    1398:	2f 93       	push	r18
    139a:	3f 93       	push	r19
    139c:	4f 93       	push	r20
    139e:	5f 93       	push	r21
    13a0:	6f 93       	push	r22
    13a2:	7f 93       	push	r23
    13a4:	8f 93       	push	r24
    13a6:	9f 93       	push	r25
    13a8:	af 93       	push	r26
    13aa:	bf 93       	push	r27
    13ac:	ef 93       	push	r30
    13ae:	ff 93       	push	r31
	//看门狗中断
	DEBUG_STRING("wdt interrupt");
    13b0:	6d e0       	ldi	r22, 0x0D	; 13
    13b2:	8d ed       	ldi	r24, 0xDD	; 221
    13b4:	94 e0       	ldi	r25, 0x04	; 4
    13b6:	0e 94 20 2b 	call	0x5640	; 0x5640 <send_uart1_to_computer>
}
    13ba:	ff 91       	pop	r31
    13bc:	ef 91       	pop	r30
    13be:	bf 91       	pop	r27
    13c0:	af 91       	pop	r26
    13c2:	9f 91       	pop	r25
    13c4:	8f 91       	pop	r24
    13c6:	7f 91       	pop	r23
    13c8:	6f 91       	pop	r22
    13ca:	5f 91       	pop	r21
    13cc:	4f 91       	pop	r20
    13ce:	3f 91       	pop	r19
    13d0:	2f 91       	pop	r18
    13d2:	0f 90       	pop	r0
    13d4:	0f be       	out	0x3f, r0	; 63
    13d6:	0f 90       	pop	r0
    13d8:	1f 90       	pop	r1
    13da:	18 95       	reti

000013dc <fmotor_vel>:
{
	//输出电压,控制变频器，最终到达变频器的是4-20mA电流
	//
	//0-300 --> 200-1000(-200)
	//
	if(1 == bit_xieliao)
    13dc:	80 91 ed 0a 	lds	r24, 0x0AED
    13e0:	81 30       	cpi	r24, 0x01	; 1
    13e2:	39 f4       	brne	.+14     	; 0x13f2 <fmotor_vel+0x16>
	{
		//正在卸料
		bpwmb = (((m_rPara.para.max_vel>>1)*8)/3)+200; //4-20mA
    13e4:	80 91 5c 0a 	lds	r24, 0x0A5C
    13e8:	90 91 5d 0a 	lds	r25, 0x0A5D
    13ec:	96 95       	lsr	r25
    13ee:	87 95       	ror	r24
    13f0:	52 c0       	rjmp	.+164    	; 0x1496 <fmotor_vel+0xba>
	}
	else if(1 == bit_auto)
    13f2:	80 91 0d 0b 	lds	r24, 0x0B0D
    13f6:	81 30       	cpi	r24, 0x01	; 1
    13f8:	41 f5       	brne	.+80     	; 0x144a <fmotor_vel+0x6e>
	{
		//自动模式下
		if(auto_vel > m_rPara.para.max_vel)
    13fa:	20 91 5f 0b 	lds	r18, 0x0B5F
    13fe:	30 91 60 0b 	lds	r19, 0x0B60
    1402:	80 91 5c 0a 	lds	r24, 0x0A5C
    1406:	90 91 5d 0a 	lds	r25, 0x0A5D
    140a:	82 17       	cp	r24, r18
    140c:	93 07       	cpc	r25, r19
    140e:	20 f4       	brcc	.+8      	; 0x1418 <fmotor_vel+0x3c>
		{
			//自动运行最大转速限制
			auto_vel = m_rPara.para.max_vel;
    1410:	90 93 60 0b 	sts	0x0B60, r25
    1414:	80 93 5f 0b 	sts	0x0B5F, r24
		}
		if(auto_vel <= m_rPara.para.min_vel)
    1418:	20 91 5f 0b 	lds	r18, 0x0B5F
    141c:	30 91 60 0b 	lds	r19, 0x0B60
    1420:	80 91 5e 0a 	lds	r24, 0x0A5E
    1424:	90 91 5f 0a 	lds	r25, 0x0A5F
    1428:	82 17       	cp	r24, r18
    142a:	93 07       	cpc	r25, r19
    142c:	28 f0       	brcs	.+10     	; 0x1438 <fmotor_vel+0x5c>
		{
			//自动运行最小转速限制
			auto_vel = 0;
    142e:	10 92 60 0b 	sts	0x0B60, r1
    1432:	10 92 5f 0b 	sts	0x0B5F, r1
    1436:	3f c0       	rjmp	.+126    	; 0x14b6 <fmotor_vel+0xda>
			bpwmb = 200; //4mA
		}
		else
		{
			if(0 == bit_fmotor)
    1438:	80 91 33 0b 	lds	r24, 0x0B33
    143c:	88 23       	and	r24, r24
    143e:	d9 f1       	breq	.+118    	; 0x14b6 <fmotor_vel+0xda>
				bpwmb = 200;//4mA
			}
			else
			{
				//转速转换为控制变频器的电压
				bpwmb = ((auto_vel*8)/3)+200; //20mA - 300转
    1440:	80 91 5f 0b 	lds	r24, 0x0B5F
    1444:	90 91 60 0b 	lds	r25, 0x0B60
    1448:	26 c0       	rjmp	.+76     	; 0x1496 <fmotor_vel+0xba>
			}
		}
	}
	else
	{
		if(1 == bit_fmotor)
    144a:	80 91 33 0b 	lds	r24, 0x0B33
    144e:	81 30       	cpi	r24, 0x01	; 1
    1450:	91 f5       	brne	.+100    	; 0x14b6 <fmotor_vel+0xda>
		{
			//喂料辊电机运行中
			if(m_rPara.para.manual_vel > m_rPara.para.max_vel)
    1452:	80 91 5c 0a 	lds	r24, 0x0A5C
    1456:	90 91 5d 0a 	lds	r25, 0x0A5D
    145a:	20 91 68 0a 	lds	r18, 0x0A68
    145e:	30 91 69 0a 	lds	r19, 0x0A69
    1462:	82 17       	cp	r24, r18
    1464:	93 07       	cpc	r25, r19
    1466:	20 f4       	brcc	.+8      	; 0x1470 <fmotor_vel+0x94>
			{
				//手动运行最大转速控制
				m_rPara.para.manual_vel = m_rPara.para.max_vel;
    1468:	90 93 69 0a 	sts	0x0A69, r25
    146c:	80 93 68 0a 	sts	0x0A68, r24
			}
			if(m_rPara.para.manual_vel < m_rPara.para.min_vel)
    1470:	80 91 5e 0a 	lds	r24, 0x0A5E
    1474:	90 91 5f 0a 	lds	r25, 0x0A5F
    1478:	20 91 68 0a 	lds	r18, 0x0A68
    147c:	30 91 69 0a 	lds	r19, 0x0A69
    1480:	28 17       	cp	r18, r24
    1482:	39 07       	cpc	r19, r25
    1484:	20 f4       	brcc	.+8      	; 0x148e <fmotor_vel+0xb2>
			{
				//手动运行最小转速控制
				m_rPara.para.manual_vel = m_rPara.para.min_vel;
    1486:	90 93 69 0a 	sts	0x0A69, r25
    148a:	80 93 68 0a 	sts	0x0A68, r24
			}
			//
			//转速转换为控制变频器的电压
			bpwmb = ((m_rPara.para.manual_vel*8)/3)+200; //20mA - 300转
    148e:	80 91 68 0a 	lds	r24, 0x0A68
    1492:	90 91 69 0a 	lds	r25, 0x0A69
    1496:	23 e0       	ldi	r18, 0x03	; 3
    1498:	88 0f       	add	r24, r24
    149a:	99 1f       	adc	r25, r25
    149c:	2a 95       	dec	r18
    149e:	e1 f7       	brne	.-8      	; 0x1498 <fmotor_vel+0xbc>
    14a0:	63 e0       	ldi	r22, 0x03	; 3
    14a2:	70 e0       	ldi	r23, 0x00	; 0
    14a4:	0e 94 22 37 	call	0x6e44	; 0x6e44 <__udivmodhi4>
    14a8:	68 53       	subi	r22, 0x38	; 56
    14aa:	7f 4f       	sbci	r23, 0xFF	; 255
    14ac:	70 93 8b 00 	sts	0x008B, r23
    14b0:	60 93 8a 00 	sts	0x008A, r22
    14b4:	08 95       	ret
		}
		else
		{
			//喂料辊停机
			bpwmb = 200; //4mA
    14b6:	88 ec       	ldi	r24, 0xC8	; 200
    14b8:	90 e0       	ldi	r25, 0x00	; 0
    14ba:	90 93 8b 00 	sts	0x008B, r25
    14be:	80 93 8a 00 	sts	0x008A, r24
    14c2:	08 95       	ret

000014c4 <fmotor_vel_a>:
{
	//输出电压,控制变频器，最终到达变频器的是4-20mA电流
	//
	//0-300 --> 200-1000(-200)
	//
	if(1 == bit_xieliao)
    14c4:	80 91 ed 0a 	lds	r24, 0x0AED
    14c8:	81 30       	cpi	r24, 0x01	; 1
    14ca:	39 f4       	brne	.+14     	; 0x14da <fmotor_vel_a+0x16>
	{
		//正在卸料
		bpwma = (((m_rPara.para.max_vel>>1)*8)/3)+200; //4-20mA
    14cc:	80 91 5c 0a 	lds	r24, 0x0A5C
    14d0:	90 91 5d 0a 	lds	r25, 0x0A5D
    14d4:	96 95       	lsr	r25
    14d6:	87 95       	ror	r24
    14d8:	52 c0       	rjmp	.+164    	; 0x157e <fmotor_vel_a+0xba>
	}
	else if(1 == bit_auto)
    14da:	80 91 0d 0b 	lds	r24, 0x0B0D
    14de:	81 30       	cpi	r24, 0x01	; 1
    14e0:	41 f5       	brne	.+80     	; 0x1532 <fmotor_vel_a+0x6e>
	{
		//自动模式下
		if(auto_vel > m_rPara.para.max_vel)
    14e2:	20 91 5f 0b 	lds	r18, 0x0B5F
    14e6:	30 91 60 0b 	lds	r19, 0x0B60
    14ea:	80 91 5c 0a 	lds	r24, 0x0A5C
    14ee:	90 91 5d 0a 	lds	r25, 0x0A5D
    14f2:	82 17       	cp	r24, r18
    14f4:	93 07       	cpc	r25, r19
    14f6:	20 f4       	brcc	.+8      	; 0x1500 <fmotor_vel_a+0x3c>
		{
			//自动运行最大转速限制
			auto_vel = m_rPara.para.max_vel;
    14f8:	90 93 60 0b 	sts	0x0B60, r25
    14fc:	80 93 5f 0b 	sts	0x0B5F, r24
		}
		if(auto_vel <= m_rPara.para.min_vel)
    1500:	20 91 5f 0b 	lds	r18, 0x0B5F
    1504:	30 91 60 0b 	lds	r19, 0x0B60
    1508:	80 91 5e 0a 	lds	r24, 0x0A5E
    150c:	90 91 5f 0a 	lds	r25, 0x0A5F
    1510:	82 17       	cp	r24, r18
    1512:	93 07       	cpc	r25, r19
    1514:	28 f0       	brcs	.+10     	; 0x1520 <fmotor_vel_a+0x5c>
		{
			//自动运行最小转速限制
			auto_vel = 0;
    1516:	10 92 60 0b 	sts	0x0B60, r1
    151a:	10 92 5f 0b 	sts	0x0B5F, r1
    151e:	3f c0       	rjmp	.+126    	; 0x159e <fmotor_vel_a+0xda>
			bpwma = 200; //4mA
		}
		else
		{
			if(0 == bit_fmotor)
    1520:	80 91 33 0b 	lds	r24, 0x0B33
    1524:	88 23       	and	r24, r24
    1526:	d9 f1       	breq	.+118    	; 0x159e <fmotor_vel_a+0xda>
				bpwma = 200;//4mA
			}
			else
			{
				//转速转换为控制变频器的电压
				bpwma = ((auto_vel*8)/3)+200; //20mA - 300转
    1528:	80 91 5f 0b 	lds	r24, 0x0B5F
    152c:	90 91 60 0b 	lds	r25, 0x0B60
    1530:	26 c0       	rjmp	.+76     	; 0x157e <fmotor_vel_a+0xba>
			}
		}
	}
	else
	{
		if(1 == bit_fmotor)
    1532:	80 91 33 0b 	lds	r24, 0x0B33
    1536:	81 30       	cpi	r24, 0x01	; 1
    1538:	91 f5       	brne	.+100    	; 0x159e <fmotor_vel_a+0xda>
		{
			//喂料辊电机运行中
			if(m_rPara.para.manual_vel > m_rPara.para.max_vel)
    153a:	80 91 5c 0a 	lds	r24, 0x0A5C
    153e:	90 91 5d 0a 	lds	r25, 0x0A5D
    1542:	20 91 68 0a 	lds	r18, 0x0A68
    1546:	30 91 69 0a 	lds	r19, 0x0A69
    154a:	82 17       	cp	r24, r18
    154c:	93 07       	cpc	r25, r19
    154e:	20 f4       	brcc	.+8      	; 0x1558 <fmotor_vel_a+0x94>
			{
				//手动运行最大转速控制
				m_rPara.para.manual_vel = m_rPara.para.max_vel;
    1550:	90 93 69 0a 	sts	0x0A69, r25
    1554:	80 93 68 0a 	sts	0x0A68, r24
			}
			if(m_rPara.para.manual_vel < m_rPara.para.min_vel)
    1558:	80 91 5e 0a 	lds	r24, 0x0A5E
    155c:	90 91 5f 0a 	lds	r25, 0x0A5F
    1560:	20 91 68 0a 	lds	r18, 0x0A68
    1564:	30 91 69 0a 	lds	r19, 0x0A69
    1568:	28 17       	cp	r18, r24
    156a:	39 07       	cpc	r19, r25
    156c:	20 f4       	brcc	.+8      	; 0x1576 <fmotor_vel_a+0xb2>
			{
				//手动运行最小转速控制
				m_rPara.para.manual_vel = m_rPara.para.min_vel;
    156e:	90 93 69 0a 	sts	0x0A69, r25
    1572:	80 93 68 0a 	sts	0x0A68, r24
			}
			//
			//转速转换为控制变频器的电压
			bpwma = ((m_rPara.para.manual_vel*8)/3)+200; //20mA - 300转
    1576:	80 91 68 0a 	lds	r24, 0x0A68
    157a:	90 91 69 0a 	lds	r25, 0x0A69
    157e:	43 e0       	ldi	r20, 0x03	; 3
    1580:	88 0f       	add	r24, r24
    1582:	99 1f       	adc	r25, r25
    1584:	4a 95       	dec	r20
    1586:	e1 f7       	brne	.-8      	; 0x1580 <fmotor_vel_a+0xbc>
    1588:	63 e0       	ldi	r22, 0x03	; 3
    158a:	70 e0       	ldi	r23, 0x00	; 0
    158c:	0e 94 22 37 	call	0x6e44	; 0x6e44 <__udivmodhi4>
    1590:	68 53       	subi	r22, 0x38	; 56
    1592:	7f 4f       	sbci	r23, 0xFF	; 255
    1594:	70 93 89 00 	sts	0x0089, r23
    1598:	60 93 88 00 	sts	0x0088, r22
    159c:	08 95       	ret
		}
		else
		{
			//喂料辊停机
			bpwma = 200; //4mA
    159e:	88 ec       	ldi	r24, 0xC8	; 200
    15a0:	90 e0       	ldi	r25, 0x00	; 0
    15a2:	90 93 89 00 	sts	0x0089, r25
    15a6:	80 93 88 00 	sts	0x0088, r24
    15aa:	08 95       	ret

000015ac <mmotor_start>:
#endif
/////////////////////////////////////////////////////////////////
void mmotor_start(void)
{
	// mmotor_delay = 0;
	bmmstart = 1;
    15ac:	40 9a       	sbi	0x08, 0	; 8
	ddr_zk = 1;
    15ae:	38 9a       	sbi	0x07, 0	; 7
	//bmmstop = 0;
	bit_mmotor = 1;
    15b0:	81 e0       	ldi	r24, 0x01	; 1
    15b2:	80 93 43 0b 	sts	0x0B43, r24
	modbus_status.status.m_zdjq = STATUS_ON;
    15b6:	e9 e1       	ldi	r30, 0x19	; 25
    15b8:	fd e0       	ldi	r31, 0x0D	; 13
    15ba:	80 81       	ld	r24, Z
    15bc:	88 60       	ori	r24, 0x08	; 8
    15be:	80 83       	st	Z, r24
    15c0:	08 95       	ret

000015c2 <mmotor_stop>:
}
/////////////////////////////////////////////////////////////////
void mmotor_stop(void)
{
	//mmotor_delay = 0;
	bmmstart = 0;
    15c2:	40 98       	cbi	0x08, 0	; 8
	ddr_zk = 1;
    15c4:	38 9a       	sbi	0x07, 0	; 7
	//bmmstop = 1;
	bit_mmotor = 0;
    15c6:	10 92 43 0b 	sts	0x0B43, r1
	modbus_status.status.m_zdjq = STATUS_OFF;
    15ca:	e9 e1       	ldi	r30, 0x19	; 25
    15cc:	fd e0       	ldi	r31, 0x0D	; 13
    15ce:	80 81       	ld	r24, Z
    15d0:	87 7f       	andi	r24, 0xF7	; 247
    15d2:	80 83       	st	Z, r24
    15d4:	08 95       	ret

000015d6 <roll_in>:
/////////////////////////////////////////////////////////////////
void roll_in(void)
{
	//roll_delay = 0;
	//brollin = 1;
	ddr_hz = 1;
    15d6:	3b 9a       	sbi	0x07, 3	; 7
	li_he_zha = 1;
    15d8:	81 e0       	ldi	r24, 0x01	; 1
    15da:	90 e0       	ldi	r25, 0x00	; 0
    15dc:	90 93 6a 08 	sts	0x086A, r25
    15e0:	80 93 69 08 	sts	0x0869, r24
	bit_led_hz=1;
    15e4:	e0 e7       	ldi	r30, 0x70	; 112
    15e6:	fb e0       	ldi	r31, 0x0B	; 11
    15e8:	80 81       	ld	r24, Z
    15ea:	80 62       	ori	r24, 0x20	; 32
    15ec:	80 83       	st	Z, r24
	//brollout = 0;
	modbus_status.status.m_lzhz = STATUS_ON;
    15ee:	e9 e1       	ldi	r30, 0x19	; 25
    15f0:	fd e0       	ldi	r31, 0x0D	; 13
    15f2:	80 81       	ld	r24, Z
    15f4:	80 62       	ori	r24, 0x20	; 32
    15f6:	80 83       	st	Z, r24
	//
	//bit_qr_ql_error = 0;
	
	modbus_status.status.m_qr_ql_error = STATUS_OFF;
    15f8:	81 81       	ldd	r24, Z+1	; 0x01
    15fa:	8e 7f       	andi	r24, 0xFE	; 254
    15fc:	81 83       	std	Z+1, r24	; 0x01
    15fe:	08 95       	ret

00001600 <roll_out>:
/////////////////////////////////////////////////////////////////
void roll_out(void)
{
	//roll_delay = 0;
	//brollin = 0;
	li_he_zha = 0;
    1600:	10 92 6a 08 	sts	0x086A, r1
    1604:	10 92 69 08 	sts	0x0869, r1
	ddr_hz = 1;
    1608:	3b 9a       	sbi	0x07, 3	; 7
	// brollout = 1;
	bit_led_hz=0;
    160a:	e0 e7       	ldi	r30, 0x70	; 112
    160c:	fb e0       	ldi	r31, 0x0B	; 11
    160e:	80 81       	ld	r24, Z
    1610:	8f 7d       	andi	r24, 0xDF	; 223
    1612:	80 83       	st	Z, r24
	modbus_status.status.m_lzhz = STATUS_OFF;
    1614:	e9 e1       	ldi	r30, 0x19	; 25
    1616:	fd e0       	ldi	r31, 0x0D	; 13
    1618:	80 81       	ld	r24, Z
    161a:	8f 7d       	andi	r24, 0xDF	; 223
    161c:	80 83       	st	Z, r24
	//
	//bit_qr_ql_error = 0;
	modbus_status.status.m_qr_ql_error = STATUS_OFF;
    161e:	81 81       	ldd	r24, Z+1	; 0x01
    1620:	8e 7f       	andi	r24, 0xFE	; 254
    1622:	81 83       	std	Z+1, r24	; 0x01
	//KillTimer(MT_START_QR_QL_CHECK);//停止QR和QL的检测
	//KillTimer(MT_CHECK_QR_QL);
	//
	// 不管什么情况，离轧就清除等待合轧标志。bear，20160102
	bit_wait_rollin = 0;
    1624:	10 92 5c 0b 	sts	0x0B5C, r1
    1628:	08 95       	ret

0000162a <roll_lock>:
}
/////////////////////////////////////////////////////////////////
void roll_lock(void)
{
	brolllock = 1; //解锁
    162a:	44 9a       	sbi	0x08, 4	; 8
	ddr_lz = 1;
    162c:	3c 9a       	sbi	0x07, 4	; 7
	//
	bit_rolllock = 1;
    162e:	81 e0       	ldi	r24, 0x01	; 1
    1630:	80 93 4d 0b 	sts	0x0B4D, r24
    1634:	08 95       	ret

00001636 <roll_unlock>:
}
/////////////////////////////////////////////////////////////////
void roll_unlock(void)
{
	brolllock = 0; //上锁
    1636:	44 98       	cbi	0x08, 4	; 8
	ddr_lz = 1;
    1638:	3c 9a       	sbi	0x07, 4	; 7
	//
	bit_rolllock = 0;
    163a:	10 92 4d 0b 	sts	0x0B4D, r1
    163e:	08 95       	ret

00001640 <fmotor_start>:
}
/////////////////////////////////////////////////////////////////
void fmotor_start(void)
{
	bftstart = 1;
    1640:	42 9a       	sbi	0x08, 2	; 8
	ddr_wg = 1;
    1642:	3a 9a       	sbi	0x07, 2	; 7
	bit_fmotor = 1;
    1644:	81 e0       	ldi	r24, 0x01	; 1
    1646:	80 93 33 0b 	sts	0x0B33, r24
	modbus_status.status.m_wlgdjq = STATUS_ON;
    164a:	e9 e1       	ldi	r30, 0x19	; 25
    164c:	fd e0       	ldi	r31, 0x0D	; 13
    164e:	80 81       	ld	r24, Z
    1650:	80 61       	ori	r24, 0x10	; 16
    1652:	80 83       	st	Z, r24
	//
	enable_mb_delay = 0;
    1654:	10 92 ab 0a 	sts	0x0AAB, r1
	mb_invalid_delay = 0;
    1658:	10 92 10 0b 	sts	0x0B10, r1
    165c:	08 95       	ret

0000165e <fmotor_stop>:
}
/////////////////////////////////////////////////////////////////
void fmotor_stop(void)
{
	bftstart = 0;
    165e:	42 98       	cbi	0x08, 2	; 8
	ddr_wg = 1;
    1660:	3a 9a       	sbi	0x07, 2	; 7
	bit_fmotor = 0;
    1662:	10 92 33 0b 	sts	0x0B33, r1
	modbus_status.status.m_wlgdjq = STATUS_OFF;
    1666:	e9 e1       	ldi	r30, 0x19	; 25
    1668:	fd e0       	ldi	r31, 0x0D	; 13
    166a:	80 81       	ld	r24, Z
    166c:	8f 7e       	andi	r24, 0xEF	; 239
    166e:	80 83       	st	Z, r24
    1670:	08 95       	ret

00001672 <part_stop>:
}
/////////////////////////////////////////////////////////////////
void part_stop(void)
{
	//部分停机
	fmotor_stop();
    1672:	0e 94 2f 0b 	call	0x165e	; 0x165e <fmotor_stop>
	roll_out();
    1676:	0e 94 00 0b 	call	0x1600	; 0x1600 <roll_out>
	//DEBUG_STRING("fmotor stop in part_stop\r\n\0");
	//
	bit_auto = 0;
    167a:	10 92 0d 0b 	sts	0x0B0D, r1
	modbus_status.status.m_zd = STATUS_OFF;
    167e:	e9 e1       	ldi	r30, 0x19	; 25
    1680:	fd e0       	ldi	r31, 0x0D	; 13
    1682:	80 81       	ld	r24, Z
	bit_manual = 0;
    1684:	10 92 fe 0a 	sts	0x0AFE, r1
	modbus_status.status.m_sd = STATUS_OFF;
    1688:	8d 7f       	andi	r24, 0xFD	; 253
    168a:	8b 7f       	andi	r24, 0xFB	; 251
    168c:	80 83       	st	Z, r24
	bit_xieliao = 0;
    168e:	10 92 ed 0a 	sts	0x0AED, r1
	mb_is_invalid = 0;
    1692:	10 92 51 0b 	sts	0x0B51, r1
	//
	//清除mb报警信号，20160102
	ddr_mbbj = 1;
    1696:	3e 9a       	sbi	0x07, 6	; 7
    1698:	08 95       	ret

0000169a <all_stop>:
void all_stop(void)
{
	//总停机
	//if((1==bit_mmotor)||(1==bit_fmotor))
	{
		mmotor_stop();
    169a:	0e 94 e1 0a 	call	0x15c2	; 0x15c2 <mmotor_stop>
		part_stop();
    169e:	0e 94 39 0b 	call	0x1672	; 0x1672 <part_stop>
		mb_is_invalid = 0;
    16a2:	10 92 51 0b 	sts	0x0B51, r1
		KillTimer(MT_AUTO_RUN_DELAY);
    16a6:	84 e9       	ldi	r24, 0x94	; 148
    16a8:	93 e1       	ldi	r25, 0x13	; 19
    16aa:	0c 94 b1 29 	jmp	0x5362	; 0x5362 <KillTimer>

000016ae <enable_wait_rollin>:
	}
}
/////////////////////////////////////////////////////////////////
void enable_wait_rollin(void)
{
	bit_wait_rollin = 1;
    16ae:	81 e0       	ldi	r24, 0x01	; 1
    16b0:	80 93 5c 0b 	sts	0x0B5C, r24
	wait_rollin=0;
    16b4:	10 92 ee 0a 	sts	0x0AEE, r1
    16b8:	08 95       	ret

000016ba <deal_wait_rollin>:
}
/////////////////////////////////////////////////////////////////
void deal_wait_rollin(void)
{
	if(1 == bit_wait_rollin)
    16ba:	80 91 5c 0b 	lds	r24, 0x0B5C
    16be:	81 30       	cpi	r24, 0x01	; 1
    16c0:	51 f4       	brne	.+20     	; 0x16d6 <deal_wait_rollin+0x1c>
	{
		if(wait_rollin > m_rPara.para.rollin_delay)
    16c2:	90 91 ee 0a 	lds	r25, 0x0AEE
    16c6:	80 91 61 0a 	lds	r24, 0x0A61
    16ca:	89 17       	cp	r24, r25
    16cc:	20 f4       	brcc	.+8      	; 0x16d6 <deal_wait_rollin+0x1c>
		{
			bit_wait_rollin = 0;
    16ce:	10 92 5c 0b 	sts	0x0B5C, r1
			roll_in();
    16d2:	0c 94 eb 0a 	jmp	0x15d6	; 0x15d6 <roll_in>
    16d6:	08 95       	ret

000016d8 <auto_run>:
}
/////////////////////////////////////////////////////////////////
void auto_run(void)
{
	//喂料电机启动信号是一个稳定电平信号
	if(1 == bit_auto)
    16d8:	80 91 0d 0b 	lds	r24, 0x0B0D
    16dc:	81 30       	cpi	r24, 0x01	; 1
    16de:	71 f5       	brne	.+92     	; 0x173c <auto_run+0x64>
	{
		if(1 == bftstart)
    16e0:	42 9b       	sbis	0x08, 2	; 8
    16e2:	0e c0       	rjmp	.+28     	; 0x1700 <auto_run+0x28>
		{
			//喂料电机启动
			if(m_material < 5)//小于1v
    16e4:	80 91 fc 0a 	lds	r24, 0x0AFC
    16e8:	90 91 fd 0a 	lds	r25, 0x0AFD
    16ec:	05 97       	sbiw	r24, 0x05	; 5
    16ee:	20 f5       	brcc	.+72     	; 0x1738 <auto_run+0x60>
			{
				//计算料位值的时候已经修正了停机比较值
				fmotor_stop();
    16f0:	0e 94 2f 0b 	call	0x165e	; 0x165e <fmotor_stop>
				roll_out();
    16f4:	0e 94 00 0b 	call	0x1600	; 0x1600 <roll_out>
				//DEBUG_STRING("fmotor stop in auto_run\r\n\0");
				//
				part_stop_bmb = 0;
    16f8:	10 92 e8 0a 	sts	0x0AE8, r1
				//
				ddr_mbbj = 1;
    16fc:	3e 9a       	sbi	0x07, 6	; 7
    16fe:	1c c0       	rjmp	.+56     	; 0x1738 <auto_run+0x60>
		}
		else
		{
			//喂料电机停机
			//if(m_material > (unsigned short)2*12890)//大于3v
			if(m_material > (m_material_start_modify - 12890))//在料位计算过程中m_material已经减了12890
    1700:	20 91 fc 0a 	lds	r18, 0x0AFC
    1704:	30 91 fd 0a 	lds	r19, 0x0AFD
    1708:	80 91 fa 0a 	lds	r24, 0x0AFA
    170c:	90 91 fb 0a 	lds	r25, 0x0AFB
    1710:	8a 55       	subi	r24, 0x5A	; 90
    1712:	92 43       	sbci	r25, 0x32	; 50
    1714:	82 17       	cp	r24, r18
    1716:	93 07       	cpc	r25, r19
    1718:	78 f4       	brcc	.+30     	; 0x1738 <auto_run+0x60>
			{
				if(0 == part_stop_bmb)
    171a:	80 91 e8 0a 	lds	r24, 0x0AE8
    171e:	88 23       	and	r24, r24
    1720:	39 f0       	breq	.+14     	; 0x1730 <auto_run+0x58>
				{
					fmotor_start();//喂料电机启动
					enable_wait_rollin();
				}
				else if(0 == mb_is_invalid)
    1722:	80 91 51 0b 	lds	r24, 0x0B51
    1726:	81 11       	cpse	r24, r1
    1728:	07 c0       	rjmp	.+14     	; 0x1738 <auto_run+0x60>
				{
					part_stop_bmb = 0;
    172a:	10 92 e8 0a 	sts	0x0AE8, r1
					//
					ddr_mbbj = 1;
    172e:	3e 9a       	sbi	0x07, 6	; 7
					//bmbbj = bit_duliao | mb_is_invalid;//该处可以写的更加简洁，为了规范还是写全较好
					//
					fmotor_start();//喂料电机启动
    1730:	0e 94 20 0b 	call	0x1640	; 0x1640 <fmotor_start>
					enable_wait_rollin();
    1734:	0e 94 57 0b 	call	0x16ae	; 0x16ae <enable_wait_rollin>
				}
			}
		}
		//
		deal_wait_rollin();
    1738:	0c 94 5d 0b 	jmp	0x16ba	; 0x16ba <deal_wait_rollin>
    173c:	08 95       	ret

0000173e <manual_run>:
	}
}
/////////////////////////////////////////////////////////////////
void manual_run(void)
{
	if(1==bit_manual)
    173e:	80 91 fe 0a 	lds	r24, 0x0AFE
    1742:	81 30       	cpi	r24, 0x01	; 1
    1744:	11 f4       	brne	.+4      	; 0x174a <manual_run+0xc>
	{
		deal_wait_rollin();
    1746:	0c 94 5d 0b 	jmp	0x16ba	; 0x16ba <deal_wait_rollin>
    174a:	08 95       	ret

0000174c <uart_tx>:
char xianshi_qiehua = 0;
char wendu_qiehua = 0;
signed short PID_Temp =0;
	
void uart_tx(void)
{
    174c:	cf 93       	push	r28
		case 
		
		
	}
  */ 
	if (set_date != 0)
    174e:	30 91 67 08 	lds	r19, 0x0867
    1752:	33 23       	and	r19, r19
    1754:	09 f4       	brne	.+2      	; 0x1758 <uart_tx+0xc>
    1756:	84 c0       	rjmp	.+264    	; 0x1860 <uart_tx+0x114>
	{
	
		{
			uart_tx_buf[0] = 0xaa; 
    1758:	8a ea       	ldi	r24, 0xAA	; 170
    175a:	80 93 ac 0a 	sts	0x0AAC, r24
			wendu_qiehua ++;
    175e:	80 91 09 08 	lds	r24, 0x0809
    1762:	8f 5f       	subi	r24, 0xFF	; 255
    1764:	80 93 09 08 	sts	0x0809, r24
			if (wendu_qiehua%3 ==0)
    1768:	2b ea       	ldi	r18, 0xAB	; 171
    176a:	82 9f       	mul	r24, r18
    176c:	21 2d       	mov	r18, r1
    176e:	11 24       	eor	r1, r1
    1770:	26 95       	lsr	r18
    1772:	92 2f       	mov	r25, r18
    1774:	99 0f       	add	r25, r25
    1776:	92 0f       	add	r25, r18
    1778:	28 2f       	mov	r18, r24
    177a:	29 1b       	sub	r18, r25
    177c:	83 2f       	mov	r24, r19
    177e:	90 e0       	ldi	r25, 0x00	; 0
    1780:	09 f5       	brne	.+66     	; 0x17c4 <uart_tx+0x78>
			{
				uart_tx_buf[1] = ADDR_XSB_5;
    1782:	29 e0       	ldi	r18, 0x09	; 9
    1784:	20 93 ad 0a 	sts	0x0AAD, r18
				
				uart_tx_buf[2] = temp_data[2 + (set_date -1) * 20];	//936
    1788:	01 97       	sbiw	r24, 0x01	; 1
    178a:	24 e1       	ldi	r18, 0x14	; 20
    178c:	28 9f       	mul	r18, r24
    178e:	f0 01       	movw	r30, r0
    1790:	29 9f       	mul	r18, r25
    1792:	f0 0d       	add	r31, r0
    1794:	11 24       	eor	r1, r1
    1796:	e2 5f       	subi	r30, 0xF2	; 242
    1798:	f7 4f       	sbci	r31, 0xF7	; 247
    179a:	82 81       	ldd	r24, Z+2	; 0x02
    179c:	80 93 ae 0a 	sts	0x0AAE, r24
				uart_tx_buf[3] = temp_data[3 + (set_date -1) * 20]; 
    17a0:	83 81       	ldd	r24, Z+3	; 0x03
    17a2:	80 93 af 0a 	sts	0x0AAF, r24


				uart_tx_buf[4] = temp_data[4 + (set_date -1) * 20];	//937
    17a6:	84 81       	ldd	r24, Z+4	; 0x04
    17a8:	80 93 b0 0a 	sts	0x0AB0, r24
				uart_tx_buf[5] = temp_data[5 + (set_date -1) * 20];	
    17ac:	85 81       	ldd	r24, Z+5	; 0x05
    17ae:	80 93 b1 0a 	sts	0x0AB1, r24

				uart_tx_buf[6] = temp_data[6 + (set_date -1) * 20];	//938				
    17b2:	86 81       	ldd	r24, Z+6	; 0x06
    17b4:	80 93 b2 0a 	sts	0x0AB2, r24
				uart_tx_buf[7] = temp_data[7 + (set_date -1) * 20]; 
    17b8:	87 81       	ldd	r24, Z+7	; 0x07
    17ba:	80 93 b3 0a 	sts	0x0AB3, r24


				uart_tx_buf[8] = set_date; 
    17be:	30 93 b4 0a 	sts	0x0AB4, r19
    17c2:	3f c0       	rjmp	.+126    	; 0x1842 <uart_tx+0xf6>
			}else if (wendu_qiehua%3 ==1)
    17c4:	21 30       	cpi	r18, 0x01	; 1
    17c6:	e9 f4       	brne	.+58     	; 0x1802 <uart_tx+0xb6>
			{
				uart_tx_buf[1] = ADDR_XSB_6;
    17c8:	2a e0       	ldi	r18, 0x0A	; 10
    17ca:	20 93 ad 0a 	sts	0x0AAD, r18
				
				uart_tx_buf[2] = temp_data[8 + (set_date -1) * 20];	 //939
    17ce:	01 97       	sbiw	r24, 0x01	; 1
    17d0:	24 e1       	ldi	r18, 0x14	; 20
    17d2:	28 9f       	mul	r18, r24
    17d4:	f0 01       	movw	r30, r0
    17d6:	29 9f       	mul	r18, r25
    17d8:	f0 0d       	add	r31, r0
    17da:	11 24       	eor	r1, r1
    17dc:	e2 5f       	subi	r30, 0xF2	; 242
    17de:	f7 4f       	sbci	r31, 0xF7	; 247
    17e0:	80 85       	ldd	r24, Z+8	; 0x08
    17e2:	80 93 ae 0a 	sts	0x0AAE, r24
				uart_tx_buf[3] = temp_data[9 + (set_date -1) * 20]; 
    17e6:	81 85       	ldd	r24, Z+9	; 0x09
    17e8:	80 93 af 0a 	sts	0x0AAF, r24


				uart_tx_buf[4] = temp_data[10 + (set_date -1) * 20];  //940
    17ec:	82 85       	ldd	r24, Z+10	; 0x0a
    17ee:	80 93 b0 0a 	sts	0x0AB0, r24
				uart_tx_buf[5] = temp_data[11 + (set_date -1) * 20];  
    17f2:	83 85       	ldd	r24, Z+11	; 0x0b
    17f4:	80 93 b1 0a 	sts	0x0AB1, r24

				uart_tx_buf[6] = temp_data[12 + (set_date -1) * 20];  //941 
    17f8:	84 85       	ldd	r24, Z+12	; 0x0c
    17fa:	80 93 b2 0a 	sts	0x0AB2, r24
				uart_tx_buf[7] = temp_data[13 + (set_date -1) * 20]; 
    17fe:	85 85       	ldd	r24, Z+13	; 0x0d
    1800:	1c c0       	rjmp	.+56     	; 0x183a <uart_tx+0xee>


				uart_tx_buf[8] = 0; 
			}else
			{
				uart_tx_buf[1] = ADDR_XSB_7;
    1802:	2b e0       	ldi	r18, 0x0B	; 11
    1804:	20 93 ad 0a 	sts	0x0AAD, r18
				
				uart_tx_buf[2] = temp_data[14 + (set_date -1) * 20];   //942
    1808:	01 97       	sbiw	r24, 0x01	; 1
    180a:	24 e1       	ldi	r18, 0x14	; 20
    180c:	28 9f       	mul	r18, r24
    180e:	f0 01       	movw	r30, r0
    1810:	29 9f       	mul	r18, r25
    1812:	f0 0d       	add	r31, r0
    1814:	11 24       	eor	r1, r1
    1816:	e2 5f       	subi	r30, 0xF2	; 242
    1818:	f7 4f       	sbci	r31, 0xF7	; 247
    181a:	86 85       	ldd	r24, Z+14	; 0x0e
    181c:	80 93 ae 0a 	sts	0x0AAE, r24
				uart_tx_buf[3] = temp_data[15 + (set_date -1) * 20]; 
    1820:	87 85       	ldd	r24, Z+15	; 0x0f
    1822:	80 93 af 0a 	sts	0x0AAF, r24


				uart_tx_buf[4] = temp_data[16 + (set_date -1) * 20];  //943
    1826:	80 89       	ldd	r24, Z+16	; 0x10
    1828:	80 93 b0 0a 	sts	0x0AB0, r24
				uart_tx_buf[5] = temp_data[17 + (set_date -1) * 20];  
    182c:	81 89       	ldd	r24, Z+17	; 0x11
    182e:	80 93 b1 0a 	sts	0x0AB1, r24

				uart_tx_buf[6] = temp_data[18 + (set_date -1) * 20];  //944 
    1832:	82 89       	ldd	r24, Z+18	; 0x12
    1834:	80 93 b2 0a 	sts	0x0AB2, r24
				uart_tx_buf[7] = temp_data[19 + (set_date -1) * 20]; 
    1838:	83 89       	ldd	r24, Z+19	; 0x13
    183a:	80 93 b3 0a 	sts	0x0AB3, r24


				uart_tx_buf[8] = 0; 
    183e:	10 92 b4 0a 	sts	0x0AB4, r1

			}
			
		}
		
		uart_tx_buf[9] = 0;
    1842:	10 92 b5 0a 	sts	0x0AB5, r1
    1846:	ec ea       	ldi	r30, 0xAC	; 172
    1848:	fa e0       	ldi	r31, 0x0A	; 10
		for(i=0; i<9; i++)
		{
			uart_tx_buf[9] += uart_tx_buf[i];
    184a:	81 91       	ld	r24, Z+
    184c:	90 91 b5 0a 	lds	r25, 0x0AB5
    1850:	89 0f       	add	r24, r25
    1852:	80 93 b5 0a 	sts	0x0AB5, r24
			}
			
		}
		
		uart_tx_buf[9] = 0;
		for(i=0; i<9; i++)
    1856:	8a e0       	ldi	r24, 0x0A	; 10
    1858:	e5 3b       	cpi	r30, 0xB5	; 181
    185a:	f8 07       	cpc	r31, r24
    185c:	b1 f7       	brne	.-20     	; 0x184a <uart_tx+0xfe>
    185e:	74 c1       	rjmp	.+744    	; 0x1b48 <uart_tx+0x3fc>
		UDR0 = uart_tx_buf[0];
		uart_tx_addr = 1;
	}
	else //7if (set_date > 1)
	{
		canshu_peizhi++;
    1860:	80 91 68 08 	lds	r24, 0x0868
    1864:	8f 5f       	subi	r24, 0xFF	; 255
    1866:	80 93 68 08 	sts	0x0868, r24

		uart_tx_buf[0] = 0xaa; 
    186a:	8a ea       	ldi	r24, 0xAA	; 170
    186c:	80 93 ac 0a 	sts	0x0AAC, r24

		switch(xianshi_qiehua % 6)
    1870:	c0 91 0a 08 	lds	r28, 0x080A
    1874:	26 e0       	ldi	r18, 0x06	; 6
    1876:	8c 2f       	mov	r24, r28
    1878:	62 2f       	mov	r22, r18
    187a:	0e 94 16 37 	call	0x6e2c	; 0x6e2c <__udivmodqi4>
    187e:	92 30       	cpi	r25, 0x02	; 2
    1880:	09 f4       	brne	.+2      	; 0x1884 <uart_tx+0x138>
    1882:	6f c0       	rjmp	.+222    	; 0x1962 <uart_tx+0x216>
    1884:	18 f5       	brcc	.+70     	; 0x18cc <uart_tx+0x180>
    1886:	99 23       	and	r25, r25
    1888:	09 f4       	brne	.+2      	; 0x188c <uart_tx+0x140>
    188a:	51 c0       	rjmp	.+162    	; 0x192e <uart_tx+0x1e2>
    188c:	91 30       	cpi	r25, 0x01	; 1
    188e:	09 f0       	breq	.+2      	; 0x1892 <uart_tx+0x146>
    1890:	a4 c0       	rjmp	.+328    	; 0x19da <uart_tx+0x28e>
				uart_tx_buf[8] = m_rPara.para.material_full; //603	   no use
				break;
			}
			case 1:
			{
				uart_tx_buf[1] = ADDR_XSB_2_2;
    1892:	20 93 ad 0a 	sts	0x0AAD, r18
				
				uart_tx_buf[2] = m_rPara.para.is_remote;	 //604
    1896:	80 91 63 0a 	lds	r24, 0x0A63
    189a:	80 93 ae 0a 	sts	0x0AAE, r24

				uart_tx_buf[3] = m_rPara.para.mmotor_cur1; //605
    189e:	80 91 60 0a 	lds	r24, 0x0A60
    18a2:	80 93 af 0a 	sts	0x0AAF, r24

				uart_tx_buf[4] = m_rPara.para.mm_cur_overflow; //606
    18a6:	80 91 64 0a 	lds	r24, 0x0A64
    18aa:	80 93 b0 0a 	sts	0x0AB0, r24

				uart_tx_buf[5] = m_rPara.para.mm_control;	 //607
    18ae:	80 91 65 0a 	lds	r24, 0x0A65
    18b2:	80 93 b1 0a 	sts	0x0AB1, r24

				uart_tx_buf[6] = m_rPara.para.cur1_full;	 //608
    18b6:	80 91 66 0a 	lds	r24, 0x0A66
    18ba:	80 93 b2 0a 	sts	0x0AB2, r24
				uart_tx_buf[7] = m_rPara.para.limited_hours  % 256;

				uart_tx_buf[20] = m_rPara.para.all_stop_id; 		//612	no use
				*/

				uart_tx_buf[7] = m_rPara.para.material_start;	  //613
    18be:	80 91 6d 0a 	lds	r24, 0x0A6D
    18c2:	80 93 b3 0a 	sts	0x0AB3, r24
				
				uart_tx_buf[8] = m_rPara.para.material_stop;	//614
    18c6:	80 91 6e 0a 	lds	r24, 0x0A6E
    18ca:	68 c0       	rjmp	.+208    	; 0x199c <uart_tx+0x250>
	{
		canshu_peizhi++;

		uart_tx_buf[0] = 0xaa; 

		switch(xianshi_qiehua % 6)
    18cc:	93 30       	cpi	r25, 0x03	; 3
    18ce:	09 f4       	brne	.+2      	; 0x18d2 <uart_tx+0x186>
    18d0:	68 c0       	rjmp	.+208    	; 0x19a2 <uart_tx+0x256>
    18d2:	94 30       	cpi	r25, 0x04	; 4
    18d4:	09 f0       	breq	.+2      	; 0x18d8 <uart_tx+0x18c>
    18d6:	81 c0       	rjmp	.+258    	; 0x19da <uart_tx+0x28e>
				uart_tx_buf[8] = m_rPara.para.all_stop_id;//	 635
				break;
			}
			case 4: 
			{
				uart_tx_buf[1] = ADDR_XSB_9;
    18d8:	8d e0       	ldi	r24, 0x0D	; 13
    18da:	80 93 ad 0a 	sts	0x0AAD, r24
				
				uart_tx_buf[2] = m_rPara.para.set_default_zhuansu;  //990
    18de:	80 91 99 0a 	lds	r24, 0x0A99
    18e2:	80 93 ae 0a 	sts	0x0AAE, r24
				uart_tx_buf[3] = m_rPara.para.set_model;  			//991
    18e6:	80 91 9a 0a 	lds	r24, 0x0A9A
    18ea:	80 93 af 0a 	sts	0x0AAF, r24


				uart_tx_buf[4] = m_rPara.para.set_wuliao_PID_P;  	//992
    18ee:	80 91 9b 0a 	lds	r24, 0x0A9B
    18f2:	80 93 b0 0a 	sts	0x0AB0, r24
				uart_tx_buf[5] = m_rPara.para.set_qiwang_value;  	//993
    18f6:	80 91 9c 0a 	lds	r24, 0x0A9C
    18fa:	80 93 b1 0a 	sts	0x0AB1, r24
zan_temp =m_material_value;
    18fe:	80 91 09 0b 	lds	r24, 0x0B09
    1902:	90 91 0a 0b 	lds	r25, 0x0B0A
zan_temp=(m_material_value>>6)/5;
    1906:	80 91 09 0b 	lds	r24, 0x0B09
    190a:	90 91 0a 0b 	lds	r25, 0x0B0A
    190e:	e6 e0       	ldi	r30, 0x06	; 6
    1910:	96 95       	lsr	r25
    1912:	87 95       	ror	r24
    1914:	ea 95       	dec	r30
    1916:	e1 f7       	brne	.-8      	; 0x1910 <uart_tx+0x1c4>
    1918:	65 e0       	ldi	r22, 0x05	; 5
    191a:	70 e0       	ldi	r23, 0x00	; 0
    191c:	0e 94 22 37 	call	0x6e44	; 0x6e44 <__udivmodhi4>
				uart_tx_buf[6] = zan_temp>>8;	
    1920:	70 93 b2 0a 	sts	0x0AB2, r23
				
				uart_tx_buf[7] = zan_temp&0xff;	//995			
    1924:	60 93 b3 0a 	sts	0x0AB3, r22

				uart_tx_buf[8] = m_rPara.para.set_yuankong_auto_delay;//996
    1928:	80 91 9d 0a 	lds	r24, 0x0A9D
    192c:	37 c0       	rjmp	.+110    	; 0x199c <uart_tx+0x250>

		switch(xianshi_qiehua % 6)
		{
			case 0: 
			{
				uart_tx_buf[1] = ADDR_XSB_1;
    192e:	85 e0       	ldi	r24, 0x05	; 5
    1930:	80 93 ad 0a 	sts	0x0AAD, r24
				
				uart_tx_buf[2] = m_rPara.para.max_vel / 256;  //600
    1934:	80 91 5c 0a 	lds	r24, 0x0A5C
    1938:	90 91 5d 0a 	lds	r25, 0x0A5D
    193c:	90 93 ae 0a 	sts	0x0AAE, r25
				uart_tx_buf[3] = m_rPara.para.max_vel % 256;
    1940:	80 93 af 0a 	sts	0x0AAF, r24


				uart_tx_buf[4] = m_rPara.para.min_vel / 256;  //601
    1944:	80 91 5e 0a 	lds	r24, 0x0A5E
    1948:	90 91 5f 0a 	lds	r25, 0x0A5F
    194c:	90 93 b0 0a 	sts	0x0AB0, r25
				uart_tx_buf[5] = m_rPara.para.min_vel  % 256;
    1950:	80 93 b1 0a 	sts	0x0AB1, r24

				uart_tx_buf[6] = m_rPara.para.dw_level_pulse;	//620
    1954:	80 91 75 0a 	lds	r24, 0x0A75
    1958:	80 93 b2 0a 	sts	0x0AB2, r24
				
				uart_tx_buf[7] = m_rPara.para.rollin_delay;  //602
    195c:	80 91 61 0a 	lds	r24, 0x0A61
    1960:	19 c0       	rjmp	.+50     	; 0x1994 <uart_tx+0x248>

			}
			case 2:
			{

				uart_tx_buf[1] = ADDR_XSB_3;
    1962:	87 e0       	ldi	r24, 0x07	; 7
    1964:	80 93 ad 0a 	sts	0x0AAD, r24
				
				uart_tx_buf[2] = m_rPara.para.current1_modify;	 //615
    1968:	80 91 6f 0a 	lds	r24, 0x0A6F
    196c:	80 93 ae 0a 	sts	0x0AAE, r24
				uart_tx_buf[26] = m_rPara.para.addr_modbus;   //617   no use


				uart_tx_buf[27] = m_rPara.para.baud_modbus;   //618   no use
				*/
				uart_tx_buf[3] = m_rPara.para.mb_level_pulse;  //619  
    1970:	80 91 74 0a 	lds	r24, 0x0A74
    1974:	80 93 af 0a 	sts	0x0AAF, r24



				uart_tx_buf[4] = m_rPara.para.mb_div;	//621
    1978:	80 91 76 0a 	lds	r24, 0x0A76
    197c:	80 93 b0 0a 	sts	0x0AB0, r24

				uart_tx_buf[5] = m_rPara.para.current2_modify; //622
    1980:	80 91 77 0a 	lds	r24, 0x0A77
    1984:	80 93 b1 0a 	sts	0x0AB1, r24

				/*
				uart_tx_buf[6] = m_rPara.para.used_hours / 256;  //623	 no use
				uart_tx_buf[7] = m_rPara.para.used_hours  % 256;	
				*/
				uart_tx_buf[6] = m_rPara.para.mmotor_cur2;	//949
    1988:	80 91 7a 0a 	lds	r24, 0x0A7A
    198c:	80 93 b2 0a 	sts	0x0AB2, r24


				uart_tx_buf[7] = m_rPara.para.cur2_full;   //625	
    1990:	80 91 7b 0a 	lds	r24, 0x0A7B
    1994:	80 93 b3 0a 	sts	0x0AB3, r24
				uart_tx_buf[8] = m_rPara.para.material_full;
    1998:	80 91 62 0a 	lds	r24, 0x0A62
				uart_tx_buf[20] = m_rPara.para.all_stop_id; 		//612	no use
				*/

				uart_tx_buf[7] = m_rPara.para.material_start;	  //613
				
				uart_tx_buf[8] = m_rPara.para.material_stop;	//614
    199c:	80 93 b4 0a 	sts	0x0AB4, r24
				 break;
    19a0:	c2 c0       	rjmp	.+388    	; 0x1b26 <uart_tx+0x3da>

			}

			case 3: 
			{
				uart_tx_buf[1] = ADDR_XSB_4;
    19a2:	88 e0       	ldi	r24, 0x08	; 8
    19a4:	80 93 ad 0a 	sts	0x0AAD, r24
				
				uart_tx_buf[2] = m_rPara.para.w5500_net_para.ip_para.ip_addr[0];  //630
    19a8:	80 91 84 0a 	lds	r24, 0x0A84
    19ac:	80 93 ae 0a 	sts	0x0AAE, r24
				uart_tx_buf[3] = m_rPara.para.w5500_net_para.ip_para.ip_addr[1];  //631
    19b0:	80 91 85 0a 	lds	r24, 0x0A85
    19b4:	80 93 af 0a 	sts	0x0AAF, r24


				uart_tx_buf[4] = m_rPara.para.w5500_net_para.ip_para.ip_addr[2];  //632
    19b8:	80 91 86 0a 	lds	r24, 0x0A86
    19bc:	80 93 b0 0a 	sts	0x0AB0, r24
				uart_tx_buf[5] = m_rPara.para.w5500_net_para.ip_para.ip_addr[3];  //633
    19c0:	80 91 87 0a 	lds	r24, 0x0A87
    19c4:	80 93 b1 0a 	sts	0x0AB1, r24

				uart_tx_buf[6] = m_rPara.para.addr_modbus;	 //634
    19c8:	80 91 72 0a 	lds	r24, 0x0A72
    19cc:	80 93 b2 0a 	sts	0x0AB2, r24
				
				uart_tx_buf[7] = set_date;	//温度标价			
    19d0:	10 92 b3 0a 	sts	0x0AB3, r1


				//uart_tx_buf[8] = temp_data[1]; //	 no use
				uart_tx_buf[8] = m_rPara.para.all_stop_id;//	 635
    19d4:	80 91 6c 0a 	lds	r24, 0x0A6C
    19d8:	e1 cf       	rjmp	.-62     	; 0x199c <uart_tx+0x250>
			bit_led_up = bit_current_1st;
			bit_led_down = bit_current_2nd;
			bit_led_dl = bit_duliao;
			//
			*/
			if(1==bit_xieliao)
    19da:	80 91 ed 0a 	lds	r24, 0x0AED
    19de:	81 30       	cpi	r24, 0x01	; 1
    19e0:	39 f4       	brne	.+14     	; 0x19f0 <uart_tx+0x2a4>
			{
				m_vel=m_rPara.para.max_vel>>1;
    19e2:	20 91 5c 0a 	lds	r18, 0x0A5C
    19e6:	30 91 5d 0a 	lds	r19, 0x0A5D
    19ea:	36 95       	lsr	r19
    19ec:	27 95       	ror	r18
    19ee:	18 c0       	rjmp	.+48     	; 0x1a20 <uart_tx+0x2d4>
			}
			else if(0==bit_fmotor)
    19f0:	80 91 33 0b 	lds	r24, 0x0B33
    19f4:	88 23       	and	r24, r24
    19f6:	91 f0       	breq	.+36     	; 0x1a1c <uart_tx+0x2d0>
			{
				m_vel=0;
			}
			else if(1==bit_auto)
    19f8:	80 91 0d 0b 	lds	r24, 0x0B0D
    19fc:	81 30       	cpi	r24, 0x01	; 1
    19fe:	29 f4       	brne	.+10     	; 0x1a0a <uart_tx+0x2be>
			{
				m_vel=auto_vel;
    1a00:	20 91 5f 0b 	lds	r18, 0x0B5F
    1a04:	30 91 60 0b 	lds	r19, 0x0B60
    1a08:	0b c0       	rjmp	.+22     	; 0x1a20 <uart_tx+0x2d4>
			}
			else if(1==bit_manual)
    1a0a:	80 91 fe 0a 	lds	r24, 0x0AFE
    1a0e:	81 30       	cpi	r24, 0x01	; 1
    1a10:	29 f4       	brne	.+10     	; 0x1a1c <uart_tx+0x2d0>
			{
				m_vel=m_rPara.para.manual_vel;
    1a12:	20 91 68 0a 	lds	r18, 0x0A68
    1a16:	30 91 69 0a 	lds	r19, 0x0A69
    1a1a:	02 c0       	rjmp	.+4      	; 0x1a20 <uart_tx+0x2d4>
			{
				m_vel=m_rPara.para.max_vel>>1;
			}
			else if(0==bit_fmotor)
			{
				m_vel=0;
    1a1c:	20 e0       	ldi	r18, 0x00	; 0
    1a1e:	30 e0       	ldi	r19, 0x00	; 0
			uart_tx_buf[0] = 0xaa;

			if (xianshi_qiehua%2)
			{
			
				uart_tx_buf[1] = ADDR_XSB;
    1a20:	82 e0       	ldi	r24, 0x02	; 2
    1a22:	80 93 ad 0a 	sts	0x0AAD, r24

				if (bit_mmotor == 0)
    1a26:	80 91 43 0b 	lds	r24, 0x0B43
				m_vel=0;
			}	
			//
			uart_tx_buf[0] = 0xaa;

			if (xianshi_qiehua%2)
    1a2a:	c0 ff       	sbrs	r28, 0
    1a2c:	0e c0       	rjmp	.+28     	; 0x1a4a <uart_tx+0x2fe>
			{
			
				uart_tx_buf[1] = ADDR_XSB;

				if (bit_mmotor == 0)
    1a2e:	81 11       	cpse	r24, r1
    1a30:	05 c0       	rjmp	.+10     	; 0x1a3c <uart_tx+0x2f0>
				{
					uart_tx_buf[5] =0;
    1a32:	10 92 b1 0a 	sts	0x0AB1, r1
					uart_tx_buf[6] = 0;
    1a36:	10 92 b2 0a 	sts	0x0AB2, r1
    1a3a:	15 c0       	rjmp	.+42     	; 0x1a66 <uart_tx+0x31a>
				}
				else
				{
					uart_tx_buf[5] = m_cur_cal >> 8;
    1a3c:	80 91 62 0b 	lds	r24, 0x0B62
    1a40:	90 91 63 0b 	lds	r25, 0x0B63
    1a44:	90 93 b1 0a 	sts	0x0AB1, r25
    1a48:	08 c0       	rjmp	.+16     	; 0x1a5a <uart_tx+0x30e>

				}
#else
				uart_tx_buf[1] = ADDR_XSB;

				if (bit_mmotor == 0)
    1a4a:	88 23       	and	r24, r24
    1a4c:	91 f3       	breq	.-28     	; 0x1a32 <uart_tx+0x2e6>
					uart_tx_buf[5] =0;
					uart_tx_buf[6] = 0;
				}
				else
				{
					uart_tx_buf[5] = m_cur_cal >> 8;
    1a4e:	40 91 62 0b 	lds	r20, 0x0B62
    1a52:	50 91 63 0b 	lds	r21, 0x0B63
    1a56:	50 93 b1 0a 	sts	0x0AB1, r21
					uart_tx_buf[6] = m_cur_cal	& 0xff;
    1a5a:	40 91 62 0b 	lds	r20, 0x0B62
    1a5e:	50 91 63 0b 	lds	r21, 0x0B63
    1a62:	40 93 b2 0a 	sts	0x0AB2, r20
				}
												
#endif
			}

			uart_tx_buf[2] =	bit_mmotor << 7 |		//??
    1a66:	e0 91 43 0b 	lds	r30, 0x0B43
								bit_auto << 6 | 		//??
    1a6a:	a0 91 0d 0b 	lds	r26, 0x0B0D
								bit_manual << 5 |		//??
    1a6e:	60 91 fe 0a 	lds	r22, 0x0AFE
								bit_fmotor << 4 |		//???
    1a72:	40 91 33 0b 	lds	r20, 0x0B33
				}
												
#endif
			}

			uart_tx_buf[2] =	bit_mmotor << 7 |		//??
    1a76:	80 91 40 0b 	lds	r24, 0x0B40
    1a7a:	90 91 c0 0a 	lds	r25, 0x0AC0
    1a7e:	50 91 08 0b 	lds	r21, 0x0B08
    1a82:	88 0f       	add	r24, r24
    1a84:	88 0f       	add	r24, r24
    1a86:	99 0f       	add	r25, r25
    1a88:	89 2b       	or	r24, r25
    1a8a:	85 2b       	or	r24, r21
    1a8c:	90 91 69 08 	lds	r25, 0x0869
    1a90:	99 0f       	add	r25, r25
    1a92:	99 0f       	add	r25, r25
    1a94:	99 0f       	add	r25, r25
    1a96:	89 2b       	or	r24, r25
								bit_auto << 6 | 		//??
    1a98:	90 e4       	ldi	r25, 0x40	; 64
    1a9a:	a9 9f       	mul	r26, r25
    1a9c:	d0 01       	movw	r26, r0
    1a9e:	11 24       	eor	r1, r1
				}
												
#endif
			}

			uart_tx_buf[2] =	bit_mmotor << 7 |		//??
    1aa0:	90 e8       	ldi	r25, 0x80	; 128
    1aa2:	e9 9f       	mul	r30, r25
    1aa4:	f0 01       	movw	r30, r0
    1aa6:	11 24       	eor	r1, r1
    1aa8:	ea 2b       	or	r30, r26
								bit_auto << 6 | 		//??
								bit_manual << 5 |		//??
    1aaa:	90 e2       	ldi	r25, 0x20	; 32
    1aac:	69 9f       	mul	r22, r25
    1aae:	b0 01       	movw	r22, r0
    1ab0:	11 24       	eor	r1, r1
				}
												
#endif
			}

			uart_tx_buf[2] =	bit_mmotor << 7 |		//??
    1ab2:	e6 2b       	or	r30, r22
								bit_auto << 6 | 		//??
								bit_manual << 5 |		//??
								bit_fmotor << 4 |		//???
    1ab4:	90 e1       	ldi	r25, 0x10	; 16
    1ab6:	49 9f       	mul	r20, r25
    1ab8:	a0 01       	movw	r20, r0
    1aba:	11 24       	eor	r1, r1
				}
												
#endif
			}

			uart_tx_buf[2] =	bit_mmotor << 7 |		//??
    1abc:	e4 2b       	or	r30, r20
    1abe:	8e 2b       	or	r24, r30
    1ac0:	80 93 ae 0a 	sts	0x0AAE, r24


			

	//m_vel = 100;
			uart_tx_buf[3] = m_vel >> 8;
    1ac4:	30 93 af 0a 	sts	0x0AAF, r19
			uart_tx_buf[4] = m_vel	& 0xff;
    1ac8:	20 93 b0 0a 	sts	0x0AB0, r18

	//m_cur_cal = 88;


			m_material_value_temp = m_material_value>> 4;
    1acc:	20 91 09 0b 	lds	r18, 0x0B09
    1ad0:	30 91 0a 0b 	lds	r19, 0x0B0A
    1ad4:	64 e0       	ldi	r22, 0x04	; 4
    1ad6:	36 95       	lsr	r19
    1ad8:	27 95       	ror	r18
    1ada:	6a 95       	dec	r22
    1adc:	e1 f7       	brne	.-8      	; 0x1ad6 <uart_tx+0x38a>



			uart_tx_buf[7] = m_material_value_temp >> 8;
    1ade:	30 93 b3 0a 	sts	0x0AB3, r19
			uart_tx_buf[8] = m_material_value_temp &0xff;
    1ae2:	20 93 b4 0a 	sts	0x0AB4, r18

			//??

			//??

			if (bit_auto ==1)
    1ae6:	80 91 0d 0b 	lds	r24, 0x0B0D
    1aea:	81 30       	cpi	r24, 0x01	; 1
    1aec:	79 f4       	brne	.+30     	; 0x1b0c <uart_tx+0x3c0>
			{

				if (mb_is_invalid == 1 && auto_vel > 0)
    1aee:	80 91 51 0b 	lds	r24, 0x0B51
    1af2:	81 30       	cpi	r24, 0x01	; 1
    1af4:	59 f4       	brne	.+22     	; 0x1b0c <uart_tx+0x3c0>
    1af6:	20 91 5f 0b 	lds	r18, 0x0B5F
    1afa:	30 91 60 0b 	lds	r19, 0x0B60
    1afe:	23 2b       	or	r18, r19
    1b00:	29 f0       	breq	.+10     	; 0x1b0c <uart_tx+0x3c0>
				{
					uart_tx_buf[1] |= 1 << 6;
    1b02:	80 91 ad 0a 	lds	r24, 0x0AAD
    1b06:	80 64       	ori	r24, 0x40	; 64
    1b08:	80 93 ad 0a 	sts	0x0AAD, r24
				}
			}

			//??

			if (bit_manual ==1)
    1b0c:	80 91 fe 0a 	lds	r24, 0x0AFE
    1b10:	81 30       	cpi	r24, 0x01	; 1
    1b12:	49 f4       	brne	.+18     	; 0x1b26 <uart_tx+0x3da>
			{

				if (mb_is_invalid == 1)
    1b14:	80 91 51 0b 	lds	r24, 0x0B51
    1b18:	81 30       	cpi	r24, 0x01	; 1
    1b1a:	29 f4       	brne	.+10     	; 0x1b26 <uart_tx+0x3da>
				{
					uart_tx_buf[1] |= 1 << 7;
    1b1c:	80 91 ad 0a 	lds	r24, 0x0AAD
    1b20:	80 68       	ori	r24, 0x80	; 128
    1b22:	80 93 ad 0a 	sts	0x0AAD, r24

		}
			}

		}
		xianshi_qiehua ++;
    1b26:	cf 5f       	subi	r28, 0xFF	; 255
    1b28:	c0 93 0a 08 	sts	0x080A, r28



		uart_tx_buf[9] = 0;
    1b2c:	10 92 b5 0a 	sts	0x0AB5, r1
    1b30:	ec ea       	ldi	r30, 0xAC	; 172
    1b32:	fa e0       	ldi	r31, 0x0A	; 10
		for(i=0; i<9; i++)
		{
			uart_tx_buf[9] += uart_tx_buf[i];//sum
    1b34:	81 91       	ld	r24, Z+
    1b36:	90 91 b5 0a 	lds	r25, 0x0AB5
    1b3a:	89 0f       	add	r24, r25
    1b3c:	80 93 b5 0a 	sts	0x0AB5, r24
		xianshi_qiehua ++;



		uart_tx_buf[9] = 0;
		for(i=0; i<9; i++)
    1b40:	8a e0       	ldi	r24, 0x0A	; 10
    1b42:	e5 3b       	cpi	r30, 0xB5	; 181
    1b44:	f8 07       	cpc	r31, r24
    1b46:	b1 f7       	brne	.-20     	; 0x1b34 <uart_tx+0x3e8>
		{
			uart_tx_buf[9] += uart_tx_buf[i];//sum
		}
		
		b485en = 1;//????
    1b48:	29 9a       	sbi	0x05, 1	; 5
    1b4a:	95 e8       	ldi	r25, 0x85	; 133
    1b4c:	9a 95       	dec	r25
    1b4e:	f1 f7       	brne	.-4      	; 0x1b4c <uart_tx+0x400>
    1b50:	00 00       	nop
		delay_us(100);
		UDR0 = uart_tx_buf[0];
    1b52:	80 91 ac 0a 	lds	r24, 0x0AAC
    1b56:	80 93 c6 00 	sts	0x00C6, r24
		uart_tx_addr = 1;
    1b5a:	81 e0       	ldi	r24, 0x01	; 1
    1b5c:	80 93 c3 0a 	sts	0x0AC3, r24
	send_ulong_ascii(uart_tx_buf[i] ,TRUE);
		}
		}
*/

}
    1b60:	cf 91       	pop	r28
    1b62:	08 95       	ret

00001b64 <material_2_vel>:

/////////////////////////////////////////////////////////////////
signed char liaowei_PID_I =0;

void material_2_vel(unsigned short m)
{
    1b64:	8f 92       	push	r8
    1b66:	9f 92       	push	r9
    1b68:	af 92       	push	r10
    1b6a:	bf 92       	push	r11
    1b6c:	cf 92       	push	r12
    1b6e:	df 92       	push	r13
    1b70:	ef 92       	push	r14
    1b72:	ff 92       	push	r15
    1b74:	0f 93       	push	r16
    1b76:	1f 93       	push	r17
    1b78:	cf 93       	push	r28
    1b7a:	df 93       	push	r29
	UCHAR4 m_temp;
	UCHAR4 m_temp_qiwang;
	UCHAR4 m_temp_current;
	signed short auto_vel_temp = 0;
    signed short auto_vel_value = 0;
	m_temp.ml = m;
    1b7c:	4c 01       	movw	r8, r24
    1b7e:	a1 2c       	mov	r10, r1
    1b80:	b1 2c       	mov	r11, r1
    1b82:	a5 01       	movw	r20, r10
    1b84:	94 01       	movw	r18, r8
	if(m_temp.ms[0] > m_material_stop_modify)//12890
    1b86:	60 91 e3 0a 	lds	r22, 0x0AE3
    1b8a:	70 91 e4 0a 	lds	r23, 0x0AE4
    1b8e:	68 17       	cp	r22, r24
    1b90:	79 07       	cpc	r23, r25
    1b92:	08 f0       	brcs	.+2      	; 0x1b96 <material_2_vel+0x32>
    1b94:	d0 c0       	rjmp	.+416    	; 0x1d36 <material_2_vel+0x1d2>
	{
		if(m_temp.ms[0] > 0x325a)
    1b96:	8b 35       	cpi	r24, 0x5B	; 91
    1b98:	62 e3       	ldi	r22, 0x32	; 50
    1b9a:	96 07       	cpc	r25, r22
    1b9c:	20 f0       	brcs	.+8      	; 0x1ba6 <material_2_vel+0x42>
		{
			m_temp.ms[0] -= 0x325a;
    1b9e:	9c 01       	movw	r18, r24
    1ba0:	2a 55       	subi	r18, 0x5A	; 90
    1ba2:	32 43       	sbci	r19, 0x32	; 50
    1ba4:	02 c0       	rjmp	.+4      	; 0x1baa <material_2_vel+0x46>
		}
		else
		{
			m_temp.ms[0] = 1;
    1ba6:	21 e0       	ldi	r18, 0x01	; 1
    1ba8:	30 e0       	ldi	r19, 0x00	; 0
		}
		//料位传感器满量程输出参数的应用
		m_temp.ml *= 100;
    1baa:	a4 e6       	ldi	r26, 0x64	; 100
    1bac:	b0 e0       	ldi	r27, 0x00	; 0
    1bae:	0e 94 81 37 	call	0x6f02	; 0x6f02 <__muluhisi3>
		m_temp.ml /= m_rPara.para.material_full;
    1bb2:	20 91 62 0a 	lds	r18, 0x0A62
    1bb6:	30 e0       	ldi	r19, 0x00	; 0
    1bb8:	40 e0       	ldi	r20, 0x00	; 0
    1bba:	50 e0       	ldi	r21, 0x00	; 0
    1bbc:	0e 94 4a 37 	call	0x6e94	; 0x6e94 <__udivmodsi4>
		//
		m_material = m_temp.ms[0];//用于判断在自动运行状态下是否需要改变运行动作
    1bc0:	30 93 fd 0a 	sts	0x0AFD, r19
    1bc4:	20 93 fc 0a 	sts	0x0AFC, r18
		//
		m_temp.ml *= m_rPara.para.max_vel-m_rPara.para.min_vel;
    1bc8:	c0 91 5e 0a 	lds	r28, 0x0A5E
    1bcc:	d0 91 5f 0a 	lds	r29, 0x0A5F
    1bd0:	00 91 5c 0a 	lds	r16, 0x0A5C
    1bd4:	10 91 5d 0a 	lds	r17, 0x0A5D
    1bd8:	d8 01       	movw	r26, r16
    1bda:	ac 1b       	sub	r26, r28
    1bdc:	bd 0b       	sbc	r27, r29
    1bde:	0e 94 81 37 	call	0x6f02	; 0x6f02 <__muluhisi3>
		auto_vel = m_temp.ml/51550;
    1be2:	2e e5       	ldi	r18, 0x5E	; 94
    1be4:	39 ec       	ldi	r19, 0xC9	; 201
    1be6:	40 e0       	ldi	r20, 0x00	; 0
    1be8:	50 e0       	ldi	r21, 0x00	; 0
    1bea:	0e 94 4a 37 	call	0x6e94	; 0x6e94 <__udivmodsi4>
    1bee:	30 93 60 0b 	sts	0x0B60, r19
    1bf2:	20 93 5f 0b 	sts	0x0B5F, r18
		//
		if(auto_vel < 5)
    1bf6:	80 91 5f 0b 	lds	r24, 0x0B5F
    1bfa:	90 91 60 0b 	lds	r25, 0x0B60
    1bfe:	05 97       	sbiw	r24, 0x05	; 5
    1c00:	80 f4       	brcc	.+32     	; 0x1c22 <material_2_vel+0xbe>
		{
			bit_l_mtl = 1;//低位灯亮
    1c02:	81 e0       	ldi	r24, 0x01	; 1
    1c04:	80 93 32 0b 	sts	0x0B32, r24
			bit_h_mtl = 0;
    1c08:	10 92 07 0b 	sts	0x0B07, r1
			if(auto_vel < 1)
    1c0c:	80 91 5f 0b 	lds	r24, 0x0B5F
    1c10:	90 91 60 0b 	lds	r25, 0x0B60
    1c14:	89 2b       	or	r24, r25
    1c16:	39 f4       	brne	.+14     	; 0x1c26 <material_2_vel+0xc2>
			{
				m_material = 0;//如果正在运行就应该停机(自动)
    1c18:	10 92 fd 0a 	sts	0x0AFD, r1
    1c1c:	10 92 fc 0a 	sts	0x0AFC, r1
    1c20:	02 c0       	rjmp	.+4      	; 0x1c26 <material_2_vel+0xc2>
			}
		}
		else
		{
			bit_l_mtl = 0;
    1c22:	10 92 32 0b 	sts	0x0B32, r1
		}
		//
		auto_vel += m_rPara.para.min_vel;//
    1c26:	80 91 5f 0b 	lds	r24, 0x0B5F
    1c2a:	90 91 60 0b 	lds	r25, 0x0B60
    1c2e:	8c 0f       	add	r24, r28
    1c30:	9d 1f       	adc	r25, r29
    1c32:	90 93 60 0b 	sts	0x0B60, r25
    1c36:	80 93 5f 0b 	sts	0x0B5F, r24



		//之前的逻辑不变增加PID逻辑处理

		if( m_rPara.para.set_model ==1)
    1c3a:	80 91 9a 0a 	lds	r24, 0x0A9A
    1c3e:	81 30       	cpi	r24, 0x01	; 1
    1c40:	09 f0       	breq	.+2      	; 0x1c44 <material_2_vel+0xe0>
    1c42:	69 c0       	rjmp	.+210    	; 0x1d16 <material_2_vel+0x1b2>
		{
			
			m_temp_current.ml = m;
		    m_temp_qiwang.ml = m_rPara.para.set_qiwang_value*10  ;//0 ~200
    1c44:	c0 90 9c 0a 	lds	r12, 0x0A9C
    1c48:	8a e0       	ldi	r24, 0x0A	; 10
    1c4a:	c8 9e       	mul	r12, r24
    1c4c:	60 01       	movw	r12, r0
    1c4e:	11 24       	eor	r1, r1
    1c50:	ee 24       	eor	r14, r14
    1c52:	d7 fc       	sbrc	r13, 7
    1c54:	e0 94       	com	r14
    1c56:	fe 2c       	mov	r15, r14
			m_temp_current.ml  = (m_temp_current.ml >>6 )/5;//0 ~1024
    1c58:	c5 01       	movw	r24, r10
    1c5a:	b4 01       	movw	r22, r8
    1c5c:	f6 e0       	ldi	r31, 0x06	; 6
    1c5e:	96 95       	lsr	r25
    1c60:	87 95       	ror	r24
    1c62:	77 95       	ror	r23
    1c64:	67 95       	ror	r22
    1c66:	fa 95       	dec	r31
    1c68:	d1 f7       	brne	.-12     	; 0x1c5e <material_2_vel+0xfa>
    1c6a:	25 e0       	ldi	r18, 0x05	; 5
    1c6c:	30 e0       	ldi	r19, 0x00	; 0
    1c6e:	40 e0       	ldi	r20, 0x00	; 0
    1c70:	50 e0       	ldi	r21, 0x00	; 0
    1c72:	0e 94 4a 37 	call	0x6e94	; 0x6e94 <__udivmodsi4>
    1c76:	80 91 08 08 	lds	r24, 0x0808

			//积分限制幅度
			if (m_temp_qiwang.ml < m_temp_current.ml)
    1c7a:	c2 16       	cp	r12, r18
    1c7c:	d3 06       	cpc	r13, r19
    1c7e:	e4 06       	cpc	r14, r20
    1c80:	f5 06       	cpc	r15, r21
    1c82:	30 f4       	brcc	.+12     	; 0x1c90 <material_2_vel+0x12c>
			{
				liaowei_PID_I = liaowei_PID_I + 1;
    1c84:	8f 5f       	subi	r24, 0xFF	; 255
				if (liaowei_PID_I >  (signed char )20 )
    1c86:	85 31       	cpi	r24, 0x15	; 21
    1c88:	0c f4       	brge	.+2      	; 0x1c8c <material_2_vel+0x128>
    1c8a:	63 c0       	rjmp	.+198    	; 0x1d52 <material_2_vel+0x1ee>
				{
					liaowei_PID_I = 20;
    1c8c:	84 e1       	ldi	r24, 0x14	; 20
    1c8e:	61 c0       	rjmp	.+194    	; 0x1d52 <material_2_vel+0x1ee>
				}
			}
			else
			{
				liaowei_PID_I = liaowei_PID_I - 1;
    1c90:	81 50       	subi	r24, 0x01	; 1
				if (liaowei_PID_I <  (signed char )-20 )
    1c92:	8c 3e       	cpi	r24, 0xEC	; 236
    1c94:	0c f4       	brge	.+2      	; 0x1c98 <material_2_vel+0x134>
				{
					liaowei_PID_I = -20;
    1c96:	8c ee       	ldi	r24, 0xEC	; 236
    1c98:	80 93 08 08 	sts	0x0808, r24
				}
			}
			//比例控制
			if ( m_temp_current.ml - m_temp_qiwang.ml >0)
    1c9c:	2c 15       	cp	r18, r12
    1c9e:	3d 05       	cpc	r19, r13
    1ca0:	4e 05       	cpc	r20, r14
    1ca2:	5f 05       	cpc	r21, r15
    1ca4:	b9 f0       	breq	.+46     	; 0x1cd4 <material_2_vel+0x170>
			{
				auto_vel_temp =  ( m_temp_current.ml - m_temp_qiwang.ml) * m_rPara.para.set_wuliao_PID_P;
    1ca6:	da 01       	movw	r26, r20
    1ca8:	c9 01       	movw	r24, r18
    1caa:	8c 19       	sub	r24, r12
    1cac:	9d 09       	sbc	r25, r13
    1cae:	ae 09       	sbc	r26, r14
    1cb0:	bf 09       	sbc	r27, r15
    1cb2:	6c 01       	movw	r12, r24
    1cb4:	7d 01       	movw	r14, r26
    1cb6:	60 91 9b 0a 	lds	r22, 0x0A9B
    1cba:	70 e0       	ldi	r23, 0x00	; 0
    1cbc:	6c 9d       	mul	r22, r12
    1cbe:	c0 01       	movw	r24, r0
    1cc0:	6d 9d       	mul	r22, r13
    1cc2:	90 0d       	add	r25, r0
    1cc4:	7c 9d       	mul	r23, r12
    1cc6:	90 0d       	add	r25, r0
    1cc8:	11 24       	eor	r1, r1
				auto_vel_temp =  auto_vel_temp/10;
    1cca:	6a e0       	ldi	r22, 0x0A	; 10
    1ccc:	70 e0       	ldi	r23, 0x00	; 0
    1cce:	0e 94 36 37 	call	0x6e6c	; 0x6e6c <__divmodhi4>
    1cd2:	02 c0       	rjmp	.+4      	; 0x1cd8 <material_2_vel+0x174>
			}else
			{
				auto_vel_temp =	(m_temp_qiwang.ml - m_temp_current.ml) * m_rPara.para.set_wuliao_PID_P;
				auto_vel_temp = - (auto_vel_temp/10);
    1cd4:	60 e0       	ldi	r22, 0x00	; 0
    1cd6:	70 e0       	ldi	r23, 0x00	; 0

			}
		
			auto_vel_value =m_rPara.para.set_default_zhuansu;
    1cd8:	80 91 99 0a 	lds	r24, 0x0A99
			// auto_vel_temp=0;
			auto_vel_value +=auto_vel_temp +(signed short) liaowei_PID_I;
    1cdc:	90 91 08 08 	lds	r25, 0x0808
    1ce0:	69 0f       	add	r22, r25
    1ce2:	71 1d       	adc	r23, r1
    1ce4:	97 fd       	sbrc	r25, 7
    1ce6:	7a 95       	dec	r23
    1ce8:	68 0f       	add	r22, r24
    1cea:	71 1d       	adc	r23, r1

			if(auto_vel_value <= (signed short)m_rPara.para.min_vel)
    1cec:	c6 17       	cp	r28, r22
    1cee:	d7 07       	cpc	r29, r23
    1cf0:	34 f0       	brlt	.+12     	; 0x1cfe <material_2_vel+0x19a>
			{
				auto_vel = m_rPara.para.min_vel + 1;
    1cf2:	21 96       	adiw	r28, 0x01	; 1
    1cf4:	d0 93 60 0b 	sts	0x0B60, r29
    1cf8:	c0 93 5f 0b 	sts	0x0B5F, r28
    1cfc:	0c c0       	rjmp	.+24     	; 0x1d16 <material_2_vel+0x1b2>
				//auto_vel =30;

			}else if(auto_vel_value >  (signed short)m_rPara.para.max_vel)
    1cfe:	06 17       	cp	r16, r22
    1d00:	17 07       	cpc	r17, r23
    1d02:	2c f4       	brge	.+10     	; 0x1d0e <material_2_vel+0x1aa>
			{
				auto_vel = m_rPara.para.max_vel;
    1d04:	10 93 60 0b 	sts	0x0B60, r17
    1d08:	00 93 5f 0b 	sts	0x0B5F, r16
    1d0c:	04 c0       	rjmp	.+8      	; 0x1d16 <material_2_vel+0x1b2>
				//auto_vel =180;
			}
			else
			{	
				//实际的PID控制
				auto_vel = auto_vel_value;
    1d0e:	70 93 60 0b 	sts	0x0B60, r23
    1d12:	60 93 5f 0b 	sts	0x0B5F, r22
		//
		//判断是否需要亮高位灯
		//为高料位比较
		//比较值设定为4.6v
		//12890*3.6=46404
		if(m_material > 46404)
    1d16:	80 91 fc 0a 	lds	r24, 0x0AFC
    1d1a:	90 91 fd 0a 	lds	r25, 0x0AFD
    1d1e:	85 34       	cpi	r24, 0x45	; 69
    1d20:	95 4b       	sbci	r25, 0xB5	; 181
    1d22:	30 f0       	brcs	.+12     	; 0x1d30 <material_2_vel+0x1cc>
		{
			bit_h_mtl = 1;
    1d24:	81 e0       	ldi	r24, 0x01	; 1
    1d26:	80 93 07 0b 	sts	0x0B07, r24
			bit_l_mtl = 0;
    1d2a:	10 92 32 0b 	sts	0x0B32, r1
    1d2e:	14 c0       	rjmp	.+40     	; 0x1d58 <material_2_vel+0x1f4>
		}
		else
		{
			bit_h_mtl = 0;
    1d30:	10 92 07 0b 	sts	0x0B07, r1
    1d34:	11 c0       	rjmp	.+34     	; 0x1d58 <material_2_vel+0x1f4>
		}
	}
	else
	{
		m_material = 0;//如果正在运行就应该停机(自动)
    1d36:	10 92 fd 0a 	sts	0x0AFD, r1
    1d3a:	10 92 fc 0a 	sts	0x0AFC, r1
		bit_l_mtl = 1;
    1d3e:	81 e0       	ldi	r24, 0x01	; 1
    1d40:	80 93 32 0b 	sts	0x0B32, r24
		bit_h_mtl = 0;
    1d44:	10 92 07 0b 	sts	0x0B07, r1
		auto_vel =0;
    1d48:	10 92 60 0b 	sts	0x0B60, r1
    1d4c:	10 92 5f 0b 	sts	0x0B5F, r1
    1d50:	03 c0       	rjmp	.+6      	; 0x1d58 <material_2_vel+0x1f4>
			m_temp_current.ml  = (m_temp_current.ml >>6 )/5;//0 ~1024

			//积分限制幅度
			if (m_temp_qiwang.ml < m_temp_current.ml)
			{
				liaowei_PID_I = liaowei_PID_I + 1;
    1d52:	80 93 08 08 	sts	0x0808, r24
    1d56:	a7 cf       	rjmp	.-178    	; 0x1ca6 <material_2_vel+0x142>
		m_material = 0;//如果正在运行就应该停机(自动)
		bit_l_mtl = 1;
		bit_h_mtl = 0;
		auto_vel =0;
	}
}
    1d58:	df 91       	pop	r29
    1d5a:	cf 91       	pop	r28
    1d5c:	1f 91       	pop	r17
    1d5e:	0f 91       	pop	r16
    1d60:	ff 90       	pop	r15
    1d62:	ef 90       	pop	r14
    1d64:	df 90       	pop	r13
    1d66:	cf 90       	pop	r12
    1d68:	bf 90       	pop	r11
    1d6a:	af 90       	pop	r10
    1d6c:	9f 90       	pop	r9
    1d6e:	8f 90       	pop	r8
    1d70:	08 95       	ret

00001d72 <eeprom_read_byte_2>:
	
	/////////////////////////////////
}
////////////////////////////////////////////////////////////////
uint8_t eeprom_read_byte_2(const uint8_t *p)
{
    1d72:	cf 93       	push	r28
	unsigned char tmp;
	unsigned char m_sreg=SREG;
    1d74:	cf b7       	in	r28, 0x3f	; 63
	cli();
    1d76:	f8 94       	cli
	eeprom_busy_wait();
    1d78:	f9 99       	sbic	0x1f, 1	; 31
    1d7a:	fe cf       	rjmp	.-4      	; 0x1d78 <eeprom_read_byte_2+0x6>
	tmp = eeprom_read_byte((uint8_t *)p);
    1d7c:	0e 94 95 37 	call	0x6f2a	; 0x6f2a <__eerd_byte_m644pa>
	eeprom_busy_wait();
    1d80:	f9 99       	sbic	0x1f, 1	; 31
    1d82:	fe cf       	rjmp	.-4      	; 0x1d80 <eeprom_read_byte_2+0xe>
	SREG = m_sreg;
    1d84:	cf bf       	out	0x3f, r28	; 63
	//
	return tmp;
}
    1d86:	cf 91       	pop	r28
    1d88:	08 95       	ret

00001d8a <eeprom_write_byte_2>:
////////////////////////////////////////////////////////////////
void eeprom_write_byte_2(const uint8_t *p,unsigned char val)
{
    1d8a:	cf 93       	push	r28
	unsigned char m_sreg=SREG;
    1d8c:	cf b7       	in	r28, 0x3f	; 63
	cli();
    1d8e:	f8 94       	cli
	eeprom_busy_wait();
    1d90:	f9 99       	sbic	0x1f, 1	; 31
    1d92:	fe cf       	rjmp	.-4      	; 0x1d90 <eeprom_write_byte_2+0x6>
	eeprom_write_byte((uint8_t *)p,val);
    1d94:	0e 94 a3 37 	call	0x6f46	; 0x6f46 <__eewr_byte_m644pa>
	eeprom_busy_wait();
    1d98:	f9 99       	sbic	0x1f, 1	; 31
    1d9a:	fe cf       	rjmp	.-4      	; 0x1d98 <eeprom_write_byte_2+0xe>
	SREG = m_sreg;
    1d9c:	cf bf       	out	0x3f, r28	; 63
}
    1d9e:	cf 91       	pop	r28
    1da0:	08 95       	ret

00001da2 <eeprom_read_word_2>:
////////////////////////////////////////////////////////////////
unsigned short eeprom_read_word_2(const uint16_t *p)
{
    1da2:	cf 93       	push	r28
	unsigned short tmp;
	//
	unsigned char m_sreg=SREG;
    1da4:	cf b7       	in	r28, 0x3f	; 63
	cli();
    1da6:	f8 94       	cli
	eeprom_busy_wait();
    1da8:	f9 99       	sbic	0x1f, 1	; 31
    1daa:	fe cf       	rjmp	.-4      	; 0x1da8 <eeprom_read_word_2+0x6>
	tmp = eeprom_read_word((uint16_t *)p);
    1dac:	0e 94 9d 37 	call	0x6f3a	; 0x6f3a <__eerd_word_m644pa>
	eeprom_busy_wait();
    1db0:	f9 99       	sbic	0x1f, 1	; 31
    1db2:	fe cf       	rjmp	.-4      	; 0x1db0 <eeprom_read_word_2+0xe>
	SREG = m_sreg;
    1db4:	cf bf       	out	0x3f, r28	; 63
	//
	return tmp;
}
    1db6:	cf 91       	pop	r28
    1db8:	08 95       	ret

00001dba <eeprom_write_word_2>:
////////////////////////////////////////////////////////////////
void eeprom_write_word_2(const uint16_t *p,unsigned short val)
{
    1dba:	cf 93       	push	r28
	unsigned char m_sreg=SREG;
    1dbc:	cf b7       	in	r28, 0x3f	; 63
	cli();
    1dbe:	f8 94       	cli
	eeprom_busy_wait();
    1dc0:	f9 99       	sbic	0x1f, 1	; 31
    1dc2:	fe cf       	rjmp	.-4      	; 0x1dc0 <eeprom_write_word_2+0x6>
	eeprom_write_word((uint16_t *)p,val);
    1dc4:	0e 94 b1 37 	call	0x6f62	; 0x6f62 <__eewr_word_m644pa>
	eeprom_busy_wait();
    1dc8:	f9 99       	sbic	0x1f, 1	; 31
    1dca:	fe cf       	rjmp	.-4      	; 0x1dc8 <eeprom_write_word_2+0xe>
	SREG = m_sreg;
    1dcc:	cf bf       	out	0x3f, r28	; 63
}
    1dce:	cf 91       	pop	r28
    1dd0:	08 95       	ret

00001dd2 <eeprom_read_byte_user>:
////////////////////////////////////////////////////////////////
unsigned char eeprom_read_byte_user(const uint8_t *p1)
{
    1dd2:	5f 92       	push	r5
    1dd4:	6f 92       	push	r6
    1dd6:	7f 92       	push	r7
    1dd8:	8f 92       	push	r8
    1dda:	9f 92       	push	r9
    1ddc:	af 92       	push	r10
    1dde:	bf 92       	push	r11
    1de0:	cf 92       	push	r12
    1de2:	df 92       	push	r13
    1de4:	ef 92       	push	r14
    1de6:	ff 92       	push	r15
    1de8:	0f 93       	push	r16
    1dea:	1f 93       	push	r17
    1dec:	cf 93       	push	r28
    1dee:	df 93       	push	r29
    1df0:	ec 01       	movw	r28, r24
	unsigned char tmp,tmp1,tmp2,tmp3,tmp4,tmp5;
	//
	tmp = 0xff;
	//
	const uint8_t *p2 = (const uint8_t *)(p1+EEPROM_DATA_BYTE_SIZE);
    1df2:	7c 01       	movw	r14, r24
    1df4:	80 e5       	ldi	r24, 0x50	; 80
    1df6:	e8 0e       	add	r14, r24
    1df8:	f1 1c       	adc	r15, r1
	const uint8_t *p3 = (const uint8_t *)(p1+2*EEPROM_DATA_BYTE_SIZE);
    1dfa:	5e 01       	movw	r10, r28
    1dfc:	80 ea       	ldi	r24, 0xA0	; 160
    1dfe:	a8 0e       	add	r10, r24
    1e00:	b1 1c       	adc	r11, r1
	const uint8_t *p4 = (const uint8_t *)(p1+3*EEPROM_DATA_BYTE_SIZE);
    1e02:	8e 01       	movw	r16, r28
    1e04:	00 51       	subi	r16, 0x10	; 16
    1e06:	1f 4f       	sbci	r17, 0xFF	; 255
	const uint8_t *p5 = (const uint8_t *)(p1+4*EEPROM_DATA_BYTE_SIZE);
    1e08:	6e 01       	movw	r12, r28
    1e0a:	80 ec       	ldi	r24, 0xC0	; 192
    1e0c:	c8 1a       	sub	r12, r24
    1e0e:	8e ef       	ldi	r24, 0xFE	; 254
    1e10:	d8 0a       	sbc	r13, r24
	//
	tmp1 = eeprom_read_byte_2(p1);
    1e12:	ce 01       	movw	r24, r28
    1e14:	0e 94 b9 0e 	call	0x1d72	; 0x1d72 <eeprom_read_byte_2>
    1e18:	98 2e       	mov	r9, r24
	tmp2 = eeprom_read_byte_2(p2);
    1e1a:	c7 01       	movw	r24, r14
    1e1c:	0e 94 b9 0e 	call	0x1d72	; 0x1d72 <eeprom_read_byte_2>
    1e20:	88 2e       	mov	r8, r24
	tmp3 = eeprom_read_byte_2(p3);
    1e22:	c5 01       	movw	r24, r10
    1e24:	0e 94 b9 0e 	call	0x1d72	; 0x1d72 <eeprom_read_byte_2>
    1e28:	78 2e       	mov	r7, r24
	tmp4 = eeprom_read_byte_2(p4);
    1e2a:	c8 01       	movw	r24, r16
    1e2c:	0e 94 b9 0e 	call	0x1d72	; 0x1d72 <eeprom_read_byte_2>
    1e30:	58 2e       	mov	r5, r24
	tmp5 = eeprom_read_byte_2(p5);
    1e32:	c6 01       	movw	r24, r12
    1e34:	0e 94 b9 0e 	call	0x1d72	; 0x1d72 <eeprom_read_byte_2>
    1e38:	68 2e       	mov	r6, r24
	//
	if((tmp1==tmp2) && (tmp1==tmp3)) //123
    1e3a:	98 10       	cpse	r9, r8
    1e3c:	17 c0       	rjmp	.+46     	; 0x1e6c <eeprom_read_byte_user+0x9a>
    1e3e:	97 10       	cpse	r9, r7
    1e40:	05 c0       	rjmp	.+10     	; 0x1e4c <eeprom_read_byte_user+0x7a>
	{
		tmp = tmp1;
		if(tmp != tmp4)
    1e42:	95 14       	cp	r9, r5
    1e44:	d9 f0       	breq	.+54     	; 0x1e7c <eeprom_read_byte_user+0xaa>
		{
			eeprom_write_byte_2(p4,tmp);
    1e46:	69 2d       	mov	r22, r9
    1e48:	c8 01       	movw	r24, r16
    1e4a:	16 c0       	rjmp	.+44     	; 0x1e78 <eeprom_read_byte_user+0xa6>
		if(tmp != tmp5)
		{
			eeprom_write_byte_2(p5,tmp);
		}
	}
	else if((tmp1==tmp2) && (tmp1==tmp4)) //124
    1e4c:	95 10       	cpse	r9, r5
    1e4e:	03 c0       	rjmp	.+6      	; 0x1e56 <eeprom_read_byte_user+0x84>
	{
		tmp = tmp1;
		if(tmp != tmp3)
		{
			eeprom_write_byte_2(p3,tmp);
    1e50:	69 2d       	mov	r22, r9
    1e52:	c5 01       	movw	r24, r10
    1e54:	11 c0       	rjmp	.+34     	; 0x1e78 <eeprom_read_byte_user+0xa6>
		if(tmp != tmp5)
		{
			eeprom_write_byte_2(p5,tmp);
		}
	}
	else if((tmp1==tmp2) && (tmp1==tmp5)) //125
    1e56:	98 12       	cpse	r9, r24
    1e58:	2a c0       	rjmp	.+84     	; 0x1eae <eeprom_read_byte_user+0xdc>
	{
		tmp = tmp1;
		if(tmp != tmp3)
		{
			eeprom_write_byte_2(p3,tmp);
    1e5a:	69 2d       	mov	r22, r9
    1e5c:	c5 01       	movw	r24, r10
    1e5e:	0e 94 c5 0e 	call	0x1d8a	; 0x1d8a <eeprom_write_byte_2>
		}
		//
		if(tmp != tmp4)
		{
			eeprom_write_byte_2(p4,tmp);
    1e62:	69 2d       	mov	r22, r9
    1e64:	c8 01       	movw	r24, r16
    1e66:	0e 94 c5 0e 	call	0x1d8a	; 0x1d8a <eeprom_write_byte_2>
    1e6a:	61 c0       	rjmp	.+194    	; 0x1f2e <eeprom_read_byte_user+0x15c>
		}
	}
	else if((tmp1==tmp3) && (tmp1==tmp4)) //134
    1e6c:	97 10       	cpse	r9, r7
    1e6e:	11 c0       	rjmp	.+34     	; 0x1e92 <eeprom_read_byte_user+0xc0>
    1e70:	95 10       	cpse	r9, r5
    1e72:	0a c0       	rjmp	.+20     	; 0x1e88 <eeprom_read_byte_user+0xb6>
	{
		tmp = tmp1;
		if(tmp != tmp2)
		{
			eeprom_write_byte_2(p2,tmp);
    1e74:	69 2d       	mov	r22, r9
    1e76:	c7 01       	movw	r24, r14
    1e78:	0e 94 c5 0e 	call	0x1d8a	; 0x1d8a <eeprom_write_byte_2>
		}
		//
		if(tmp != tmp5)
    1e7c:	96 14       	cp	r9, r6
    1e7e:	09 f4       	brne	.+2      	; 0x1e82 <eeprom_read_byte_user+0xb0>
    1e80:	56 c0       	rjmp	.+172    	; 0x1f2e <eeprom_read_byte_user+0x15c>
		{
			eeprom_write_byte_2(p5,tmp);
    1e82:	69 2d       	mov	r22, r9
    1e84:	c6 01       	movw	r24, r12
    1e86:	ef cf       	rjmp	.-34     	; 0x1e66 <eeprom_read_byte_user+0x94>
		}
	}
	else if((tmp1==tmp3) && (tmp1==tmp5)) //135
    1e88:	98 12       	cpse	r9, r24
    1e8a:	29 c0       	rjmp	.+82     	; 0x1ede <eeprom_read_byte_user+0x10c>
	{
		tmp = tmp1;
		if(tmp != tmp2)
		{
			eeprom_write_byte_2(p2,tmp);
    1e8c:	69 2d       	mov	r22, r9
    1e8e:	c7 01       	movw	r24, r14
    1e90:	e6 cf       	rjmp	.-52     	; 0x1e5e <eeprom_read_byte_user+0x8c>
		if(tmp != tmp4)
		{
			eeprom_write_byte_2(p4,tmp);
		}
	}
	else if((tmp1==tmp4) && (tmp1==tmp5)) //145
    1e92:	95 10       	cpse	r9, r5
    1e94:	0c c0       	rjmp	.+24     	; 0x1eae <eeprom_read_byte_user+0xdc>
    1e96:	98 12       	cpse	r9, r24
    1e98:	0a c0       	rjmp	.+20     	; 0x1eae <eeprom_read_byte_user+0xdc>
	{
		tmp = tmp1;
		if(tmp != tmp3)
		{
			eeprom_write_byte_2(p3,tmp);
    1e9a:	69 2d       	mov	r22, r9
    1e9c:	c5 01       	movw	r24, r10
    1e9e:	0e 94 c5 0e 	call	0x1d8a	; 0x1d8a <eeprom_write_byte_2>
		}
		//
		if(tmp != tmp2)
    1ea2:	98 14       	cp	r9, r8
    1ea4:	09 f4       	brne	.+2      	; 0x1ea8 <eeprom_read_byte_user+0xd6>
    1ea6:	43 c0       	rjmp	.+134    	; 0x1f2e <eeprom_read_byte_user+0x15c>
		{
			eeprom_write_byte_2(p2,tmp);
    1ea8:	69 2d       	mov	r22, r9
    1eaa:	c7 01       	movw	r24, r14
    1eac:	dc cf       	rjmp	.-72     	; 0x1e66 <eeprom_read_byte_user+0x94>
		}
	}
	else if((tmp2==tmp3) && (tmp2==tmp4)) //234
    1eae:	87 10       	cpse	r8, r7
    1eb0:	16 c0       	rjmp	.+44     	; 0x1ede <eeprom_read_byte_user+0x10c>
    1eb2:	85 10       	cpse	r8, r5
    1eb4:	0b c0       	rjmp	.+22     	; 0x1ecc <eeprom_read_byte_user+0xfa>
	{
		tmp = tmp2;
		if(tmp != tmp1)
    1eb6:	89 14       	cp	r8, r9
    1eb8:	21 f0       	breq	.+8      	; 0x1ec2 <eeprom_read_byte_user+0xf0>
		{
			eeprom_write_byte_2((uint8_t *)(p1),tmp);
    1eba:	68 2d       	mov	r22, r8
    1ebc:	ce 01       	movw	r24, r28
    1ebe:	0e 94 c5 0e 	call	0x1d8a	; 0x1d8a <eeprom_write_byte_2>
		}
		//
		if(tmp != tmp5)
    1ec2:	86 14       	cp	r8, r6
    1ec4:	99 f1       	breq	.+102    	; 0x1f2c <eeprom_read_byte_user+0x15a>
		{
			eeprom_write_byte_2((uint8_t *)(p5),tmp);
    1ec6:	68 2d       	mov	r22, r8
    1ec8:	c6 01       	movw	r24, r12
    1eca:	2e c0       	rjmp	.+92     	; 0x1f28 <eeprom_read_byte_user+0x156>
		}
	}
	else if((tmp2==tmp3) && (tmp2==tmp5)) //235
    1ecc:	86 10       	cpse	r8, r6
    1ece:	25 c0       	rjmp	.+74     	; 0x1f1a <eeprom_read_byte_user+0x148>
	{
		tmp = tmp2;
		if(tmp != tmp1)
    1ed0:	89 14       	cp	r8, r9
    1ed2:	41 f1       	breq	.+80     	; 0x1f24 <eeprom_read_byte_user+0x152>
		{
			eeprom_write_byte_2((uint8_t *)(p1),tmp);
    1ed4:	68 2d       	mov	r22, r8
    1ed6:	ce 01       	movw	r24, r28
    1ed8:	0e 94 c5 0e 	call	0x1d8a	; 0x1d8a <eeprom_write_byte_2>
    1edc:	23 c0       	rjmp	.+70     	; 0x1f24 <eeprom_read_byte_user+0x152>
		if(tmp != tmp4)
		{
			eeprom_write_byte_2((uint8_t *)(p4),tmp);
		}
	}
	else if((tmp2==tmp4) && (tmp2==tmp5)) //245
    1ede:	85 10       	cpse	r8, r5
    1ee0:	0b c0       	rjmp	.+22     	; 0x1ef8 <eeprom_read_byte_user+0x126>
    1ee2:	86 10       	cpse	r8, r6
    1ee4:	1a c0       	rjmp	.+52     	; 0x1f1a <eeprom_read_byte_user+0x148>
	{
		tmp = tmp2;
		if(tmp != tmp1)
    1ee6:	89 14       	cp	r8, r9
    1ee8:	21 f0       	breq	.+8      	; 0x1ef2 <eeprom_read_byte_user+0x120>
		{
			eeprom_write_byte_2((uint8_t *)(p1),tmp);
    1eea:	68 2d       	mov	r22, r8
    1eec:	ce 01       	movw	r24, r28
    1eee:	0e 94 c5 0e 	call	0x1d8a	; 0x1d8a <eeprom_write_byte_2>
		}
		//
		if(tmp != tmp3)
		{
			eeprom_write_byte_2((uint8_t *)(p3),tmp);
    1ef2:	68 2d       	mov	r22, r8
    1ef4:	c5 01       	movw	r24, r10
    1ef6:	18 c0       	rjmp	.+48     	; 0x1f28 <eeprom_read_byte_user+0x156>
		}
	}
	else if((tmp3==tmp4) && (tmp3==tmp5)) //345
    1ef8:	75 10       	cpse	r7, r5
    1efa:	0f c0       	rjmp	.+30     	; 0x1f1a <eeprom_read_byte_user+0x148>
    1efc:	76 10       	cpse	r7, r6
    1efe:	0d c0       	rjmp	.+26     	; 0x1f1a <eeprom_read_byte_user+0x148>
	{
		tmp = tmp3;
		if(tmp != tmp1)
    1f00:	79 14       	cp	r7, r9
    1f02:	21 f0       	breq	.+8      	; 0x1f0c <eeprom_read_byte_user+0x13a>
		{
			eeprom_write_byte_2((uint8_t *)(p1),tmp);
    1f04:	67 2d       	mov	r22, r7
    1f06:	ce 01       	movw	r24, r28
    1f08:	0e 94 c5 0e 	call	0x1d8a	; 0x1d8a <eeprom_write_byte_2>
		}
		//
		if(tmp != tmp2)
    1f0c:	78 14       	cp	r7, r8
    1f0e:	41 f0       	breq	.+16     	; 0x1f20 <eeprom_read_byte_user+0x14e>
		{
			eeprom_write_byte_2((uint8_t *)(p2),tmp);
    1f10:	67 2d       	mov	r22, r7
    1f12:	c7 01       	movw	r24, r14
    1f14:	0e 94 c5 0e 	call	0x1d8a	; 0x1d8a <eeprom_write_byte_2>
    1f18:	03 c0       	rjmp	.+6      	; 0x1f20 <eeprom_read_byte_user+0x14e>
////////////////////////////////////////////////////////////////
unsigned char eeprom_read_byte_user(const uint8_t *p1)
{
	unsigned char tmp,tmp1,tmp2,tmp3,tmp4,tmp5;
	//
	tmp = 0xff;
    1f1a:	99 24       	eor	r9, r9
    1f1c:	9a 94       	dec	r9
    1f1e:	07 c0       	rjmp	.+14     	; 0x1f2e <eeprom_read_byte_user+0x15c>
    1f20:	97 2c       	mov	r9, r7
    1f22:	05 c0       	rjmp	.+10     	; 0x1f2e <eeprom_read_byte_user+0x15c>
			eeprom_write_byte_2((uint8_t *)(p1),tmp);
		}
		//
		if(tmp != tmp4)
		{
			eeprom_write_byte_2((uint8_t *)(p4),tmp);
    1f24:	68 2d       	mov	r22, r8
    1f26:	c8 01       	movw	r24, r16
    1f28:	0e 94 c5 0e 	call	0x1d8a	; 0x1d8a <eeprom_write_byte_2>
    1f2c:	98 2c       	mov	r9, r8
			eeprom_write_byte_2((uint8_t *)(p2),tmp);
		}
	}
	//
	return tmp;
}
    1f2e:	89 2d       	mov	r24, r9
    1f30:	df 91       	pop	r29
    1f32:	cf 91       	pop	r28
    1f34:	1f 91       	pop	r17
    1f36:	0f 91       	pop	r16
    1f38:	ff 90       	pop	r15
    1f3a:	ef 90       	pop	r14
    1f3c:	df 90       	pop	r13
    1f3e:	cf 90       	pop	r12
    1f40:	bf 90       	pop	r11
    1f42:	af 90       	pop	r10
    1f44:	9f 90       	pop	r9
    1f46:	8f 90       	pop	r8
    1f48:	7f 90       	pop	r7
    1f4a:	6f 90       	pop	r6
    1f4c:	5f 90       	pop	r5
    1f4e:	08 95       	ret

00001f50 <eeprom_write_byte_user>:
////////////////////////////////////////////////////////////////
void eeprom_write_byte_user(uint8_t *p,unsigned char val)
{
    1f50:	1f 93       	push	r17
    1f52:	cf 93       	push	r28
    1f54:	df 93       	push	r29
    1f56:	ec 01       	movw	r28, r24
    1f58:	16 2f       	mov	r17, r22
	eeprom_write_byte_2((uint8_t *)p,val);
    1f5a:	0e 94 c5 0e 	call	0x1d8a	; 0x1d8a <eeprom_write_byte_2>
	eeprom_write_byte_2((uint8_t *)(p+EEPROM_DATA_BYTE_SIZE),val);
    1f5e:	61 2f       	mov	r22, r17
    1f60:	ce 01       	movw	r24, r28
    1f62:	80 5b       	subi	r24, 0xB0	; 176
    1f64:	9f 4f       	sbci	r25, 0xFF	; 255
    1f66:	0e 94 c5 0e 	call	0x1d8a	; 0x1d8a <eeprom_write_byte_2>
	eeprom_write_byte_2((uint8_t *)(p+2*EEPROM_DATA_BYTE_SIZE),val);
    1f6a:	61 2f       	mov	r22, r17
    1f6c:	ce 01       	movw	r24, r28
    1f6e:	80 56       	subi	r24, 0x60	; 96
    1f70:	9f 4f       	sbci	r25, 0xFF	; 255
    1f72:	0e 94 c5 0e 	call	0x1d8a	; 0x1d8a <eeprom_write_byte_2>
	eeprom_write_byte_2((uint8_t *)(p+3*EEPROM_DATA_BYTE_SIZE),val);
    1f76:	61 2f       	mov	r22, r17
    1f78:	ce 01       	movw	r24, r28
    1f7a:	80 51       	subi	r24, 0x10	; 16
    1f7c:	9f 4f       	sbci	r25, 0xFF	; 255
    1f7e:	0e 94 c5 0e 	call	0x1d8a	; 0x1d8a <eeprom_write_byte_2>
	eeprom_write_byte_2((uint8_t *)(p+4*EEPROM_DATA_BYTE_SIZE),val);
    1f82:	61 2f       	mov	r22, r17
    1f84:	ce 01       	movw	r24, r28
    1f86:	80 5c       	subi	r24, 0xC0	; 192
    1f88:	9e 4f       	sbci	r25, 0xFE	; 254
}
    1f8a:	df 91       	pop	r29
    1f8c:	cf 91       	pop	r28
    1f8e:	1f 91       	pop	r17
{
	eeprom_write_byte_2((uint8_t *)p,val);
	eeprom_write_byte_2((uint8_t *)(p+EEPROM_DATA_BYTE_SIZE),val);
	eeprom_write_byte_2((uint8_t *)(p+2*EEPROM_DATA_BYTE_SIZE),val);
	eeprom_write_byte_2((uint8_t *)(p+3*EEPROM_DATA_BYTE_SIZE),val);
	eeprom_write_byte_2((uint8_t *)(p+4*EEPROM_DATA_BYTE_SIZE),val);
    1f90:	0c 94 c5 0e 	jmp	0x1d8a	; 0x1d8a <eeprom_write_byte_2>

00001f94 <eeprom_read_word_user>:
}
////////////////////////////////////////////////////////////////
unsigned short eeprom_read_word_user(const uint16_t *p1)
{
    1f94:	2f 92       	push	r2
    1f96:	3f 92       	push	r3
    1f98:	4f 92       	push	r4
    1f9a:	5f 92       	push	r5
    1f9c:	6f 92       	push	r6
    1f9e:	7f 92       	push	r7
    1fa0:	8f 92       	push	r8
    1fa2:	9f 92       	push	r9
    1fa4:	af 92       	push	r10
    1fa6:	bf 92       	push	r11
    1fa8:	cf 92       	push	r12
    1faa:	df 92       	push	r13
    1fac:	ef 92       	push	r14
    1fae:	ff 92       	push	r15
    1fb0:	0f 93       	push	r16
    1fb2:	1f 93       	push	r17
    1fb4:	cf 93       	push	r28
    1fb6:	df 93       	push	r29
    1fb8:	00 d0       	rcall	.+0      	; 0x1fba <eeprom_read_word_user+0x26>
    1fba:	00 d0       	rcall	.+0      	; 0x1fbc <eeprom_read_word_user+0x28>
    1fbc:	cd b7       	in	r28, 0x3d	; 61
    1fbe:	de b7       	in	r29, 0x3e	; 62
    1fc0:	3c 01       	movw	r6, r24
	unsigned short tmp,tmp1,tmp2,tmp3,tmp4,tmp5;
	//
	tmp = 0xff;
	//
	const uint16_t *p2 = (const uint16_t *)(p1+EEPROM_DATA_WORD_SIZE);
    1fc2:	2c 01       	movw	r4, r24
    1fc4:	80 e5       	ldi	r24, 0x50	; 80
    1fc6:	48 0e       	add	r4, r24
    1fc8:	51 1c       	adc	r5, r1
	const uint16_t *p3 = (const uint16_t *)(p1+2*EEPROM_DATA_WORD_SIZE);
    1fca:	43 01       	movw	r8, r6
    1fcc:	e0 ea       	ldi	r30, 0xA0	; 160
    1fce:	8e 0e       	add	r8, r30
    1fd0:	91 1c       	adc	r9, r1
	const uint16_t *p4 = (const uint16_t *)(p1+3*EEPROM_DATA_WORD_SIZE);
    1fd2:	13 01       	movw	r2, r6
    1fd4:	f0 ef       	ldi	r31, 0xF0	; 240
    1fd6:	2f 0e       	add	r2, r31
    1fd8:	31 1c       	adc	r3, r1
	const uint16_t *p5 = (const uint16_t *)(p1+4*EEPROM_DATA_WORD_SIZE);
    1fda:	53 01       	movw	r10, r6
    1fdc:	80 ec       	ldi	r24, 0xC0	; 192
    1fde:	a8 1a       	sub	r10, r24
    1fe0:	8e ef       	ldi	r24, 0xFE	; 254
    1fe2:	b8 0a       	sbc	r11, r24
	//
	tmp1 = eeprom_read_word_2(p1);
    1fe4:	c3 01       	movw	r24, r6
    1fe6:	0e 94 d1 0e 	call	0x1da2	; 0x1da2 <eeprom_read_word_2>
    1fea:	ac 01       	movw	r20, r24
	tmp2 = eeprom_read_word_2(p2);
    1fec:	c2 01       	movw	r24, r4
    1fee:	4b 83       	std	Y+3, r20	; 0x03
    1ff0:	5c 83       	std	Y+4, r21	; 0x04
    1ff2:	0e 94 d1 0e 	call	0x1da2	; 0x1da2 <eeprom_read_word_2>
    1ff6:	8c 01       	movw	r16, r24
	tmp3 = eeprom_read_word_2(p3);
    1ff8:	c4 01       	movw	r24, r8
    1ffa:	0e 94 d1 0e 	call	0x1da2	; 0x1da2 <eeprom_read_word_2>
    1ffe:	7c 01       	movw	r14, r24
	tmp4 = eeprom_read_word_2(p4);
    2000:	c1 01       	movw	r24, r2
    2002:	0e 94 d1 0e 	call	0x1da2	; 0x1da2 <eeprom_read_word_2>
    2006:	9c 01       	movw	r18, r24
	tmp5 = eeprom_read_word_2(p5);
    2008:	c5 01       	movw	r24, r10
    200a:	29 83       	std	Y+1, r18	; 0x01
    200c:	3a 83       	std	Y+2, r19	; 0x02
    200e:	0e 94 d1 0e 	call	0x1da2	; 0x1da2 <eeprom_read_word_2>
    2012:	6c 01       	movw	r12, r24
	//
	if((tmp1==tmp2) && (tmp1==tmp3)) //123
    2014:	4b 81       	ldd	r20, Y+3	; 0x03
    2016:	5c 81       	ldd	r21, Y+4	; 0x04
    2018:	29 81       	ldd	r18, Y+1	; 0x01
    201a:	3a 81       	ldd	r19, Y+2	; 0x02
    201c:	40 17       	cp	r20, r16
    201e:	51 07       	cpc	r21, r17
    2020:	89 f5       	brne	.+98     	; 0x2084 <eeprom_read_word_user+0xf0>
    2022:	4e 15       	cp	r20, r14
    2024:	5f 05       	cpc	r21, r15
    2026:	91 f4       	brne	.+36     	; 0x204c <eeprom_read_word_user+0xb8>
	{
		tmp = tmp1;
		if(tmp != tmp4)
    2028:	42 17       	cp	r20, r18
    202a:	53 07       	cpc	r21, r19
    202c:	31 f0       	breq	.+12     	; 0x203a <eeprom_read_word_user+0xa6>
		{
			eeprom_write_word_2(p4,tmp);
    202e:	ba 01       	movw	r22, r20
    2030:	c1 01       	movw	r24, r2
    2032:	0e 94 dd 0e 	call	0x1dba	; 0x1dba <eeprom_write_word_2>
    2036:	5c 81       	ldd	r21, Y+4	; 0x04
    2038:	4b 81       	ldd	r20, Y+3	; 0x03
		}
		//
		if(tmp != tmp5)
    203a:	4c 15       	cp	r20, r12
    203c:	5d 05       	cpc	r21, r13
    203e:	09 f4       	brne	.+2      	; 0x2042 <eeprom_read_word_user+0xae>
    2040:	9a c0       	rjmp	.+308    	; 0x2176 <eeprom_read_word_user+0x1e2>
		{
			eeprom_write_word_2(p5,tmp);
    2042:	ba 01       	movw	r22, r20
    2044:	c5 01       	movw	r24, r10
    2046:	4b 83       	std	Y+3, r20	; 0x03
    2048:	5c 83       	std	Y+4, r21	; 0x04
    204a:	11 c0       	rjmp	.+34     	; 0x206e <eeprom_read_word_user+0xda>
		}
	}
	else if((tmp1==tmp2) && (tmp1==tmp4)) //124
    204c:	42 17       	cp	r20, r18
    204e:	53 07       	cpc	r21, r19
    2050:	99 f4       	brne	.+38     	; 0x2078 <eeprom_read_word_user+0xe4>
	{
		tmp = tmp1;
		if(tmp != tmp3)
		{
			eeprom_write_word_2(p3,tmp);
    2052:	ba 01       	movw	r22, r20
    2054:	c4 01       	movw	r24, r8
    2056:	4b 83       	std	Y+3, r20	; 0x03
    2058:	5c 83       	std	Y+4, r21	; 0x04
    205a:	0e 94 dd 0e 	call	0x1dba	; 0x1dba <eeprom_write_word_2>
		}
		//
		if(tmp != tmp5)
    205e:	4b 81       	ldd	r20, Y+3	; 0x03
    2060:	5c 81       	ldd	r21, Y+4	; 0x04
    2062:	4c 15       	cp	r20, r12
    2064:	5d 05       	cpc	r21, r13
    2066:	09 f4       	brne	.+2      	; 0x206a <eeprom_read_word_user+0xd6>
    2068:	86 c0       	rjmp	.+268    	; 0x2176 <eeprom_read_word_user+0x1e2>
		{
			eeprom_write_word_2(p5,tmp);
    206a:	ba 01       	movw	r22, r20
    206c:	c5 01       	movw	r24, r10
    206e:	0e 94 dd 0e 	call	0x1dba	; 0x1dba <eeprom_write_word_2>
    2072:	4b 81       	ldd	r20, Y+3	; 0x03
    2074:	5c 81       	ldd	r21, Y+4	; 0x04
    2076:	7f c0       	rjmp	.+254    	; 0x2176 <eeprom_read_word_user+0x1e2>
		}
	}
	else if((tmp1==tmp2) && (tmp1==tmp5)) //125
    2078:	48 17       	cp	r20, r24
    207a:	59 07       	cpc	r21, r25
    207c:	79 f5       	brne	.+94     	; 0x20dc <eeprom_read_word_user+0x148>
	{
		tmp = tmp1;
		if(tmp != tmp3)
		{
			eeprom_write_word_2(p3,tmp);
    207e:	ba 01       	movw	r22, r20
    2080:	c4 01       	movw	r24, r8
    2082:	0e c0       	rjmp	.+28     	; 0x20a0 <eeprom_read_word_user+0x10c>
		if(tmp != tmp4)
		{
			eeprom_write_word_2(p4,tmp);
		}
	}
	else if((tmp1==tmp3) && (tmp1==tmp4)) //134
    2084:	4e 15       	cp	r20, r14
    2086:	5f 05       	cpc	r21, r15
    2088:	a1 f4       	brne	.+40     	; 0x20b2 <eeprom_read_word_user+0x11e>
    208a:	42 17       	cp	r20, r18
    208c:	53 07       	cpc	r21, r19
    208e:	19 f4       	brne	.+6      	; 0x2096 <eeprom_read_word_user+0x102>
	{
		tmp = tmp1;
		if(tmp != tmp2)
		{
			eeprom_write_word_2(p2,tmp);
    2090:	ba 01       	movw	r22, r20
    2092:	c2 01       	movw	r24, r4
    2094:	e0 cf       	rjmp	.-64     	; 0x2056 <eeprom_read_word_user+0xc2>
		if(tmp != tmp5)
		{
			eeprom_write_word_2(p5,tmp);
		}
	}
	else if((tmp1==tmp3) && (tmp1==tmp5)) //135
    2096:	48 17       	cp	r20, r24
    2098:	59 07       	cpc	r21, r25
    209a:	f1 f5       	brne	.+124    	; 0x2118 <eeprom_read_word_user+0x184>
	{
		tmp = tmp1;
		if(tmp != tmp2)
		{
			eeprom_write_word_2(p2,tmp);
    209c:	ba 01       	movw	r22, r20
    209e:	c2 01       	movw	r24, r4
    20a0:	4b 83       	std	Y+3, r20	; 0x03
    20a2:	5c 83       	std	Y+4, r21	; 0x04
    20a4:	0e 94 dd 0e 	call	0x1dba	; 0x1dba <eeprom_write_word_2>
		}
		//
		if(tmp != tmp4)
		{
			eeprom_write_word_2(p4,tmp);
    20a8:	4b 81       	ldd	r20, Y+3	; 0x03
    20aa:	5c 81       	ldd	r21, Y+4	; 0x04
    20ac:	ba 01       	movw	r22, r20
    20ae:	c1 01       	movw	r24, r2
    20b0:	de cf       	rjmp	.-68     	; 0x206e <eeprom_read_word_user+0xda>
		}
	}
	else if((tmp1==tmp4) && (tmp1==tmp5)) //145
    20b2:	42 17       	cp	r20, r18
    20b4:	53 07       	cpc	r21, r19
    20b6:	91 f4       	brne	.+36     	; 0x20dc <eeprom_read_word_user+0x148>
    20b8:	48 17       	cp	r20, r24
    20ba:	59 07       	cpc	r21, r25
    20bc:	79 f4       	brne	.+30     	; 0x20dc <eeprom_read_word_user+0x148>
	{
		tmp = tmp1;
		if(tmp != tmp3)
		{
			eeprom_write_word_2(p3,tmp);
    20be:	ba 01       	movw	r22, r20
    20c0:	c4 01       	movw	r24, r8
    20c2:	4b 83       	std	Y+3, r20	; 0x03
    20c4:	5c 83       	std	Y+4, r21	; 0x04
    20c6:	0e 94 dd 0e 	call	0x1dba	; 0x1dba <eeprom_write_word_2>
		}
		//
		if(tmp != tmp2)
    20ca:	4b 81       	ldd	r20, Y+3	; 0x03
    20cc:	5c 81       	ldd	r21, Y+4	; 0x04
    20ce:	40 17       	cp	r20, r16
    20d0:	51 07       	cpc	r21, r17
    20d2:	09 f4       	brne	.+2      	; 0x20d6 <eeprom_read_word_user+0x142>
    20d4:	50 c0       	rjmp	.+160    	; 0x2176 <eeprom_read_word_user+0x1e2>
		{
			eeprom_write_word_2(p2,tmp);
    20d6:	ba 01       	movw	r22, r20
    20d8:	c2 01       	movw	r24, r4
    20da:	c9 cf       	rjmp	.-110    	; 0x206e <eeprom_read_word_user+0xda>
		}
	}
	else if((tmp2==tmp3) && (tmp2==tmp4)) //234
    20dc:	0e 15       	cp	r16, r14
    20de:	1f 05       	cpc	r17, r15
    20e0:	d9 f4       	brne	.+54     	; 0x2118 <eeprom_read_word_user+0x184>
    20e2:	02 17       	cp	r16, r18
    20e4:	13 07       	cpc	r17, r19
    20e6:	69 f4       	brne	.+26     	; 0x2102 <eeprom_read_word_user+0x16e>
	{
		tmp = tmp2;
		if(tmp != tmp1)
    20e8:	04 17       	cp	r16, r20
    20ea:	15 07       	cpc	r17, r21
    20ec:	21 f0       	breq	.+8      	; 0x20f6 <eeprom_read_word_user+0x162>
		{
			eeprom_write_word_2(p1,tmp);
    20ee:	b8 01       	movw	r22, r16
    20f0:	c3 01       	movw	r24, r6
    20f2:	0e 94 dd 0e 	call	0x1dba	; 0x1dba <eeprom_write_word_2>
		}
		//
		if(tmp != tmp5)
    20f6:	0c 15       	cp	r16, r12
    20f8:	1d 05       	cpc	r17, r13
    20fa:	e1 f1       	breq	.+120    	; 0x2174 <eeprom_read_word_user+0x1e0>
		{
			eeprom_write_word_2(p5,tmp);
    20fc:	b8 01       	movw	r22, r16
    20fe:	c5 01       	movw	r24, r10
    2100:	37 c0       	rjmp	.+110    	; 0x2170 <eeprom_read_word_user+0x1dc>
		}
	}
	else if((tmp2==tmp3) && (tmp2==tmp5)) //235
    2102:	0c 15       	cp	r16, r12
    2104:	1d 05       	cpc	r17, r13
    2106:	69 f5       	brne	.+90     	; 0x2162 <eeprom_read_word_user+0x1ce>
	{
		tmp = tmp2;
		if(tmp != tmp1)
    2108:	04 17       	cp	r16, r20
    210a:	15 07       	cpc	r17, r21
    210c:	79 f1       	breq	.+94     	; 0x216c <eeprom_read_word_user+0x1d8>
		{
			eeprom_write_word_2(p1,tmp);
    210e:	b8 01       	movw	r22, r16
    2110:	c3 01       	movw	r24, r6
    2112:	0e 94 dd 0e 	call	0x1dba	; 0x1dba <eeprom_write_word_2>
    2116:	2a c0       	rjmp	.+84     	; 0x216c <eeprom_read_word_user+0x1d8>
		if(tmp != tmp4)
		{
			eeprom_write_word_2(p4,tmp);
		}
	}
	else if((tmp2==tmp4) && (tmp2==tmp5)) //245
    2118:	02 17       	cp	r16, r18
    211a:	13 07       	cpc	r17, r19
    211c:	69 f4       	brne	.+26     	; 0x2138 <eeprom_read_word_user+0x1a4>
    211e:	0c 15       	cp	r16, r12
    2120:	1d 05       	cpc	r17, r13
    2122:	f9 f4       	brne	.+62     	; 0x2162 <eeprom_read_word_user+0x1ce>
	{
		tmp = tmp2;
		if(tmp != tmp1)
    2124:	04 17       	cp	r16, r20
    2126:	15 07       	cpc	r17, r21
    2128:	21 f0       	breq	.+8      	; 0x2132 <eeprom_read_word_user+0x19e>
		{
			eeprom_write_word_2(p1,tmp);
    212a:	b8 01       	movw	r22, r16
    212c:	c3 01       	movw	r24, r6
    212e:	0e 94 dd 0e 	call	0x1dba	; 0x1dba <eeprom_write_word_2>
		}
		//
		if(tmp != tmp3)
		{
			eeprom_write_word_2(p3,tmp);
    2132:	b8 01       	movw	r22, r16
    2134:	c4 01       	movw	r24, r8
    2136:	1c c0       	rjmp	.+56     	; 0x2170 <eeprom_read_word_user+0x1dc>
		}
	}
	else if((tmp3==tmp4) && (tmp3==tmp5)) //345
    2138:	e2 16       	cp	r14, r18
    213a:	f3 06       	cpc	r15, r19
    213c:	91 f4       	brne	.+36     	; 0x2162 <eeprom_read_word_user+0x1ce>
    213e:	ec 14       	cp	r14, r12
    2140:	fd 04       	cpc	r15, r13
    2142:	79 f4       	brne	.+30     	; 0x2162 <eeprom_read_word_user+0x1ce>
	{
		tmp = tmp3;
		if(tmp != tmp1)
    2144:	e4 16       	cp	r14, r20
    2146:	f5 06       	cpc	r15, r21
    2148:	21 f0       	breq	.+8      	; 0x2152 <eeprom_read_word_user+0x1be>
		{
			eeprom_write_word_2(p1,tmp);
    214a:	b7 01       	movw	r22, r14
    214c:	c3 01       	movw	r24, r6
    214e:	0e 94 dd 0e 	call	0x1dba	; 0x1dba <eeprom_write_word_2>
		}
		//
		if(tmp != tmp2)
    2152:	e0 16       	cp	r14, r16
    2154:	f1 06       	cpc	r15, r17
    2156:	41 f0       	breq	.+16     	; 0x2168 <eeprom_read_word_user+0x1d4>
		{
			eeprom_write_word_2(p2,tmp);
    2158:	b7 01       	movw	r22, r14
    215a:	c2 01       	movw	r24, r4
    215c:	0e 94 dd 0e 	call	0x1dba	; 0x1dba <eeprom_write_word_2>
    2160:	03 c0       	rjmp	.+6      	; 0x2168 <eeprom_read_word_user+0x1d4>
////////////////////////////////////////////////////////////////
unsigned short eeprom_read_word_user(const uint16_t *p1)
{
	unsigned short tmp,tmp1,tmp2,tmp3,tmp4,tmp5;
	//
	tmp = 0xff;
    2162:	4f ef       	ldi	r20, 0xFF	; 255
    2164:	50 e0       	ldi	r21, 0x00	; 0
    2166:	07 c0       	rjmp	.+14     	; 0x2176 <eeprom_read_word_user+0x1e2>
    2168:	a7 01       	movw	r20, r14
    216a:	05 c0       	rjmp	.+10     	; 0x2176 <eeprom_read_word_user+0x1e2>
			eeprom_write_word_2(p1,tmp);
		}
		//
		if(tmp != tmp4)
		{
			eeprom_write_word_2(p4,tmp);
    216c:	b8 01       	movw	r22, r16
    216e:	c1 01       	movw	r24, r2
    2170:	0e 94 dd 0e 	call	0x1dba	; 0x1dba <eeprom_write_word_2>
    2174:	a8 01       	movw	r20, r16
			eeprom_write_word_2(p2,tmp);
		}
	}
	//
	return tmp;
}
    2176:	ca 01       	movw	r24, r20
    2178:	0f 90       	pop	r0
    217a:	0f 90       	pop	r0
    217c:	0f 90       	pop	r0
    217e:	0f 90       	pop	r0
    2180:	df 91       	pop	r29
    2182:	cf 91       	pop	r28
    2184:	1f 91       	pop	r17
    2186:	0f 91       	pop	r16
    2188:	ff 90       	pop	r15
    218a:	ef 90       	pop	r14
    218c:	df 90       	pop	r13
    218e:	cf 90       	pop	r12
    2190:	bf 90       	pop	r11
    2192:	af 90       	pop	r10
    2194:	9f 90       	pop	r9
    2196:	8f 90       	pop	r8
    2198:	7f 90       	pop	r7
    219a:	6f 90       	pop	r6
    219c:	5f 90       	pop	r5
    219e:	4f 90       	pop	r4
    21a0:	3f 90       	pop	r3
    21a2:	2f 90       	pop	r2
    21a4:	08 95       	ret

000021a6 <eeprom_write_word_user>:
////////////////////////////////////////////////////////////////
void eeprom_write_word_user(uint16_t *p,unsigned short val)
{
    21a6:	0f 93       	push	r16
    21a8:	1f 93       	push	r17
    21aa:	cf 93       	push	r28
    21ac:	df 93       	push	r29
    21ae:	ec 01       	movw	r28, r24
    21b0:	8b 01       	movw	r16, r22
	eeprom_write_word_2((uint16_t *)p,val);
    21b2:	0e 94 dd 0e 	call	0x1dba	; 0x1dba <eeprom_write_word_2>
	eeprom_write_word_2((uint16_t *)(p+EEPROM_DATA_WORD_SIZE),val);
    21b6:	b8 01       	movw	r22, r16
    21b8:	ce 01       	movw	r24, r28
    21ba:	80 5b       	subi	r24, 0xB0	; 176
    21bc:	9f 4f       	sbci	r25, 0xFF	; 255
    21be:	0e 94 dd 0e 	call	0x1dba	; 0x1dba <eeprom_write_word_2>
	eeprom_write_word_2((uint16_t *)(p+2*EEPROM_DATA_WORD_SIZE),val);
    21c2:	b8 01       	movw	r22, r16
    21c4:	ce 01       	movw	r24, r28
    21c6:	80 56       	subi	r24, 0x60	; 96
    21c8:	9f 4f       	sbci	r25, 0xFF	; 255
    21ca:	0e 94 dd 0e 	call	0x1dba	; 0x1dba <eeprom_write_word_2>
	eeprom_write_word_2((uint16_t *)(p+3*EEPROM_DATA_WORD_SIZE),val);
    21ce:	b8 01       	movw	r22, r16
    21d0:	ce 01       	movw	r24, r28
    21d2:	80 51       	subi	r24, 0x10	; 16
    21d4:	9f 4f       	sbci	r25, 0xFF	; 255
    21d6:	0e 94 dd 0e 	call	0x1dba	; 0x1dba <eeprom_write_word_2>
	eeprom_write_word_2((uint16_t *)(p+4*EEPROM_DATA_WORD_SIZE),val);
    21da:	b8 01       	movw	r22, r16
    21dc:	ce 01       	movw	r24, r28
    21de:	80 5c       	subi	r24, 0xC0	; 192
    21e0:	9e 4f       	sbci	r25, 0xFE	; 254
}
    21e2:	df 91       	pop	r29
    21e4:	cf 91       	pop	r28
    21e6:	1f 91       	pop	r17
    21e8:	0f 91       	pop	r16
{
	eeprom_write_word_2((uint16_t *)p,val);
	eeprom_write_word_2((uint16_t *)(p+EEPROM_DATA_WORD_SIZE),val);
	eeprom_write_word_2((uint16_t *)(p+2*EEPROM_DATA_WORD_SIZE),val);
	eeprom_write_word_2((uint16_t *)(p+3*EEPROM_DATA_WORD_SIZE),val);
	eeprom_write_word_2((uint16_t *)(p+4*EEPROM_DATA_WORD_SIZE),val);
    21ea:	0c 94 dd 0e 	jmp	0x1dba	; 0x1dba <eeprom_write_word_2>

000021ee <write_para_to_eeprom>:
	delay_ms(100);
	wdt_reset_mcu();//重启单片机
}
/////////////////////////////////////////////////////////////////
void write_para_to_eeprom(NVM_DATA *p,unsigned char rst_used_hours)
{		
    21ee:	ef 92       	push	r14
    21f0:	ff 92       	push	r15
    21f2:	0f 93       	push	r16
    21f4:	1f 93       	push	r17
    21f6:	cf 93       	push	r28
    21f8:	df 93       	push	r29
    21fa:	ec 01       	movw	r28, r24
    21fc:	16 2f       	mov	r17, r22
	wdt_reset(); //防止写EEPROM过程中看门狗复位
    21fe:	a8 95       	wdr
	//
	//外部参数
	//最高和最低转速(40-300转/分)
	eeprom_write_word_user((uint16_t *)&m_ePara[0].para.max_vel,p->para.max_vel);
    2200:	6c 81       	ldd	r22, Y+4	; 0x04
    2202:	7d 81       	ldd	r23, Y+5	; 0x05
    2204:	84 e0       	ldi	r24, 0x04	; 4
    2206:	91 e0       	ldi	r25, 0x01	; 1
    2208:	0e 94 d3 10 	call	0x21a6	; 0x21a6 <eeprom_write_word_user>
	eeprom_write_word_user((uint16_t *)&m_ePara[0].para.min_vel,p->para.min_vel);
    220c:	6e 81       	ldd	r22, Y+6	; 0x06
    220e:	7f 81       	ldd	r23, Y+7	; 0x07
    2210:	86 e0       	ldi	r24, 0x06	; 6
    2212:	91 e0       	ldi	r25, 0x01	; 1
    2214:	0e 94 d3 10 	call	0x21a6	; 0x21a6 <eeprom_write_word_user>
	//主电机额定电流(10-100A)
	eeprom_write_byte_user(&m_ePara[0].para.mmotor_cur1,p->para.mmotor_cur1);
    2218:	68 85       	ldd	r22, Y+8	; 0x08
    221a:	88 e0       	ldi	r24, 0x08	; 8
    221c:	91 e0       	ldi	r25, 0x01	; 1
    221e:	0e 94 a8 0f 	call	0x1f50	; 0x1f50 <eeprom_write_byte_user>
	#if __D2_USED__ == TRUE
	eeprom_write_byte_user(&m_ePara[0].para.mmotor_cur2,p->para.mmotor_cur2);
	#endif
	//合轧延时时间(0.2-20s,2-200百毫秒)
	eeprom_write_byte_user(&m_ePara[0].para.rollin_delay,p->para.rollin_delay);
    2222:	69 85       	ldd	r22, Y+9	; 0x09
    2224:	89 e0       	ldi	r24, 0x09	; 9
    2226:	91 e0       	ldi	r25, 0x01	; 1
    2228:	0e 94 a8 0f 	call	0x1f50	; 0x1f50 <eeprom_write_byte_user>
	//内部参数
	//料位传感器满量程输出
	eeprom_write_byte_user(&m_ePara[0].para.material_full,p->para.material_full);
    222c:	6a 85       	ldd	r22, Y+10	; 0x0a
    222e:	8a e0       	ldi	r24, 0x0A	; 10
    2230:	91 e0       	ldi	r25, 0x01	; 1
    2232:	0e 94 a8 0f 	call	0x1f50	; 0x1f50 <eeprom_write_byte_user>
	//上电远控和上电键盘控制选择
	eeprom_write_byte_user(&m_ePara[0].para.is_remote,p->para.is_remote);
    2236:	6b 85       	ldd	r22, Y+11	; 0x0b
    2238:	8b e0       	ldi	r24, 0x0B	; 11
    223a:	91 e0       	ldi	r25, 0x01	; 1
    223c:	0e 94 a8 0f 	call	0x1f50	; 0x1f50 <eeprom_write_byte_user>
	//主电机过载保护停机电流
	eeprom_write_byte_user(&m_ePara[0].para.mm_cur_overflow,p->para.mm_cur_overflow);
    2240:	6c 85       	ldd	r22, Y+12	; 0x0c
    2242:	8c e0       	ldi	r24, 0x0C	; 12
    2244:	91 e0       	ldi	r25, 0x01	; 1
    2246:	0e 94 a8 0f 	call	0x1f50	; 0x1f50 <eeprom_write_byte_user>
	//是否根据主电机电流进行连锁控制
	eeprom_write_byte_user(&m_ePara[0].para.mm_control,p->para.mm_control);
    224a:	6d 85       	ldd	r22, Y+13	; 0x0d
    224c:	8d e0       	ldi	r24, 0x0D	; 13
    224e:	91 e0       	ldi	r25, 0x01	; 1
    2250:	0e 94 a8 0f 	call	0x1f50	; 0x1f50 <eeprom_write_byte_user>
	//电流传感器量程
	eeprom_write_byte_user(&m_ePara[0].para.cur1_full,p->para.cur1_full);
    2254:	6e 85       	ldd	r22, Y+14	; 0x0e
    2256:	8e e0       	ldi	r24, 0x0E	; 14
    2258:	91 e0       	ldi	r25, 0x01	; 1
    225a:	0e 94 a8 0f 	call	0x1f50	; 0x1f50 <eeprom_write_byte_user>
	#if __D2_USED__ == TRUE
	eeprom_write_byte_user(&m_ePara[0].para.cur2_full,p->para.cur2_full);
	#endif
	//料位传感器值采集端设定,默认为AD采样数据,设置为2时从485口接收数据，设置为3时用集成传感器
	eeprom_write_byte_user(&m_ePara[0].para.material_port,p->para.material_port);//默认采样集成传感器
    225e:	6f 85       	ldd	r22, Y+15	; 0x0f
    2260:	8f e0       	ldi	r24, 0x0F	; 15
    2262:	91 e0       	ldi	r25, 0x01	; 1
    2264:	0e 94 a8 0f 	call	0x1f50	; 0x1f50 <eeprom_write_byte_user>
	//
	//手动参数
	//手动转数
	eeprom_write_word_user((uint16_t *)&m_ePara[0].para.manual_vel,p->para.manual_vel);
    2268:	68 89       	ldd	r22, Y+16	; 0x10
    226a:	79 89       	ldd	r23, Y+17	; 0x11
    226c:	80 e1       	ldi	r24, 0x10	; 16
    226e:	91 e0       	ldi	r25, 0x01	; 1
    2270:	0e 94 d3 10 	call	0x21a6	; 0x21a6 <eeprom_write_word_user>
	////////////////////////////////使用时间限制
	if(FALSE != rst_used_hours)
    2274:	11 23       	and	r17, r17
    2276:	31 f0       	breq	.+12     	; 0x2284 <write_para_to_eeprom+0x96>
	{
		//使用天数
		eeprom_write_word_user((uint16_t *)&m_ePara[0].para.limited_hours,p->para.limited_hours);
    2278:	6a 89       	ldd	r22, Y+18	; 0x12
    227a:	7b 89       	ldd	r23, Y+19	; 0x13
    227c:	82 e1       	ldi	r24, 0x12	; 18
    227e:	91 e0       	ldi	r25, 0x01	; 1
    2280:	0e 94 d3 10 	call	0x21a6	; 0x21a6 <eeprom_write_word_user>
	}
	//测试用
	eeprom_write_byte_user(&m_ePara[0].para.all_stop_id, p->para.all_stop_id);
    2284:	6c 89       	ldd	r22, Y+20	; 0x14
    2286:	84 e1       	ldi	r24, 0x14	; 20
    2288:	91 e0       	ldi	r25, 0x01	; 1
    228a:	0e 94 a8 0f 	call	0x1f50	; 0x1f50 <eeprom_write_byte_user>
	//
	//密码保护参数
	//启动料位值
	eeprom_write_byte_user(&m_ePara[0].para.material_start,p->para.material_start);
    228e:	6d 89       	ldd	r22, Y+21	; 0x15
    2290:	85 e1       	ldi	r24, 0x15	; 21
    2292:	91 e0       	ldi	r25, 0x01	; 1
    2294:	0e 94 a8 0f 	call	0x1f50	; 0x1f50 <eeprom_write_byte_user>
	//停机料位值
	eeprom_write_byte_user(&m_ePara[0].para.material_stop,p->para.material_stop);
    2298:	6e 89       	ldd	r22, Y+22	; 0x16
    229a:	86 e1       	ldi	r24, 0x16	; 22
    229c:	91 e0       	ldi	r25, 0x01	; 1
    229e:	0e 94 a8 0f 	call	0x1f50	; 0x1f50 <eeprom_write_byte_user>
	//电流修正值
	eeprom_write_byte_user(&m_ePara[0].para.current1_modify,p->para.current1_modify);
    22a2:	6f 89       	ldd	r22, Y+23	; 0x17
    22a4:	87 e1       	ldi	r24, 0x17	; 23
    22a6:	91 e0       	ldi	r25, 0x01	; 1
    22a8:	0e 94 a8 0f 	call	0x1f50	; 0x1f50 <eeprom_write_byte_user>
	#if __D2_USED__ == TRUE
	eeprom_write_byte_user(&m_ePara[0].para.current2_modify,p->para.current2_modify);
	#endif
	//
	//参数设置标志
	eeprom_write_word_user((uint16_t *)&m_ePara[0].para.para_seted_flag,PARA_SETED_FLAG);
    22ac:	64 e0       	ldi	r22, 0x04	; 4
    22ae:	79 e1       	ldi	r23, 0x19	; 25
    22b0:	88 e1       	ldi	r24, 0x18	; 24
    22b2:	91 e0       	ldi	r25, 0x01	; 1
    22b4:	0e 94 d3 10 	call	0x21a6	; 0x21a6 <eeprom_write_word_user>
	//
	//MODBUS通信从机地址和通信波特率
	eeprom_write_byte_user(&m_ePara[0].para.addr_modbus,p->para.addr_modbus);//20,27
    22b8:	6a 8d       	ldd	r22, Y+26	; 0x1a
    22ba:	8a e1       	ldi	r24, 0x1A	; 26
    22bc:	91 e0       	ldi	r25, 0x01	; 1
    22be:	0e 94 a8 0f 	call	0x1f50	; 0x1f50 <eeprom_write_byte_user>
	eeprom_write_byte_user(&m_ePara[0].para.baud_modbus,p->para.baud_modbus);//21,28//1:9600Bd,2:19200Bd,3:38400Bd
    22c2:	6b 8d       	ldd	r22, Y+27	; 0x1b
    22c4:	8b e1       	ldi	r24, 0x1B	; 27
    22c6:	91 e0       	ldi	r25, 0x01	; 1
    22c8:	0e 94 a8 0f 	call	0x1f50	; 0x1f50 <eeprom_write_byte_user>
	//MB和DW输入选择（1：电平，2：脉冲）
	eeprom_write_byte_user(&m_ePara[0].para.mb_level_pulse,p->para.mb_level_pulse);//22//29
    22cc:	6c 8d       	ldd	r22, Y+28	; 0x1c
    22ce:	8c e1       	ldi	r24, 0x1C	; 28
    22d0:	91 e0       	ldi	r25, 0x01	; 1
    22d2:	0e 94 a8 0f 	call	0x1f50	; 0x1f50 <eeprom_write_byte_user>
	eeprom_write_byte_user(&m_ePara[0].para.dw_level_pulse,p->para.dw_level_pulse);//23//30
    22d6:	6d 8d       	ldd	r22, Y+29	; 0x1d
    22d8:	8d e1       	ldi	r24, 0x1D	; 29
    22da:	91 e0       	ldi	r25, 0x01	; 1
    22dc:	0e 94 a8 0f 	call	0x1f50	; 0x1f50 <eeprom_write_byte_user>
	//MB和转速之间的关系
	eeprom_write_byte_user(&m_ePara[0].para.mb_div,p->para.mb_div);//24//31
    22e0:	6e 8d       	ldd	r22, Y+30	; 0x1e
    22e2:	8e e1       	ldi	r24, 0x1E	; 30
    22e4:	91 e0       	ldi	r25, 0x01	; 1
    22e6:	0e 94 a8 0f 	call	0x1f50	; 0x1f50 <eeprom_write_byte_user>

	eeprom_write_byte_user(&m_ePara[0].para.set_yuzhi,p->para.set_yuzhi);//23//30
    22ea:	fe 01       	movw	r30, r28
    22ec:	e0 5c       	subi	r30, 0xC0	; 192
    22ee:	ff 4f       	sbci	r31, 0xFF	; 255
    22f0:	60 81       	ld	r22, Z
    22f2:	80 e4       	ldi	r24, 0x40	; 64
    22f4:	91 e0       	ldi	r25, 0x01	; 1
    22f6:	0e 94 a8 0f 	call	0x1f50	; 0x1f50 <eeprom_write_byte_user>
	if(FALSE != rst_used_hours)
    22fa:	11 23       	and	r17, r17
    22fc:	31 f0       	breq	.+12     	; 0x230a <write_para_to_eeprom+0x11c>
	{
		//设备使用时间
		eeprom_write_word_user((uint16_t *)&m_ePara[0].para.used_hours,0);//26//34-32
    22fe:	60 e0       	ldi	r22, 0x00	; 0
    2300:	70 e0       	ldi	r23, 0x00	; 0
    2302:	80 e2       	ldi	r24, 0x20	; 32
    2304:	91 e0       	ldi	r25, 0x01	; 1
    2306:	0e 94 d3 10 	call	0x21a6	; 0x21a6 <eeprom_write_word_user>
	delay_ms(100);
	wdt_reset_mcu();//重启单片机
}
/////////////////////////////////////////////////////////////////
void write_para_to_eeprom(NVM_DATA *p,unsigned char rst_used_hours)
{		
    230a:	00 e0       	ldi	r16, 0x00	; 0
    230c:	10 e0       	ldi	r17, 0x00	; 0
    230e:	7e 01       	movw	r14, r28
    2310:	e0 0e       	add	r14, r16
    2312:	f1 1e       	adc	r15, r17
	//IP和MAC
	unsigned char i;
	for(i=0; i<4; i++)
	{
		//IP地址写入EEPROM
		eeprom_write_byte_user(&m_ePara[0].para.w5500_net_para.ip_para.ip_addr[i],p->para.w5500_net_para.ip_para.ip_addr[i]);
    2314:	f7 01       	movw	r30, r14
    2316:	64 a5       	ldd	r22, Z+44	; 0x2c
    2318:	c8 01       	movw	r24, r16
    231a:	84 5d       	subi	r24, 0xD4	; 212
    231c:	9e 4f       	sbci	r25, 0xFE	; 254
    231e:	0e 94 a8 0f 	call	0x1f50	; 0x1f50 <eeprom_write_byte_user>
		eeprom_write_byte_user(&m_ePara[0].para.w5500_net_para.ip_para.gateway[i],p->para.w5500_net_para.ip_para.gateway[i]);
    2322:	f7 01       	movw	r30, r14
    2324:	64 a9       	ldd	r22, Z+52	; 0x34
    2326:	c8 01       	movw	r24, r16
    2328:	8c 5c       	subi	r24, 0xCC	; 204
    232a:	9e 4f       	sbci	r25, 0xFE	; 254
    232c:	0e 94 a8 0f 	call	0x1f50	; 0x1f50 <eeprom_write_byte_user>
		eeprom_write_byte_user(&m_ePara[0].para.w5500_net_para.ip_para.net_mask[i],p->para.w5500_net_para.ip_para.net_mask[i]);
    2330:	f7 01       	movw	r30, r14
    2332:	60 a9       	ldd	r22, Z+48	; 0x30
    2334:	c8 01       	movw	r24, r16
    2336:	80 5d       	subi	r24, 0xD0	; 208
    2338:	9e 4f       	sbci	r25, 0xFE	; 254
    233a:	0e 94 a8 0f 	call	0x1f50	; 0x1f50 <eeprom_write_byte_user>
    233e:	0f 5f       	subi	r16, 0xFF	; 255
    2340:	1f 4f       	sbci	r17, 0xFF	; 255
		eeprom_write_word_user((uint16_t *)&m_ePara[0].para.used_hours,0);//26//34-32
	}
	//
	//IP和MAC
	unsigned char i;
	for(i=0; i<4; i++)
    2342:	04 30       	cpi	r16, 0x04	; 4
    2344:	11 05       	cpc	r17, r1
    2346:	19 f7       	brne	.-58     	; 0x230e <write_para_to_eeprom+0x120>
	//
	#if USED_W5500 == TRUE
	{
		extern void create_mac(const IP_PARA *pIP);
		//建立MAC地址并且写入EEPROM
		create_mac(&p->para.w5500_net_para.ip_para);
    2348:	ce 01       	movw	r24, r28
    234a:	8c 96       	adiw	r24, 0x2c	; 44
    234c:	0e 94 b9 30 	call	0x6172	; 0x6172 <create_mac>
	tmp.para.set_default_zhuansu = tmp.para.max_vel>>2 + tmp.para.min_vel>>2;
	tmp.para.set_model = 0;
	tmp.para.set_wuliao_PID_P = 1;
	tmp.para.set_qiwang_value = 12;
	*/
	eeprom_write_byte_user(&m_ePara[0].para.set_default_zhuansu,p->para.set_default_zhuansu);//23//30
    2350:	fe 01       	movw	r30, r28
    2352:	ef 5b       	subi	r30, 0xBF	; 191
    2354:	ff 4f       	sbci	r31, 0xFF	; 255
    2356:	60 81       	ld	r22, Z
    2358:	81 e4       	ldi	r24, 0x41	; 65
    235a:	91 e0       	ldi	r25, 0x01	; 1
    235c:	0e 94 a8 0f 	call	0x1f50	; 0x1f50 <eeprom_write_byte_user>
	eeprom_write_byte_user(&m_ePara[0].para.set_model,p->para.set_model);//23//30
    2360:	fe 01       	movw	r30, r28
    2362:	ee 5b       	subi	r30, 0xBE	; 190
    2364:	ff 4f       	sbci	r31, 0xFF	; 255
    2366:	60 81       	ld	r22, Z
    2368:	82 e4       	ldi	r24, 0x42	; 66
    236a:	91 e0       	ldi	r25, 0x01	; 1
    236c:	0e 94 a8 0f 	call	0x1f50	; 0x1f50 <eeprom_write_byte_user>
	eeprom_write_byte_user(&m_ePara[0].para.set_wuliao_PID_P,p->para.set_wuliao_PID_P);//23//30
    2370:	fe 01       	movw	r30, r28
    2372:	ed 5b       	subi	r30, 0xBD	; 189
    2374:	ff 4f       	sbci	r31, 0xFF	; 255
    2376:	60 81       	ld	r22, Z
    2378:	83 e4       	ldi	r24, 0x43	; 67
    237a:	91 e0       	ldi	r25, 0x01	; 1
    237c:	0e 94 a8 0f 	call	0x1f50	; 0x1f50 <eeprom_write_byte_user>
	eeprom_write_byte_user(&m_ePara[0].para.set_qiwang_value,p->para.set_qiwang_value);//23//30
    2380:	fe 01       	movw	r30, r28
    2382:	ec 5b       	subi	r30, 0xBC	; 188
    2384:	ff 4f       	sbci	r31, 0xFF	; 255
    2386:	60 81       	ld	r22, Z
    2388:	84 e4       	ldi	r24, 0x44	; 68
    238a:	91 e0       	ldi	r25, 0x01	; 1
    238c:	0e 94 a8 0f 	call	0x1f50	; 0x1f50 <eeprom_write_byte_user>
	eeprom_write_byte_user(&m_ePara[0].para.set_yuankong_auto_delay,p->para.set_yuankong_auto_delay);//23//30
    2390:	cb 5b       	subi	r28, 0xBB	; 187
    2392:	df 4f       	sbci	r29, 0xFF	; 255
    2394:	68 81       	ld	r22, Y
    2396:	85 e4       	ldi	r24, 0x45	; 69
    2398:	91 e0       	ldi	r25, 0x01	; 1

	
}
    239a:	df 91       	pop	r29
    239c:	cf 91       	pop	r28
    239e:	1f 91       	pop	r17
    23a0:	0f 91       	pop	r16
    23a2:	ff 90       	pop	r15
    23a4:	ef 90       	pop	r14
	*/
	eeprom_write_byte_user(&m_ePara[0].para.set_default_zhuansu,p->para.set_default_zhuansu);//23//30
	eeprom_write_byte_user(&m_ePara[0].para.set_model,p->para.set_model);//23//30
	eeprom_write_byte_user(&m_ePara[0].para.set_wuliao_PID_P,p->para.set_wuliao_PID_P);//23//30
	eeprom_write_byte_user(&m_ePara[0].para.set_qiwang_value,p->para.set_qiwang_value);//23//30
	eeprom_write_byte_user(&m_ePara[0].para.set_yuankong_auto_delay,p->para.set_yuankong_auto_delay);//23//30
    23a6:	0c 94 a8 0f 	jmp	0x1f50	; 0x1f50 <eeprom_write_byte_user>

000023aa <runed_time>:
	}
}
/////////////////////////////////////////////////////////////////
void runed_time(void)
{
	if(m_used_1s > (unsigned short)3600)//1小时
    23aa:	80 91 44 0b 	lds	r24, 0x0B44
    23ae:	90 91 45 0b 	lds	r25, 0x0B45
    23b2:	81 31       	cpi	r24, 0x11	; 17
    23b4:	9e 40       	sbci	r25, 0x0E	; 14
    23b6:	40 f1       	brcs	.+80     	; 0x2408 <runed_time+0x5e>
	{
		m_used_1s=0;
    23b8:	10 92 45 0b 	sts	0x0B45, r1
    23bc:	10 92 44 0b 	sts	0x0B44, r1
		//
		#if LIMITEDTIME_ENABLE == 1
		{
			if(m_rPara.para.limited_hours < 2)
    23c0:	60 91 6a 0a 	lds	r22, 0x0A6A
    23c4:	70 91 6b 0a 	lds	r23, 0x0A6B
    23c8:	62 30       	cpi	r22, 0x02	; 2
    23ca:	71 05       	cpc	r23, r1
    23cc:	20 f4       	brcc	.+8      	; 0x23d6 <runed_time+0x2c>
			{
				bit_used_no_time = 1;
    23ce:	81 e0       	ldi	r24, 0x01	; 1
    23d0:	80 93 03 0b 	sts	0x0B03, r24
    23d4:	0a c0       	rjmp	.+20     	; 0x23ea <runed_time+0x40>
			}
			else
			{
				m_rPara.para.limited_hours--;
    23d6:	61 50       	subi	r22, 0x01	; 1
    23d8:	71 09       	sbc	r23, r1
    23da:	70 93 6b 0a 	sts	0x0A6B, r23
    23de:	60 93 6a 0a 	sts	0x0A6A, r22
				eeprom_write_word_user((uint16_t *)&m_ePara[0].para.limited_hours,m_rPara.para.limited_hours);
    23e2:	82 e1       	ldi	r24, 0x12	; 18
    23e4:	91 e0       	ldi	r25, 0x01	; 1
    23e6:	0e 94 d3 10 	call	0x21a6	; 0x21a6 <eeprom_write_word_user>
			}
		}
		#endif
		//
		//记录运行小时
		m_rPara.para.used_hours = eeprom_read_word_user((const uint16_t *)&m_ePara[0].para.used_hours);
    23ea:	80 e2       	ldi	r24, 0x20	; 32
    23ec:	91 e0       	ldi	r25, 0x01	; 1
    23ee:	0e 94 ca 0f 	call	0x1f94	; 0x1f94 <eeprom_read_word_user>
		m_rPara.para.used_hours++;
    23f2:	bc 01       	movw	r22, r24
    23f4:	6f 5f       	subi	r22, 0xFF	; 255
    23f6:	7f 4f       	sbci	r23, 0xFF	; 255
    23f8:	70 93 79 0a 	sts	0x0A79, r23
    23fc:	60 93 78 0a 	sts	0x0A78, r22
		eeprom_write_word_user((uint16_t *)&m_ePara[0].para.used_hours,m_rPara.para.used_hours);
    2400:	80 e2       	ldi	r24, 0x20	; 32
    2402:	91 e0       	ldi	r25, 0x01	; 1
    2404:	0e 94 d3 10 	call	0x21a6	; 0x21a6 <eeprom_write_word_user>
	}
	//
	#if LIMITEDTIME_ENABLE == 1
	{
		if(1 == bit_used_no_time)
    2408:	80 91 03 0b 	lds	r24, 0x0B03
    240c:	81 30       	cpi	r24, 0x01	; 1
    240e:	29 f4       	brne	.+10     	; 0x241a <runed_time+0x70>
		{
			all_stop();//限时时间到
    2410:	0e 94 4d 0b 	call	0x169a	; 0x169a <all_stop>
			m_rPara.para.all_stop_id = 3;
    2414:	83 e0       	ldi	r24, 0x03	; 3
    2416:	80 93 6c 0a 	sts	0x0A6C, r24
    241a:	08 95       	ret

0000241c <wdt_reset_mcu>:
}
/////////////////////////////////////////////////////////////////
void wdt_reset_mcu(void)
{
	//通过看门狗来复位单片机
	is_wdt_rst = 0;
    241c:	84 b7       	in	r24, 0x34	; 52
    241e:	87 7f       	andi	r24, 0xF7	; 247
    2420:	84 bf       	out	0x34, r24	; 52
	wdt_reset(); //执行看门狗复位单片机的操作
    2422:	a8 95       	wdr
	wdt_disable();
    2424:	88 e1       	ldi	r24, 0x18	; 24
    2426:	0f b6       	in	r0, 0x3f	; 63
    2428:	f8 94       	cli
    242a:	80 93 60 00 	sts	0x0060, r24
    242e:	10 92 60 00 	sts	0x0060, r1
    2432:	0f be       	out	0x3f, r0	; 63
	#else
		//round up by default
		__ticks_dc = (uint32_t)(ceil(fabs(__tmp)));
	#endif

	__builtin_avr_delay_cycles(__ticks_dc);
    2434:	8f e4       	ldi	r24, 0x4F	; 79
    2436:	93 ec       	ldi	r25, 0xC3	; 195
    2438:	01 97       	sbiw	r24, 0x01	; 1
    243a:	f1 f7       	brne	.-4      	; 0x2438 <wdt_reset_mcu+0x1c>
    243c:	00 c0       	rjmp	.+0      	; 0x243e <wdt_reset_mcu+0x22>
    243e:	00 00       	nop
	delay_ms(50);
	cli();//看门狗复位单片机
    2440:	f8 94       	cli
	wdt_enable(WDTO_120MS);
    2442:	2b e0       	ldi	r18, 0x0B	; 11
    2444:	88 e1       	ldi	r24, 0x18	; 24
    2446:	90 e0       	ldi	r25, 0x00	; 0
    2448:	0f b6       	in	r0, 0x3f	; 63
    244a:	f8 94       	cli
    244c:	a8 95       	wdr
    244e:	80 93 60 00 	sts	0x0060, r24
    2452:	0f be       	out	0x3f, r0	; 63
    2454:	20 93 60 00 	sts	0x0060, r18
    2458:	ff cf       	rjmp	.-2      	; 0x2458 <wdt_reset_mcu+0x3c>

0000245a <set_default_para>:
	eeprom_write_word_2((uint16_t *)(p+3*EEPROM_DATA_WORD_SIZE),val);
	eeprom_write_word_2((uint16_t *)(p+4*EEPROM_DATA_WORD_SIZE),val);
}
////////////////////////////////////////////////////////////////
void set_default_para(void)
{
    245a:	cf 93       	push	r28
    245c:	df 93       	push	r29
    245e:	cd b7       	in	r28, 0x3d	; 61
    2460:	de b7       	in	r29, 0x3e	; 62
    2462:	c0 55       	subi	r28, 0x50	; 80
    2464:	d1 09       	sbc	r29, r1
    2466:	0f b6       	in	r0, 0x3f	; 63
    2468:	f8 94       	cli
    246a:	de bf       	out	0x3e, r29	; 62
    246c:	0f be       	out	0x3f, r0	; 63
    246e:	cd bf       	out	0x3d, r28	; 61
	//执行恢复出厂默认参数操作
	//
	NVM_DATA tmp;
	//
	set_default = 0;
    2470:	10 92 a8 0a 	sts	0x0AA8, r1
	//
	//外部参数
	//最高和最低转速(40-300转/分)
	tmp.para.max_vel=260;
    2474:	84 e0       	ldi	r24, 0x04	; 4
    2476:	91 e0       	ldi	r25, 0x01	; 1
    2478:	9e 83       	std	Y+6, r25	; 0x06
    247a:	8d 83       	std	Y+5, r24	; 0x05
	tmp.para.min_vel=100;
    247c:	84 e6       	ldi	r24, 0x64	; 100
    247e:	90 e0       	ldi	r25, 0x00	; 0
    2480:	98 87       	std	Y+8, r25	; 0x08
    2482:	8f 83       	std	Y+7, r24	; 0x07
	//主电机额定电流(10-100A)
	tmp.para.mmotor_cur1=35;
    2484:	83 e2       	ldi	r24, 0x23	; 35
    2486:	89 87       	std	Y+9, r24	; 0x09
	#if __D2_USED__ == TRUE
	tmp.para.mmotor_cur2=35;
	#endif
	//合轧延时时间(0.2-20s,2-200百毫秒)
	tmp.para.rollin_delay=20;
    2488:	84 e1       	ldi	r24, 0x14	; 20
    248a:	8a 87       	std	Y+10, r24	; 0x0a
	//内部参数
	//料位传感器满量程输出
	tmp.para.material_full=100;
    248c:	34 e6       	ldi	r19, 0x64	; 100
    248e:	3b 87       	std	Y+11, r19	; 0x0b
	//上电远控和上电键盘控制选择
	tmp.para.is_remote=POWER_UP_REMOTE;
    2490:	21 e0       	ldi	r18, 0x01	; 1
    2492:	2c 87       	std	Y+12, r18	; 0x0c
	//主电机过载保护停机电流
	tmp.para.mm_cur_overflow=140;
    2494:	8c e8       	ldi	r24, 0x8C	; 140
    2496:	8d 87       	std	Y+13, r24	; 0x0d
	//是否根据主电机电流进行连锁控制
	tmp.para.mm_control=1;
    2498:	2e 87       	std	Y+14, r18	; 0x0e
	//电流传感器量程
	tmp.para.cur1_full=50;
    249a:	42 e3       	ldi	r20, 0x32	; 50
    249c:	4f 87       	std	Y+15, r20	; 0x0f
	#if __D2_USED__ == TRUE
	tmp.para.cur2_full=50;
	#endif
	//料位传感器值采集端设定,默认为AD采样数据,设置为2时从485口接收数据，设置为3时用集成传感器
	tmp.para.material_port=MATERIAL_PORT_RS485_AD;//默认采样集成传感器
    249e:	28 8b       	std	Y+16, r18	; 0x10
	//
	//手动参数
	//手动转数
	tmp.para.manual_vel=120;
    24a0:	88 e7       	ldi	r24, 0x78	; 120
    24a2:	90 e0       	ldi	r25, 0x00	; 0
    24a4:	9a 8b       	std	Y+18, r25	; 0x12
    24a6:	89 8b       	std	Y+17, r24	; 0x11
	////////////////////////////////使用时间限制
	//使用天数
	tmp.para.limited_hours=(unsigned short)LIMITED_DAYS_MAX*24;
    24a8:	80 e2       	ldi	r24, 0x20	; 32
    24aa:	9d ef       	ldi	r25, 0xFD	; 253
    24ac:	9c 8b       	std	Y+20, r25	; 0x14
    24ae:	8b 8b       	std	Y+19, r24	; 0x13
	//测试用
	tmp.para.all_stop_id=0;
    24b0:	1d 8a       	std	Y+21, r1	; 0x15
	//
	//密码保护参数
	//启动料位值
	tmp.para.material_start=50;//40;
    24b2:	4e 8b       	std	Y+22, r20	; 0x16
	//停机料位值
	tmp.para.material_stop=100;
    24b4:	3f 8b       	std	Y+23, r19	; 0x17
	//电流修正值
	tmp.para.current1_modify=100;
    24b6:	38 8f       	std	Y+24, r19	; 0x18
	#if __D2_USED__ == TRUE
	tmp.para.current2_modify=100;
	#endif
	//
	//参数设置标志
	tmp.para.para_seted_flag=PARA_SETED_FLAG;
    24b8:	84 e0       	ldi	r24, 0x04	; 4
    24ba:	99 e1       	ldi	r25, 0x19	; 25
    24bc:	9a 8f       	std	Y+26, r25	; 0x1a
    24be:	89 8f       	std	Y+25, r24	; 0x19
	//
	//MODBUS通信从机地址和通信波特率
	tmp.para.addr_modbus=2;//20,27
    24c0:	82 e0       	ldi	r24, 0x02	; 2
    24c2:	8b 8f       	std	Y+27, r24	; 0x1b
	tmp.para.baud_modbus=MODBUS_BAUD_38400;//21,28//1:9600Bd,2:19200Bd,3:38400Bd
    24c4:	93 e0       	ldi	r25, 0x03	; 3
    24c6:	9c 8f       	std	Y+28, r25	; 0x1c
	//MB和DW输入选择（1：电平，2：脉冲）
	tmp.para.mb_level_pulse=MB_PULSE;//MB_LEVEL;//22//29
    24c8:	8d 8f       	std	Y+29, r24	; 0x1d
	tmp.para.dw_level_pulse=DW_LEVEL;//23//30
    24ca:	2e 8f       	std	Y+30, r18	; 0x1e
	//MB和转速之间的关系
	tmp.para.mb_div=1;//24//31
    24cc:	2f 8f       	std	Y+31, r18	; 0x1f
	//设备使用时间
	tmp.para.used_hours=0;//26//34-32
    24ce:	1a a2       	std	Y+34, r1	; 0x22
    24d0:	19 a2       	std	Y+33, r1	; 0x21

	tmp.para.set_yuzhi=5;
    24d2:	85 e0       	ldi	r24, 0x05	; 5
    24d4:	22 96       	adiw	r28, 0x02	; 2
    24d6:	8f af       	std	Y+63, r24	; 0x3f
    24d8:	22 97       	sbiw	r28, 0x02	; 2
	//
	tmp.para.w5500_net_para.ip_para.ip_addr[0] = W5500_CONF_IPADDR0;
    24da:	90 ec       	ldi	r25, 0xC0	; 192
    24dc:	9d a7       	std	Y+45, r25	; 0x2d
	tmp.para.w5500_net_para.ip_para.ip_addr[1] = W5500_CONF_IPADDR1;
    24de:	88 ea       	ldi	r24, 0xA8	; 168
    24e0:	8e a7       	std	Y+46, r24	; 0x2e
	tmp.para.w5500_net_para.ip_para.ip_addr[2] = W5500_CONF_IPADDR2;
    24e2:	1f a6       	std	Y+47, r1	; 0x2f
	tmp.para.w5500_net_para.ip_para.ip_addr[3] = W5500_CONF_IPADDR3;
    24e4:	3d ef       	ldi	r19, 0xFD	; 253
    24e6:	38 ab       	std	Y+48, r19	; 0x30
	//
	tmp.para.w5500_net_para.ip_para.gateway[0] = W5500_CONF_GATEWAY_ADDR0;
    24e8:	9d ab       	std	Y+53, r25	; 0x35
	tmp.para.w5500_net_para.ip_para.gateway[1] = W5500_CONF_GATEWAY_ADDR1;
    24ea:	8e ab       	std	Y+54, r24	; 0x36
	tmp.para.w5500_net_para.ip_para.gateway[2] = W5500_CONF_GATEWAY_ADDR2;
    24ec:	1f aa       	std	Y+55, r1	; 0x37
	tmp.para.w5500_net_para.ip_para.gateway[3] = W5500_CONF_GATEWAY_ADDR3;
    24ee:	28 af       	std	Y+56, r18	; 0x38
	//
	tmp.para.w5500_net_para.ip_para.net_mask[0] = W5500_CONF_NET_MASK0;
    24f0:	8f ef       	ldi	r24, 0xFF	; 255
    24f2:	89 ab       	std	Y+49, r24	; 0x31
	tmp.para.w5500_net_para.ip_para.net_mask[1] = W5500_CONF_NET_MASK1;
    24f4:	8a ab       	std	Y+50, r24	; 0x32
	tmp.para.w5500_net_para.ip_para.net_mask[2] = W5500_CONF_NET_MASK2;
    24f6:	8b ab       	std	Y+51, r24	; 0x33
	tmp.para.w5500_net_para.ip_para.net_mask[3] = W5500_CONF_NET_MASK3;
    24f8:	1c aa       	std	Y+52, r1	; 0x34
	unsigned char set_model;
	unsigned char set_wuliao_PID_P;
	unsigned char set_qiwang_value;
	**/

	tmp.para.set_default_zhuansu = (tmp.para.max_vel>>1) + (tmp.para.min_vel>>1);
    24fa:	84 eb       	ldi	r24, 0xB4	; 180
    24fc:	23 96       	adiw	r28, 0x03	; 3
    24fe:	8f af       	std	Y+63, r24	; 0x3f
    2500:	23 97       	sbiw	r28, 0x03	; 3
	tmp.para.set_model = 0;
    2502:	24 96       	adiw	r28, 0x04	; 4
    2504:	1f ae       	std	Y+63, r1	; 0x3f
    2506:	24 97       	sbiw	r28, 0x04	; 4
	tmp.para.set_wuliao_PID_P = 1;
    2508:	25 96       	adiw	r28, 0x05	; 5
    250a:	2f af       	std	Y+63, r18	; 0x3f
    250c:	25 97       	sbiw	r28, 0x05	; 5
	tmp.para.set_qiwang_value = 12;
    250e:	8c e0       	ldi	r24, 0x0C	; 12
    2510:	26 96       	adiw	r28, 0x06	; 6
    2512:	8f af       	std	Y+63, r24	; 0x3f
    2514:	26 97       	sbiw	r28, 0x06	; 6
	tmp.para.set_yuankong_auto_delay = 8;
    2516:	88 e0       	ldi	r24, 0x08	; 8
    2518:	27 96       	adiw	r28, 0x07	; 7
    251a:	8f af       	std	Y+63, r24	; 0x3f
    251c:	27 97       	sbiw	r28, 0x07	; 7
    




	write_para_to_eeprom(&tmp,TRUE);
    251e:	61 e0       	ldi	r22, 0x01	; 1
    2520:	ce 01       	movw	r24, r28
    2522:	01 96       	adiw	r24, 0x01	; 1
    2524:	0e 94 f7 10 	call	0x21ee	; 0x21ee <write_para_to_eeprom>
    2528:	2f e7       	ldi	r18, 0x7F	; 127
    252a:	88 e3       	ldi	r24, 0x38	; 56
    252c:	91 e0       	ldi	r25, 0x01	; 1
    252e:	21 50       	subi	r18, 0x01	; 1
    2530:	80 40       	sbci	r24, 0x00	; 0
    2532:	90 40       	sbci	r25, 0x00	; 0
    2534:	e1 f7       	brne	.-8      	; 0x252e <set_default_para+0xd4>
    2536:	00 c0       	rjmp	.+0      	; 0x2538 <set_default_para+0xde>
    2538:	00 00       	nop


	
	//
	delay_ms(100);
	wdt_reset_mcu();//重启单片机
    253a:	0e 94 0e 12 	call	0x241c	; 0x241c <wdt_reset_mcu>

0000253e <read_para>:
		auto_vel =0;
	}
}
/////////////////////////////////////////////////////////////////
void read_para(unsigned char flag)
{
    253e:	cf 93       	push	r28
    2540:	df 93       	push	r29
    2542:	c8 2f       	mov	r28, r24
	//读非易失参数
	unsigned long m_temp;
	//
	if(PARA_SETED_FLAG != eeprom_read_word_user((const uint16_t *)&m_ePara[0].para.para_seted_flag))
    2544:	88 e1       	ldi	r24, 0x18	; 24
    2546:	91 e0       	ldi	r25, 0x01	; 1
    2548:	0e 94 ca 0f 	call	0x1f94	; 0x1f94 <eeprom_read_word_user>
    254c:	84 30       	cpi	r24, 0x04	; 4
    254e:	99 41       	sbci	r25, 0x19	; 25
    2550:	79 f0       	breq	.+30     	; 0x2570 <read_para+0x32>
    2552:	8f e4       	ldi	r24, 0x4F	; 79
    2554:	93 ec       	ldi	r25, 0xC3	; 195
    2556:	01 97       	sbiw	r24, 0x01	; 1
    2558:	f1 f7       	brne	.-4      	; 0x2556 <read_para+0x18>
    255a:	00 c0       	rjmp	.+0      	; 0x255c <read_para+0x1e>
    255c:	00 00       	nop
	{ 
		delay_ms(50);
		if(PARA_SETED_FLAG != eeprom_read_word_user((const uint16_t *)&m_ePara[0].para.para_seted_flag))
    255e:	88 e1       	ldi	r24, 0x18	; 24
    2560:	91 e0       	ldi	r25, 0x01	; 1
    2562:	0e 94 ca 0f 	call	0x1f94	; 0x1f94 <eeprom_read_word_user>
    2566:	84 30       	cpi	r24, 0x04	; 4
    2568:	99 41       	sbci	r25, 0x19	; 25
    256a:	11 f0       	breq	.+4      	; 0x2570 <read_para+0x32>
		{
			//如果标志不正常，设置默认参数
			set_default_para();
    256c:	0e 94 2d 12 	call	0x245a	; 0x245a <set_default_para>
			return;//正常情况下代码执行不到这里，显性的表示执行过程			
		}
	}
	//
	//版本号
	if(version_h!=eeprom_read_word_user((const uint16_t *)(&m_ePara[0].para.version_h)))
    2570:	80 e0       	ldi	r24, 0x00	; 0
    2572:	91 e0       	ldi	r25, 0x01	; 1
    2574:	0e 94 ca 0f 	call	0x1f94	; 0x1f94 <eeprom_read_word_user>
    2578:	89 31       	cpi	r24, 0x19	; 25
    257a:	94 40       	sbci	r25, 0x04	; 4
    257c:	31 f0       	breq	.+12     	; 0x258a <read_para+0x4c>
	{
		eeprom_write_word_user((uint16_t *)(&m_ePara[0].para.version_h),version_h);
    257e:	69 e1       	ldi	r22, 0x19	; 25
    2580:	74 e0       	ldi	r23, 0x04	; 4
    2582:	80 e0       	ldi	r24, 0x00	; 0
    2584:	91 e0       	ldi	r25, 0x01	; 1
    2586:	0e 94 d3 10 	call	0x21a6	; 0x21a6 <eeprom_write_word_user>
	}
	if(version_l!=eeprom_read_word_user((const uint16_t *)(&m_ePara[0].para.version_l)))
    258a:	82 e0       	ldi	r24, 0x02	; 2
    258c:	91 e0       	ldi	r25, 0x01	; 1
    258e:	0e 94 ca 0f 	call	0x1f94	; 0x1f94 <eeprom_read_word_user>
    2592:	81 31       	cpi	r24, 0x11	; 17
    2594:	94 41       	sbci	r25, 0x14	; 20
    2596:	31 f0       	breq	.+12     	; 0x25a4 <read_para+0x66>
	{
		eeprom_write_word_user((uint16_t *)(&m_ePara[0].para.version_l),version_l);
    2598:	61 e1       	ldi	r22, 0x11	; 17
    259a:	74 e1       	ldi	r23, 0x14	; 20
    259c:	82 e0       	ldi	r24, 0x02	; 2
    259e:	91 e0       	ldi	r25, 0x01	; 1
    25a0:	0e 94 d3 10 	call	0x21a6	; 0x21a6 <eeprom_write_word_user>
	}
	//
	//料位传感器满量程
	m_rPara.para.material_full=100;
    25a4:	84 e6       	ldi	r24, 0x64	; 100
    25a6:	80 93 62 0a 	sts	0x0A62, r24
	//上电远控&上电键盘控制
	m_rPara.para.is_remote=eeprom_read_byte_user(&m_ePara[0].para.is_remote);
    25aa:	8b e0       	ldi	r24, 0x0B	; 11
    25ac:	91 e0       	ldi	r25, 0x01	; 1
    25ae:	0e 94 e9 0e 	call	0x1dd2	; 0x1dd2 <eeprom_read_byte_user>
    25b2:	80 93 63 0a 	sts	0x0A63, r24
	if(0 == flag)
    25b6:	c1 11       	cpse	r28, r1
    25b8:	18 c0       	rjmp	.+48     	; 0x25ea <read_para+0xac>
    25ba:	90 91 19 0d 	lds	r25, 0x0D19
	{
		//上电时
		if(POWER_UP_REMOTE == m_rPara.para.is_remote)
    25be:	81 30       	cpi	r24, 0x01	; 1
    25c0:	31 f4       	brne	.+12     	; 0x25ce <read_para+0x90>
		{
			bit_remote = 1;
    25c2:	80 93 40 0b 	sts	0x0B40, r24
			modbus_status.status.m_yk = STATUS_ON;
    25c6:	91 60       	ori	r25, 0x01	; 1
    25c8:	90 93 19 0d 	sts	0x0D19, r25
    25cc:	0e c0       	rjmp	.+28     	; 0x25ea <read_para+0xac>
		}
		else
		{
			m_rPara.para.is_remote = POWER_UP_KEYPAD;
    25ce:	82 e0       	ldi	r24, 0x02	; 2
    25d0:	80 93 63 0a 	sts	0x0A63, r24
			bit_remote = 0;
    25d4:	10 92 40 0b 	sts	0x0B40, r1
			modbus_status.status.m_yk = STATUS_OFF;
    25d8:	89 2f       	mov	r24, r25
    25da:	8e 7f       	andi	r24, 0xFE	; 254
    25dc:	80 93 19 0d 	sts	0x0D19, r24
			eeprom_write_byte_user(&m_ePara[0].para.is_remote,m_rPara.para.is_remote);
    25e0:	62 e0       	ldi	r22, 0x02	; 2
    25e2:	8b e0       	ldi	r24, 0x0B	; 11
    25e4:	91 e0       	ldi	r25, 0x01	; 1
    25e6:	0e 94 a8 0f 	call	0x1f50	; 0x1f50 <eeprom_write_byte_user>
		}
	}
	//主电机过载保护停机电流
	m_rPara.para.mm_cur_overflow=eeprom_read_byte_user(&m_ePara[0].para.mm_cur_overflow);
    25ea:	8c e0       	ldi	r24, 0x0C	; 12
    25ec:	91 e0       	ldi	r25, 0x01	; 1
    25ee:	0e 94 e9 0e 	call	0x1dd2	; 0x1dd2 <eeprom_read_byte_user>
	if(m_rPara.para.mm_cur_overflow < 100)
    25f2:	84 36       	cpi	r24, 0x64	; 100
    25f4:	10 f4       	brcc	.+4      	; 0x25fa <read_para+0xbc>
	{
		m_rPara.para.mm_cur_overflow=100;
    25f6:	84 e6       	ldi	r24, 0x64	; 100
    25f8:	03 c0       	rjmp	.+6      	; 0x2600 <read_para+0xc2>
	}
	else if(m_rPara.para.mm_cur_overflow > 200)
    25fa:	89 3c       	cpi	r24, 0xC9	; 201
    25fc:	08 f0       	brcs	.+2      	; 0x2600 <read_para+0xc2>
	{
		m_rPara.para.mm_cur_overflow=200;
    25fe:	88 ec       	ldi	r24, 0xC8	; 200
    2600:	80 93 64 0a 	sts	0x0A64, r24
	}
	//连锁控制
	m_rPara.para.mm_control=eeprom_read_byte_user(&m_ePara[0].para.mm_control);
    2604:	8d e0       	ldi	r24, 0x0D	; 13
    2606:	91 e0       	ldi	r25, 0x01	; 1
    2608:	0e 94 e9 0e 	call	0x1dd2	; 0x1dd2 <eeprom_read_byte_user>
    260c:	80 93 65 0a 	sts	0x0A65, r24
	if(0 == m_rPara.para.mm_control)
    2610:	81 11       	cpse	r24, r1
    2612:	04 c0       	rjmp	.+8      	; 0x261c <read_para+0xde>
	{
		bit_mm_control=1;
    2614:	81 e0       	ldi	r24, 0x01	; 1
    2616:	80 93 c1 0a 	sts	0x0AC1, r24
    261a:	05 c0       	rjmp	.+10     	; 0x2626 <read_para+0xe8>
	}
	else
	{
		m_rPara.para.mm_control=1;
    261c:	81 e0       	ldi	r24, 0x01	; 1
    261e:	80 93 65 0a 	sts	0x0A65, r24
		bit_mm_control=0;
    2622:	10 92 c1 0a 	sts	0x0AC1, r1
	}
	//电流传感器量程
	m_rPara.para.cur1_full=eeprom_read_byte_user(&m_ePara[0].para.cur1_full);//50
    2626:	8e e0       	ldi	r24, 0x0E	; 14
    2628:	91 e0       	ldi	r25, 0x01	; 1
    262a:	0e 94 e9 0e 	call	0x1dd2	; 0x1dd2 <eeprom_read_byte_user>
	if(m_rPara.para.cur1_full > FULL_CURRENT)
    262e:	85 36       	cpi	r24, 0x65	; 101
    2630:	10 f0       	brcs	.+4      	; 0x2636 <read_para+0xf8>
	{
		m_rPara.para.cur1_full=FULL_CURRENT;
    2632:	84 e6       	ldi	r24, 0x64	; 100
    2634:	03 c0       	rjmp	.+6      	; 0x263c <read_para+0xfe>
	}
	else if(m_rPara.para.cur1_full < 10)
    2636:	8a 30       	cpi	r24, 0x0A	; 10
    2638:	08 f4       	brcc	.+2      	; 0x263c <read_para+0xfe>
	{
		m_rPara.para.cur1_full=10;
    263a:	8a e0       	ldi	r24, 0x0A	; 10
    263c:	80 93 66 0a 	sts	0x0A66, r24
	else if(m_rPara.para.cur2_full < 10)
	{
		m_rPara.para.cur2_full=10;
	}
	#else
	m_rPara.para.cur2_full=FULL_CURRENT;
    2640:	84 e6       	ldi	r24, 0x64	; 100
    2642:	80 93 7b 0a 	sts	0x0A7B, r24
	#endif
	//最高转速&最低转速
	m_rPara.para.max_vel=eeprom_read_word_user((const uint16_t *)&m_ePara[0].para.max_vel);
    2646:	84 e0       	ldi	r24, 0x04	; 4
    2648:	91 e0       	ldi	r25, 0x01	; 1
    264a:	0e 94 ca 0f 	call	0x1f94	; 0x1f94 <eeprom_read_word_user>
	if(m_rPara.para.max_vel > MAX_VEL)
    264e:	8d 32       	cpi	r24, 0x2D	; 45
    2650:	61 e0       	ldi	r22, 0x01	; 1
    2652:	96 07       	cpc	r25, r22
    2654:	18 f0       	brcs	.+6      	; 0x265c <read_para+0x11e>
	{
		m_rPara.para.max_vel=MAX_VEL;
    2656:	8c e2       	ldi	r24, 0x2C	; 44
    2658:	91 e0       	ldi	r25, 0x01	; 1
    265a:	05 c0       	rjmp	.+10     	; 0x2666 <read_para+0x128>
	}
	else if(m_rPara.para.max_vel < MIN_VEL)
    265c:	88 32       	cpi	r24, 0x28	; 40
    265e:	91 05       	cpc	r25, r1
    2660:	10 f4       	brcc	.+4      	; 0x2666 <read_para+0x128>
	{
		m_rPara.para.max_vel=MIN_VEL;
    2662:	88 e2       	ldi	r24, 0x28	; 40
    2664:	90 e0       	ldi	r25, 0x00	; 0
    2666:	90 93 5d 0a 	sts	0x0A5D, r25
    266a:	80 93 5c 0a 	sts	0x0A5C, r24
	}
	m_rPara.para.min_vel=eeprom_read_word_user((const uint16_t *)&m_ePara[0].para.min_vel);
    266e:	86 e0       	ldi	r24, 0x06	; 6
    2670:	91 e0       	ldi	r25, 0x01	; 1
    2672:	0e 94 ca 0f 	call	0x1f94	; 0x1f94 <eeprom_read_word_user>
	if(m_rPara.para.min_vel < MIN_VEL)
    2676:	88 32       	cpi	r24, 0x28	; 40
    2678:	91 05       	cpc	r25, r1
    267a:	18 f4       	brcc	.+6      	; 0x2682 <read_para+0x144>
	{
		m_rPara.para.min_vel=MIN_VEL;
    267c:	88 e2       	ldi	r24, 0x28	; 40
    267e:	90 e0       	ldi	r25, 0x00	; 0
    2680:	06 c0       	rjmp	.+12     	; 0x268e <read_para+0x150>
	}
	else if(m_rPara.para.min_vel > MAX_VEL)
    2682:	8d 32       	cpi	r24, 0x2D	; 45
    2684:	21 e0       	ldi	r18, 0x01	; 1
    2686:	92 07       	cpc	r25, r18
    2688:	10 f0       	brcs	.+4      	; 0x268e <read_para+0x150>
	{
		m_rPara.para.min_vel=MAX_VEL;
    268a:	8c e2       	ldi	r24, 0x2C	; 44
    268c:	91 e0       	ldi	r25, 0x01	; 1
    268e:	90 93 5f 0a 	sts	0x0A5F, r25
    2692:	80 93 5e 0a 	sts	0x0A5E, r24
	}
	//主电机额定电流
	m_rPara.para.mmotor_cur1=eeprom_read_byte_user(&m_ePara[0].para.mmotor_cur1);
    2696:	88 e0       	ldi	r24, 0x08	; 8
    2698:	91 e0       	ldi	r25, 0x01	; 1
    269a:	0e 94 e9 0e 	call	0x1dd2	; 0x1dd2 <eeprom_read_byte_user>
    269e:	80 93 60 0a 	sts	0x0A60, r24
	if(m_rPara.para.mmotor_cur1 > m_rPara.para.cur1_full)
    26a2:	90 91 66 0a 	lds	r25, 0x0A66
    26a6:	98 17       	cp	r25, r24
    26a8:	18 f4       	brcc	.+6      	; 0x26b0 <read_para+0x172>
	{
		m_rPara.para.mmotor_cur1=m_rPara.para.cur1_full;
    26aa:	90 93 60 0a 	sts	0x0A60, r25
    26ae:	05 c0       	rjmp	.+10     	; 0x26ba <read_para+0x17c>
	}
	else if(m_rPara.para.mmotor_cur1 < 10)
    26b0:	8a 30       	cpi	r24, 0x0A	; 10
    26b2:	18 f4       	brcc	.+6      	; 0x26ba <read_para+0x17c>
	{
		m_rPara.para.mmotor_cur1=10;
    26b4:	8a e0       	ldi	r24, 0x0A	; 10
    26b6:	80 93 60 0a 	sts	0x0A60, r24
	else if(m_rPara.para.mmotor_cur2 < 10)
	{
		m_rPara.para.mmotor_cur2=10;
	}
	#else
	m_rPara.para.mmotor_cur2=10;
    26ba:	8a e0       	ldi	r24, 0x0A	; 10
    26bc:	80 93 7a 0a 	sts	0x0A7A, r24
	#endif
	//合轧延时时间
	m_rPara.para.rollin_delay=eeprom_read_byte_user(&m_ePara[0].para.rollin_delay);
    26c0:	89 e0       	ldi	r24, 0x09	; 9
    26c2:	91 e0       	ldi	r25, 0x01	; 1
    26c4:	0e 94 e9 0e 	call	0x1dd2	; 0x1dd2 <eeprom_read_byte_user>
	if(m_rPara.para.rollin_delay < 2)//100ms为单位
    26c8:	82 30       	cpi	r24, 0x02	; 2
    26ca:	10 f4       	brcc	.+4      	; 0x26d0 <read_para+0x192>
	{
		m_rPara.para.rollin_delay=2;
    26cc:	82 e0       	ldi	r24, 0x02	; 2
    26ce:	03 c0       	rjmp	.+6      	; 0x26d6 <read_para+0x198>
	}
	else if(m_rPara.para.rollin_delay > 200)
    26d0:	89 3c       	cpi	r24, 0xC9	; 201
    26d2:	08 f0       	brcs	.+2      	; 0x26d6 <read_para+0x198>
	{
		m_rPara.para.rollin_delay=200;
    26d4:	88 ec       	ldi	r24, 0xC8	; 200
    26d6:	80 93 61 0a 	sts	0x0A61, r24
	}
	//手动转速
	m_rPara.para.manual_vel=eeprom_read_word_user((const uint16_t *)&m_ePara[0].para.manual_vel);
    26da:	80 e1       	ldi	r24, 0x10	; 16
    26dc:	91 e0       	ldi	r25, 0x01	; 1
    26de:	0e 94 ca 0f 	call	0x1f94	; 0x1f94 <eeprom_read_word_user>
    26e2:	90 93 69 0a 	sts	0x0A69, r25
    26e6:	80 93 68 0a 	sts	0x0A68, r24
	if(m_rPara.para.manual_vel < m_rPara.para.min_vel)
    26ea:	20 91 5e 0a 	lds	r18, 0x0A5E
    26ee:	30 91 5f 0a 	lds	r19, 0x0A5F
    26f2:	82 17       	cp	r24, r18
    26f4:	93 07       	cpc	r25, r19
    26f6:	38 f0       	brcs	.+14     	; 0x2706 <read_para+0x1c8>
	{
		m_rPara.para.manual_vel=m_rPara.para.min_vel;
	}
	else if(m_rPara.para.manual_vel > m_rPara.para.max_vel)
    26f8:	20 91 5c 0a 	lds	r18, 0x0A5C
    26fc:	30 91 5d 0a 	lds	r19, 0x0A5D
    2700:	28 17       	cp	r18, r24
    2702:	39 07       	cpc	r19, r25
    2704:	20 f4       	brcc	.+8      	; 0x270e <read_para+0x1d0>
	{
		m_rPara.para.manual_vel=m_rPara.para.max_vel;
    2706:	30 93 69 0a 	sts	0x0A69, r19
    270a:	20 93 68 0a 	sts	0x0A68, r18
	}
	//时间限制参数
	#if LIMITEDTIME_ENABLE == 1
	{
		m_rPara.para.limited_hours=eeprom_read_word_user((const uint16_t *)&m_ePara[0].para.limited_hours);
    270e:	82 e1       	ldi	r24, 0x12	; 18
    2710:	91 e0       	ldi	r25, 0x01	; 1
    2712:	0e 94 ca 0f 	call	0x1f94	; 0x1f94 <eeprom_read_word_user>
    2716:	90 93 6b 0a 	sts	0x0A6B, r25
    271a:	80 93 6a 0a 	sts	0x0A6A, r24
		if(0==m_rPara.para.limited_hours)
    271e:	00 97       	sbiw	r24, 0x00	; 0
    2720:	21 f4       	brne	.+8      	; 0x272a <read_para+0x1ec>
		{
			bit_used_no_time=1;
    2722:	81 e0       	ldi	r24, 0x01	; 1
    2724:	80 93 03 0b 	sts	0x0B03, r24
    2728:	21 c0       	rjmp	.+66     	; 0x276c <read_para+0x22e>
		}
		else
		{
			limited_days = m_rPara.para.limited_hours/24;
    272a:	68 e1       	ldi	r22, 0x18	; 24
    272c:	70 e0       	ldi	r23, 0x00	; 0
    272e:	0e 94 22 37 	call	0x6e44	; 0x6e44 <__udivmodhi4>
    2732:	70 93 66 0b 	sts	0x0B66, r23
    2736:	60 93 65 0b 	sts	0x0B65, r22
			if(limited_days > LIMITED_DAYS_MAX)
    273a:	80 91 65 0b 	lds	r24, 0x0B65
    273e:	90 91 66 0b 	lds	r25, 0x0B66
    2742:	8d 38       	cpi	r24, 0x8D	; 141
    2744:	9a 40       	sbci	r25, 0x0A	; 10
    2746:	30 f0       	brcs	.+12     	; 0x2754 <read_para+0x216>
			{
				limited_days = LIMITED_DAYS_MAX;
    2748:	8c e8       	ldi	r24, 0x8C	; 140
    274a:	9a e0       	ldi	r25, 0x0A	; 10
    274c:	90 93 66 0b 	sts	0x0B66, r25
    2750:	80 93 65 0b 	sts	0x0B65, r24
			}
			if(0==limited_days)
    2754:	80 91 65 0b 	lds	r24, 0x0B65
    2758:	90 91 66 0b 	lds	r25, 0x0B66
    275c:	89 2b       	or	r24, r25
    275e:	31 f4       	brne	.+12     	; 0x276c <read_para+0x22e>
			{
				limited_days = 1;
    2760:	81 e0       	ldi	r24, 0x01	; 1
    2762:	90 e0       	ldi	r25, 0x00	; 0
    2764:	90 93 66 0b 	sts	0x0B66, r25
    2768:	80 93 65 0b 	sts	0x0B65, r24
			}
		}
	}
	#endif
	//料位数据读取端口设置
	m_rPara.para.material_port=eeprom_read_byte_user(&m_ePara[0].para.material_port);
    276c:	8f e0       	ldi	r24, 0x0F	; 15
    276e:	91 e0       	ldi	r25, 0x01	; 1
    2770:	0e 94 e9 0e 	call	0x1dd2	; 0x1dd2 <eeprom_read_byte_user>
	if((m_rPara.para.material_port>MATERIAL_PORT_ONLY_AD) || (m_rPara.para.material_port<MATERIAL_PORT_RS485_AD))
    2774:	9f ef       	ldi	r25, 0xFF	; 255
    2776:	98 0f       	add	r25, r24
    2778:	93 30       	cpi	r25, 0x03	; 3
    277a:	08 f0       	brcs	.+2      	; 0x277e <read_para+0x240>
	{
		m_rPara.para.material_port=MATERIAL_PORT_RS485_AD;//默认用集成传感器
    277c:	81 e0       	ldi	r24, 0x01	; 1
    277e:	80 93 67 0a 	sts	0x0A67, r24
	}
	//启动料位值
	m_rPara.para.material_start=eeprom_read_byte_user(&m_ePara[0].para.material_start);
    2782:	85 e1       	ldi	r24, 0x15	; 21
    2784:	91 e0       	ldi	r25, 0x01	; 1
    2786:	0e 94 e9 0e 	call	0x1dd2	; 0x1dd2 <eeprom_read_byte_user>
	if(m_rPara.para.material_start < 30)
    278a:	8e 31       	cpi	r24, 0x1E	; 30
    278c:	10 f4       	brcc	.+4      	; 0x2792 <read_para+0x254>
	{
		m_rPara.para.material_start=30;
    278e:	8e e1       	ldi	r24, 0x1E	; 30
    2790:	03 c0       	rjmp	.+6      	; 0x2798 <read_para+0x25a>
	}
	else if(m_rPara.para.material_start > 100)
    2792:	85 36       	cpi	r24, 0x65	; 101
    2794:	08 f0       	brcs	.+2      	; 0x2798 <read_para+0x25a>
	{
		m_rPara.para.material_start=100;
    2796:	84 e6       	ldi	r24, 0x64	; 100
    2798:	80 93 6d 0a 	sts	0x0A6D, r24
	}
	//12890*5/100 .=. 645
	m_material_start_modify = 645;
    279c:	85 e8       	ldi	r24, 0x85	; 133
    279e:	92 e0       	ldi	r25, 0x02	; 2
    27a0:	90 93 fb 0a 	sts	0x0AFB, r25
    27a4:	80 93 fa 0a 	sts	0x0AFA, r24
	m_material_start_modify *= m_rPara.para.material_start;
    27a8:	20 91 fa 0a 	lds	r18, 0x0AFA
    27ac:	30 91 fb 0a 	lds	r19, 0x0AFB
    27b0:	40 91 6d 0a 	lds	r20, 0x0A6D
    27b4:	42 9f       	mul	r20, r18
    27b6:	c0 01       	movw	r24, r0
    27b8:	43 9f       	mul	r20, r19
    27ba:	90 0d       	add	r25, r0
    27bc:	11 24       	eor	r1, r1
    27be:	90 93 fb 0a 	sts	0x0AFB, r25
    27c2:	80 93 fa 0a 	sts	0x0AFA, r24
	//停止料位值
	m_rPara.para.material_stop=eeprom_read_byte_user(&m_ePara[0].para.material_stop);
    27c6:	86 e1       	ldi	r24, 0x16	; 22
    27c8:	91 e0       	ldi	r25, 0x01	; 1
    27ca:	0e 94 e9 0e 	call	0x1dd2	; 0x1dd2 <eeprom_read_byte_user>
	if(m_rPara.para.material_stop < 80)
    27ce:	80 35       	cpi	r24, 0x50	; 80
    27d0:	10 f4       	brcc	.+4      	; 0x27d6 <read_para+0x298>
	{
		m_rPara.para.material_stop = 80;
    27d2:	80 e5       	ldi	r24, 0x50	; 80
    27d4:	03 c0       	rjmp	.+6      	; 0x27dc <read_para+0x29e>
	}
	else if(m_rPara.para.material_stop > 150)
    27d6:	87 39       	cpi	r24, 0x97	; 151
    27d8:	08 f0       	brcs	.+2      	; 0x27dc <read_para+0x29e>
	{
		m_rPara.para.material_stop = 150;
    27da:	86 e9       	ldi	r24, 0x96	; 150
    27dc:	80 93 6e 0a 	sts	0x0A6E, r24
	}
	//12890/100 .=. 129
	m_material_stop_modify = 129;
    27e0:	81 e8       	ldi	r24, 0x81	; 129
    27e2:	90 e0       	ldi	r25, 0x00	; 0
    27e4:	90 93 e4 0a 	sts	0x0AE4, r25
    27e8:	80 93 e3 0a 	sts	0x0AE3, r24
	m_material_stop_modify *= m_rPara.para.material_stop;
    27ec:	20 91 e3 0a 	lds	r18, 0x0AE3
    27f0:	30 91 e4 0a 	lds	r19, 0x0AE4
    27f4:	40 91 6e 0a 	lds	r20, 0x0A6E
    27f8:	42 9f       	mul	r20, r18
    27fa:	c0 01       	movw	r24, r0
    27fc:	43 9f       	mul	r20, r19
    27fe:	90 0d       	add	r25, r0
    2800:	11 24       	eor	r1, r1
    2802:	90 93 e4 0a 	sts	0x0AE4, r25
    2806:	80 93 e3 0a 	sts	0x0AE3, r24
	//电流修正值
	m_rPara.para.current1_modify=eeprom_read_byte_user(&m_ePara[0].para.current1_modify);
    280a:	87 e1       	ldi	r24, 0x17	; 23
    280c:	91 e0       	ldi	r25, 0x01	; 1
    280e:	0e 94 e9 0e 	call	0x1dd2	; 0x1dd2 <eeprom_read_byte_user>
	if(m_rPara.para.current1_modify < 70)
    2812:	86 34       	cpi	r24, 0x46	; 70
    2814:	10 f4       	brcc	.+4      	; 0x281a <read_para+0x2dc>
	{
		m_rPara.para.current1_modify=70;
    2816:	86 e4       	ldi	r24, 0x46	; 70
    2818:	03 c0       	rjmp	.+6      	; 0x2820 <read_para+0x2e2>
	}
	else if(m_rPara.para.current1_modify > 130)
    281a:	83 38       	cpi	r24, 0x83	; 131
    281c:	08 f0       	brcs	.+2      	; 0x2820 <read_para+0x2e2>
	{
		m_rPara.para.current1_modify=130;
    281e:	82 e8       	ldi	r24, 0x82	; 130
    2820:	80 93 6f 0a 	sts	0x0A6F, r24
	else if(m_rPara.para.current2_modify > 130)
	{
		m_rPara.para.current2_modify=130;
	}
	#else
	m_rPara.para.current2_modify=100;
    2824:	84 e6       	ldi	r24, 0x64	; 100
    2826:	80 93 77 0a 	sts	0x0A77, r24
	#endif
	//
	//MODBUS通信地址
#if MODBUS_TEST == FALSE
	m_rPara.para.addr_modbus=eeprom_read_byte_user(&m_ePara[0].para.addr_modbus);
    282a:	8a e1       	ldi	r24, 0x1A	; 26
    282c:	91 e0       	ldi	r25, 0x01	; 1
    282e:	0e 94 e9 0e 	call	0x1dd2	; 0x1dd2 <eeprom_read_byte_user>
	if(m_rPara.para.addr_modbus < 2)
    2832:	82 30       	cpi	r24, 0x02	; 2
    2834:	08 f4       	brcc	.+2      	; 0x2838 <read_para+0x2fa>
	{
		m_rPara.para.addr_modbus = 2;
    2836:	82 e0       	ldi	r24, 0x02	; 2
    2838:	80 93 72 0a 	sts	0x0A72, r24
	//MODBUS通信波特率
	//1:9600Bd
	//2:19200Bd
	//3:38400Bd
#if MODBUS_TEST == FALSE
	m_rPara.para.baud_modbus=eeprom_read_byte_user(&m_ePara[0].para.baud_modbus);
    283c:	8b e1       	ldi	r24, 0x1B	; 27
    283e:	91 e0       	ldi	r25, 0x01	; 1
    2840:	0e 94 e9 0e 	call	0x1dd2	; 0x1dd2 <eeprom_read_byte_user>
	if(m_rPara.para.baud_modbus < MODBUS_BAUD_9600)
    2844:	81 11       	cpse	r24, r1
    2846:	02 c0       	rjmp	.+4      	; 0x284c <read_para+0x30e>
	{
		m_rPara.para.baud_modbus = MODBUS_BAUD_9600;
    2848:	81 e0       	ldi	r24, 0x01	; 1
    284a:	03 c0       	rjmp	.+6      	; 0x2852 <read_para+0x314>
	}
	else if(m_rPara.para.baud_modbus > MODBUS_BAUD_38400)
    284c:	84 30       	cpi	r24, 0x04	; 4
    284e:	08 f0       	brcs	.+2      	; 0x2852 <read_para+0x314>
	{
		m_rPara.para.baud_modbus = MODBUS_BAUD_38400;
    2850:	83 e0       	ldi	r24, 0x03	; 3
    2852:	80 93 73 0a 	sts	0x0A73, r24
#else
	m_rPara.para.baud_modbus = MODBUS_BAUD_38400;//for test
#endif
	//MB输入选择
	//1:电平	2:脉冲
	m_rPara.para.mb_level_pulse=eeprom_read_byte_user(&m_ePara[0].para.mb_level_pulse);
    2856:	8c e1       	ldi	r24, 0x1C	; 28
    2858:	91 e0       	ldi	r25, 0x01	; 1
    285a:	0e 94 e9 0e 	call	0x1dd2	; 0x1dd2 <eeprom_read_byte_user>
	if(MB_LEVEL != m_rPara.para.mb_level_pulse)
    285e:	81 30       	cpi	r24, 0x01	; 1
    2860:	09 f0       	breq	.+2      	; 0x2864 <read_para+0x326>
	{
		m_rPara.para.mb_level_pulse = MB_PULSE;
    2862:	82 e0       	ldi	r24, 0x02	; 2
    2864:	80 93 74 0a 	sts	0x0A74, r24
	}
	//DW输入选择
	//1:电平	2:脉冲
	m_rPara.para.dw_level_pulse=eeprom_read_byte_user(&m_ePara[0].para.dw_level_pulse);
    2868:	8d e1       	ldi	r24, 0x1D	; 29
    286a:	91 e0       	ldi	r25, 0x01	; 1
    286c:	0e 94 e9 0e 	call	0x1dd2	; 0x1dd2 <eeprom_read_byte_user>
	if(DW_LEVEL != m_rPara.para.dw_level_pulse)
    2870:	81 30       	cpi	r24, 0x01	; 1
    2872:	09 f0       	breq	.+2      	; 0x2876 <read_para+0x338>
	{
		m_rPara.para.dw_level_pulse = DW_PULSE;
    2874:	82 e0       	ldi	r24, 0x02	; 2
    2876:	80 93 75 0a 	sts	0x0A75, r24
	}
	//MB和转速之间的关系
	m_rPara.para.mb_div=eeprom_read_byte_user(&m_ePara[0].para.mb_div);
    287a:	8e e1       	ldi	r24, 0x1E	; 30
    287c:	91 e0       	ldi	r25, 0x01	; 1
    287e:	0e 94 e9 0e 	call	0x1dd2	; 0x1dd2 <eeprom_read_byte_user>
	if(m_rPara.para.mb_div < 1)
    2882:	81 11       	cpse	r24, r1
    2884:	02 c0       	rjmp	.+4      	; 0x288a <read_para+0x34c>
	{
		m_rPara.para.mb_div=1;
    2886:	81 e0       	ldi	r24, 0x01	; 1
    2888:	03 c0       	rjmp	.+6      	; 0x2890 <read_para+0x352>
	}
	else if(m_rPara.para.mb_div > 99)
    288a:	84 36       	cpi	r24, 0x64	; 100
    288c:	08 f0       	brcs	.+2      	; 0x2890 <read_para+0x352>
	{
		m_rPara.para.mb_div=99;
    288e:	83 e6       	ldi	r24, 0x63	; 99
    2890:	80 93 76 0a 	sts	0x0A76, r24
	}
	//设备使用时间（小时）
	m_rPara.para.used_hours = eeprom_read_word_user((const uint16_t *)&m_ePara[0].para.used_hours);
    2894:	80 e2       	ldi	r24, 0x20	; 32
    2896:	91 e0       	ldi	r25, 0x01	; 1
    2898:	0e 94 ca 0f 	call	0x1f94	; 0x1f94 <eeprom_read_word_user>
    289c:	90 93 79 0a 	sts	0x0A79, r25
    28a0:	80 93 78 0a 	sts	0x0A78, r24
	////////////////////////////////
	//这段代码最好放在该函数的最后，因为它要用到一些函数中读出的参数，
	//为了避免某些参数没有读出而造成非预期的效果，放该函数最后，确保
	//参数都已经读出（正确初始化了）。
	//为了后面的比较做准备
	m_temp = m_rPara.para.mmotor_cur1;//35A
    28a4:	d0 91 60 0a 	lds	r29, 0x0A60
	m_temp *= m_rPara.para.mm_cur_overflow;//140%
    28a8:	20 91 64 0a 	lds	r18, 0x0A64
    28ac:	30 e0       	ldi	r19, 0x00	; 0
    28ae:	ad 2f       	mov	r26, r29
    28b0:	b0 e0       	ldi	r27, 0x00	; 0
    28b2:	0e 94 72 37 	call	0x6ee4	; 0x6ee4 <__umulhisi3>
	m_temp += 5;//四舍五入
    28b6:	6b 5f       	subi	r22, 0xFB	; 251
    28b8:	7f 4f       	sbci	r23, 0xFF	; 255
    28ba:	8f 4f       	sbci	r24, 0xFF	; 255
    28bc:	9f 4f       	sbci	r25, 0xFF	; 255
	mm_cur_overflow_stop = m_temp/10;//主电机电流溢出停机阈值//490
    28be:	2a e0       	ldi	r18, 0x0A	; 10
    28c0:	30 e0       	ldi	r19, 0x00	; 0
    28c2:	40 e0       	ldi	r20, 0x00	; 0
    28c4:	50 e0       	ldi	r21, 0x00	; 0
    28c6:	0e 94 4a 37 	call	0x6e94	; 0x6e94 <__udivmodsi4>
    28ca:	30 93 68 0b 	sts	0x0B68, r19
    28ce:	20 93 67 0b 	sts	0x0B67, r18
	if(mm_cur_overflow_stop >= m_rPara.para.cur1_full*10)
    28d2:	80 91 66 0a 	lds	r24, 0x0A66
    28d6:	6a e0       	ldi	r22, 0x0A	; 10
    28d8:	86 9f       	mul	r24, r22
    28da:	c0 01       	movw	r24, r0
    28dc:	11 24       	eor	r1, r1
    28de:	28 17       	cp	r18, r24
    28e0:	39 07       	cpc	r19, r25
    28e2:	28 f0       	brcs	.+10     	; 0x28ee <read_para+0x3b0>
	{
		//电流过载上限值大于电流传感器最大量程了，限制在最大量程内
		mm_cur_overflow_stop = m_rPara.para.cur1_full*10 - 5;
    28e4:	05 97       	sbiw	r24, 0x05	; 5
    28e6:	90 93 68 0b 	sts	0x0B68, r25
    28ea:	80 93 67 0b 	sts	0x0B67, r24
	}
	//
	mmotor_cur1_cmp = m_rPara.para.mmotor_cur1*10;//主电机溢出阈值//350
    28ee:	2a e0       	ldi	r18, 0x0A	; 10
    28f0:	d2 9f       	mul	r29, r18
    28f2:	c0 01       	movw	r24, r0
    28f4:	11 24       	eor	r1, r1
    28f6:	90 93 47 0b 	sts	0x0B47, r25
    28fa:	80 93 46 0b 	sts	0x0B46, r24
		//
		mmotor_cur2_cmp = m_rPara.para.mmotor_cur2*10;//主电机溢出阈值//350
	}
	#endif

    if(0 == flag)
    28fe:	c1 11       	cpse	r28, r1
    2900:	5f c0       	rjmp	.+190    	; 0x29c0 <read_para+0x482>
    {
        m_rPara.para.zuo_qi=eeprom_read_word_user((const uint16_t *)&m_ePara[0].para.zuo_qi);
    2902:	8a e3       	ldi	r24, 0x3A	; 58
    2904:	91 e0       	ldi	r25, 0x01	; 1
    2906:	0e 94 ca 0f 	call	0x1f94	; 0x1f94 <eeprom_read_word_user>
    290a:	90 93 93 0a 	sts	0x0A93, r25
    290e:	80 93 92 0a 	sts	0x0A92, r24
        zuo_gao = m_rPara.para.zuo_qi;
    2912:	90 93 12 0e 	sts	0x0E12, r25
    2916:	80 93 11 0e 	sts	0x0E11, r24

        m_rPara.para.zuo_ling=eeprom_read_word_user((const uint16_t *)&m_ePara[0].para.zuo_ling);
    291a:	88 e3       	ldi	r24, 0x38	; 56
    291c:	91 e0       	ldi	r25, 0x01	; 1
    291e:	0e 94 ca 0f 	call	0x1f94	; 0x1f94 <eeprom_read_word_user>
    2922:	90 93 91 0a 	sts	0x0A91, r25
    2926:	80 93 90 0a 	sts	0x0A90, r24
        zuo_di = m_rPara.para.zuo_ling;
    292a:	90 93 15 0e 	sts	0x0E15, r25
    292e:	80 93 14 0e 	sts	0x0E14, r24
            eeprom_write_word_user((uint16_t *)&m_ePara[0].para.zuo_qi,m_rPara.para.zuo_qi);


        }

        m_rPara.para.you_qi=eeprom_read_word_user((const uint16_t  *)&m_ePara[0].para.you_qi);
    2932:	8e e3       	ldi	r24, 0x3E	; 62
    2934:	91 e0       	ldi	r25, 0x01	; 1
    2936:	0e 94 ca 0f 	call	0x1f94	; 0x1f94 <eeprom_read_word_user>
    293a:	90 93 97 0a 	sts	0x0A97, r25
    293e:	80 93 96 0a 	sts	0x0A96, r24
        you_gao = m_rPara.para.you_qi;
    2942:	90 93 17 0e 	sts	0x0E17, r25
    2946:	80 93 16 0e 	sts	0x0E16, r24
        m_rPara.para.you_ling=eeprom_read_word_user((const uint16_t *)&m_ePara[0].para.you_ling);
    294a:	8c e3       	ldi	r24, 0x3C	; 60
    294c:	91 e0       	ldi	r25, 0x01	; 1
    294e:	0e 94 ca 0f 	call	0x1f94	; 0x1f94 <eeprom_read_word_user>
    2952:	90 93 95 0a 	sts	0x0A95, r25
    2956:	80 93 94 0a 	sts	0x0A94, r24
        you_di = m_rPara.para.you_ling;
    295a:	90 93 19 0e 	sts	0x0E19, r25
    295e:	80 93 18 0e 	sts	0x0E18, r24
            m_rPara.para.you_qi = 800;
            eeprom_write_word_user((uint16_t *)&m_ePara[0].para.you_ling,m_rPara.para.you_ling);
            eeprom_write_word_user((uint16_t *)&m_ePara[0].para.you_qi,m_rPara.para.you_qi);
        }
		
		m_rPara.para.set_yuzhi=eeprom_read_byte_user(&m_ePara[0].para.set_yuzhi);
    2962:	80 e4       	ldi	r24, 0x40	; 64
    2964:	91 e0       	ldi	r25, 0x01	; 1
    2966:	0e 94 e9 0e 	call	0x1dd2	; 0x1dd2 <eeprom_read_byte_user>
    296a:	80 93 98 0a 	sts	0x0A98, r24

        TRACE_STRING("read eeprom");
    296e:	6b e0       	ldi	r22, 0x0B	; 11
    2970:	8b ee       	ldi	r24, 0xEB	; 235
    2972:	94 e0       	ldi	r25, 0x04	; 4
    2974:	0e 94 20 2b 	call	0x5640	; 0x5640 <send_uart1_to_computer>
        send_ulong_ascii(m_rPara.para.zuo_ling ,TRUE);
    2978:	60 91 90 0a 	lds	r22, 0x0A90
    297c:	70 91 91 0a 	lds	r23, 0x0A91
    2980:	80 e0       	ldi	r24, 0x00	; 0
    2982:	90 e0       	ldi	r25, 0x00	; 0
    2984:	41 e0       	ldi	r20, 0x01	; 1
    2986:	0e 94 21 2b 	call	0x5642	; 0x5642 <send_ulong_ascii>
        send_ulong_ascii(m_rPara.para.zuo_qi ,TRUE);
    298a:	60 91 92 0a 	lds	r22, 0x0A92
    298e:	70 91 93 0a 	lds	r23, 0x0A93
    2992:	80 e0       	ldi	r24, 0x00	; 0
    2994:	90 e0       	ldi	r25, 0x00	; 0
    2996:	41 e0       	ldi	r20, 0x01	; 1
    2998:	0e 94 21 2b 	call	0x5642	; 0x5642 <send_ulong_ascii>
        send_ulong_ascii(m_rPara.para.you_ling ,TRUE);
    299c:	60 91 94 0a 	lds	r22, 0x0A94
    29a0:	70 91 95 0a 	lds	r23, 0x0A95
    29a4:	80 e0       	ldi	r24, 0x00	; 0
    29a6:	90 e0       	ldi	r25, 0x00	; 0
    29a8:	41 e0       	ldi	r20, 0x01	; 1
    29aa:	0e 94 21 2b 	call	0x5642	; 0x5642 <send_ulong_ascii>
        send_ulong_ascii(m_rPara.para.you_qi ,TRUE);
    29ae:	60 91 96 0a 	lds	r22, 0x0A96
    29b2:	70 91 97 0a 	lds	r23, 0x0A97
    29b6:	80 e0       	ldi	r24, 0x00	; 0
    29b8:	90 e0       	ldi	r25, 0x00	; 0
    29ba:	41 e0       	ldi	r20, 0x01	; 1
    29bc:	0e 94 21 2b 	call	0x5642	; 0x5642 <send_ulong_ascii>
    }



	//静态转速
	m_rPara.para.set_default_zhuansu=eeprom_read_byte_user(&m_ePara[0].para.set_default_zhuansu);
    29c0:	81 e4       	ldi	r24, 0x41	; 65
    29c2:	91 e0       	ldi	r25, 0x01	; 1
    29c4:	0e 94 e9 0e 	call	0x1dd2	; 0x1dd2 <eeprom_read_byte_user>
    29c8:	80 93 99 0a 	sts	0x0A99, r24
	if(m_rPara.para.set_default_zhuansu < m_rPara.para.min_vel
    29cc:	90 e0       	ldi	r25, 0x00	; 0
    29ce:	20 91 5e 0a 	lds	r18, 0x0A5E
    29d2:	30 91 5f 0a 	lds	r19, 0x0A5F
    29d6:	40 91 5c 0a 	lds	r20, 0x0A5C
    29da:	50 91 5d 0a 	lds	r21, 0x0A5D
    29de:	82 17       	cp	r24, r18
    29e0:	93 07       	cpc	r25, r19
    29e2:	18 f0       	brcs	.+6      	; 0x29ea <read_para+0x4ac>
		|| m_rPara.para.set_default_zhuansu > m_rPara.para.max_vel)
    29e4:	48 17       	cp	r20, r24
    29e6:	59 07       	cpc	r21, r25
    29e8:	38 f4       	brcc	.+14     	; 0x29f8 <read_para+0x4ba>
	{
		m_rPara.para.set_default_zhuansu = (m_rPara.para.min_vel >>1) + (m_rPara.para.max_vel >> 1) ;
    29ea:	56 95       	lsr	r21
    29ec:	47 95       	ror	r20
    29ee:	36 95       	lsr	r19
    29f0:	27 95       	ror	r18
    29f2:	24 0f       	add	r18, r20
    29f4:	20 93 99 0a 	sts	0x0A99, r18
	}

    //设置模式
    m_rPara.para.set_model=eeprom_read_byte_user(&m_ePara[0].para.set_model);
    29f8:	82 e4       	ldi	r24, 0x42	; 66
    29fa:	91 e0       	ldi	r25, 0x01	; 1
    29fc:	0e 94 e9 0e 	call	0x1dd2	; 0x1dd2 <eeprom_read_byte_user>
	if(m_rPara.para.set_model >1 )
    2a00:	82 30       	cpi	r24, 0x02	; 2
    2a02:	18 f4       	brcc	.+6      	; 0x2a0a <read_para+0x4cc>
	{
		m_rPara.para.set_default_zhuansu = (m_rPara.para.min_vel >>1) + (m_rPara.para.max_vel >> 1) ;
	}

    //设置模式
    m_rPara.para.set_model=eeprom_read_byte_user(&m_ePara[0].para.set_model);
    2a04:	80 93 9a 0a 	sts	0x0A9A, r24
    2a08:	02 c0       	rjmp	.+4      	; 0x2a0e <read_para+0x4d0>
	if(m_rPara.para.set_model >1 )
	{
		m_rPara.para.set_model = 0 ;
    2a0a:	10 92 9a 0a 	sts	0x0A9A, r1
	}

	//设置比例系数
    m_rPara.para.set_wuliao_PID_P=eeprom_read_byte_user(&m_ePara[0].para.set_wuliao_PID_P);
    2a0e:	83 e4       	ldi	r24, 0x43	; 67
    2a10:	91 e0       	ldi	r25, 0x01	; 1
    2a12:	0e 94 e9 0e 	call	0x1dd2	; 0x1dd2 <eeprom_read_byte_user>
	if(m_rPara.para.set_wuliao_PID_P ==0   )
    2a16:	81 11       	cpse	r24, r1
    2a18:	01 c0       	rjmp	.+2      	; 0x2a1c <read_para+0x4de>
	{
		m_rPara.para.set_wuliao_PID_P = 1 ;
    2a1a:	81 e0       	ldi	r24, 0x01	; 1
    2a1c:	80 93 9b 0a 	sts	0x0A9B, r24
	}

	if(m_rPara.para.set_wuliao_PID_P ==255   )
    2a20:	80 91 9b 0a 	lds	r24, 0x0A9B
    2a24:	8f 3f       	cpi	r24, 0xFF	; 255
    2a26:	19 f4       	brne	.+6      	; 0x2a2e <read_para+0x4f0>
	{
		m_rPara.para.set_wuliao_PID_P = 1 ;
    2a28:	81 e0       	ldi	r24, 0x01	; 1
    2a2a:	80 93 9b 0a 	sts	0x0A9B, r24
	}

	
	//设置期望值
    m_rPara.para.set_qiwang_value=eeprom_read_byte_user(&m_ePara[0].para.set_qiwang_value);
    2a2e:	84 e4       	ldi	r24, 0x44	; 68
    2a30:	91 e0       	ldi	r25, 0x01	; 1
    2a32:	0e 94 e9 0e 	call	0x1dd2	; 0x1dd2 <eeprom_read_byte_user>
	if(m_rPara.para.set_qiwang_value < 5 
		||  m_rPara.para.set_qiwang_value >19   )
    2a36:	9b ef       	ldi	r25, 0xFB	; 251
    2a38:	98 0f       	add	r25, r24
	}

	
	//设置期望值
    m_rPara.para.set_qiwang_value=eeprom_read_byte_user(&m_ePara[0].para.set_qiwang_value);
	if(m_rPara.para.set_qiwang_value < 5 
    2a3a:	9f 30       	cpi	r25, 0x0F	; 15
    2a3c:	08 f0       	brcs	.+2      	; 0x2a40 <read_para+0x502>
		||  m_rPara.para.set_qiwang_value >19   )
	{
		m_rPara.para.set_qiwang_value = 12 ;
    2a3e:	8c e0       	ldi	r24, 0x0C	; 12
    2a40:	80 93 9c 0a 	sts	0x0A9C, r24
	}


	//设置远控自动延迟时间
	m_rPara.para.set_yuankong_auto_delay=eeprom_read_byte_user(&m_ePara[0].para.set_yuankong_auto_delay);
    2a44:	85 e4       	ldi	r24, 0x45	; 69
    2a46:	91 e0       	ldi	r25, 0x01	; 1
    2a48:	0e 94 e9 0e 	call	0x1dd2	; 0x1dd2 <eeprom_read_byte_user>
	if(m_rPara.para.set_yuankong_auto_delay == 1 
    2a4c:	81 30       	cpi	r24, 0x01	; 1
    2a4e:	11 f0       	breq	.+4      	; 0x2a54 <read_para+0x516>
		|| 	m_rPara.para.set_yuankong_auto_delay > 30	)
    2a50:	8f 31       	cpi	r24, 0x1F	; 31
    2a52:	08 f0       	brcs	.+2      	; 0x2a56 <read_para+0x518>
	{
		m_rPara.para.set_yuankong_auto_delay = 8 ;
    2a54:	88 e0       	ldi	r24, 0x08	; 8
    2a56:	80 93 9d 0a 	sts	0x0A9D, r24
	}

	
	/////////////////////////////////
}
    2a5a:	df 91       	pop	r29
    2a5c:	cf 91       	pop	r28
    2a5e:	08 95       	ret

00002a60 <reset_set_status>:
	}
}
/////////////////////////////////////////////////////////////////
void reset_set_status(void)
{
	bit_setmode = 0;
    2a60:	10 92 c5 0a 	sts	0x0AC5, r1
	bit_setmode_1 = 0;
    2a64:	10 92 06 0b 	sts	0x0B06, r1
	bit_setmode_2 = 0;
    2a68:	10 92 c9 0a 	sts	0x0AC9, r1
	bit_setmode_3 = 0;
    2a6c:	10 92 aa 0a 	sts	0x0AAA, r1
	bit_setmode_password = 0;
    2a70:	10 92 cb 0a 	sts	0x0ACB, r1
	bit_setmode_delay = 0;
    2a74:	10 92 c4 0a 	sts	0x0AC4, r1
	pagenumber = 0;
    2a78:	10 92 b8 0a 	sts	0x0AB8, r1
	set_idle_wait = 0;
    2a7c:	10 92 de 0a 	sts	0x0ADE, r1
    TRACE_STRING("reset_set_status");
    2a80:	60 e1       	ldi	r22, 0x10	; 16
    2a82:	87 ef       	ldi	r24, 0xF7	; 247
    2a84:	94 e0       	ldi	r25, 0x04	; 4
    2a86:	0e 94 20 2b 	call	0x5640	; 0x5640 <send_uart1_to_computer>
	read_para(1);//不允许初始化上电参数
    2a8a:	81 e0       	ldi	r24, 0x01	; 1
    2a8c:	0e 94 9f 12 	call	0x253e	; 0x253e <read_para>
	//
	arg_set_process = 0xff;
    2a90:	8f ef       	ldi	r24, 0xFF	; 255
    2a92:	80 93 e6 0a 	sts	0x0AE6, r24
	bit_setmode_pwd_time = 0;
    2a96:	10 92 01 0b 	sts	0x0B01, r1
	//
	set_default = 0;
    2a9a:	10 92 a8 0a 	sts	0x0AA8, r1
    2a9e:	08 95       	ret

00002aa0 <key_auto_run>:
{
	#if MUSTSTOPFIRST == TRUE
	if((0==bit_auto) && (0==bit_manual))
	#endif
	{
		bit_auto = 1;
    2aa0:	81 e0       	ldi	r24, 0x01	; 1
    2aa2:	80 93 0d 0b 	sts	0x0B0D, r24
		modbus_status.status.m_zd = STATUS_ON;
    2aa6:	e9 e1       	ldi	r30, 0x19	; 25
    2aa8:	fd e0       	ldi	r31, 0x0D	; 13
    2aaa:	80 81       	ld	r24, Z
		bit_manual = 0;
    2aac:	10 92 fe 0a 	sts	0x0AFE, r1
		modbus_status.status.m_sd = STATUS_OFF;
    2ab0:	82 60       	ori	r24, 0x02	; 2
    2ab2:	8b 7f       	andi	r24, 0xFB	; 251
    2ab4:	80 83       	st	Z, r24
		bit_xieliao = 0;
    2ab6:	10 92 ed 0a 	sts	0x0AED, r1
		enable_mb_delay = 0;
    2aba:	10 92 ab 0a 	sts	0x0AAB, r1
		//
		TRACE_STRING("key_auto_run");
    2abe:	6c e0       	ldi	r22, 0x0C	; 12
    2ac0:	88 e0       	ldi	r24, 0x08	; 8
    2ac2:	95 e0       	ldi	r25, 0x05	; 5
    2ac4:	0e 94 20 2b 	call	0x5640	; 0x5640 <send_uart1_to_computer>
		reset_set_status();
    2ac8:	0c 94 30 15 	jmp	0x2a60	; 0x2a60 <reset_set_status>

00002acc <run_in_remote_ctrl>:
	static unsigned long the_last_time_of_byq_high=0;
	static unsigned long the_last_time_of_byq_low=0;
	static unsigned long the_last_time_of_byz_byq_high=0;
	static unsigned long the_last_time_of_byz_byq_low=0;
	//
	if(1 == bit_remote)//远控模式
    2acc:	80 91 40 0b 	lds	r24, 0x0B40
    2ad0:	81 30       	cpi	r24, 0x01	; 1
    2ad2:	09 f0       	breq	.+2      	; 0x2ad6 <run_in_remote_ctrl+0xa>
    2ad4:	f4 c0       	rjmp	.+488    	; 0x2cbe <run_in_remote_ctrl+0x1f2>
	{
		//扫描YQ,YZ,MB
		//远控主电机启动
		if(0 == byq)
    2ad6:	03 99       	sbic	0x00, 3	; 0
    2ad8:	33 c0       	rjmp	.+102    	; 0x2b40 <run_in_remote_ctrl+0x74>
		{
			the_last_time_of_byq_low = boot_time;
    2ada:	80 91 58 0b 	lds	r24, 0x0B58
    2ade:	90 91 59 0b 	lds	r25, 0x0B59
    2ae2:	a0 91 5a 0b 	lds	r26, 0x0B5A
    2ae6:	b0 91 5b 0b 	lds	r27, 0x0B5B
    2aea:	80 93 04 08 	sts	0x0804, r24
    2aee:	90 93 05 08 	sts	0x0805, r25
    2af2:	a0 93 06 08 	sts	0x0806, r26
    2af6:	b0 93 07 08 	sts	0x0807, r27
			//
			if((boot_time-the_last_time_of_byq_high) > 200)  //2秒   
    2afa:	80 91 58 0b 	lds	r24, 0x0B58
    2afe:	90 91 59 0b 	lds	r25, 0x0B59
    2b02:	a0 91 5a 0b 	lds	r26, 0x0B5A
    2b06:	b0 91 5b 0b 	lds	r27, 0x0B5B
    2b0a:	40 91 00 08 	lds	r20, 0x0800
    2b0e:	50 91 01 08 	lds	r21, 0x0801
    2b12:	60 91 02 08 	lds	r22, 0x0802
    2b16:	70 91 03 08 	lds	r23, 0x0803
    2b1a:	84 1b       	sub	r24, r20
    2b1c:	95 0b       	sbc	r25, r21
    2b1e:	a6 0b       	sbc	r26, r22
    2b20:	b7 0b       	sbc	r27, r23
    2b22:	89 3c       	cpi	r24, 0xC9	; 201
    2b24:	91 05       	cpc	r25, r1
    2b26:	a1 05       	cpc	r26, r1
    2b28:	b1 05       	cpc	r27, r1
    2b2a:	08 f4       	brcc	.+2      	; 0x2b2e <run_in_remote_ctrl+0x62>
    2b2c:	40 c0       	rjmp	.+128    	; 0x2bae <run_in_remote_ctrl+0xe2>
			{
				if(0 == bit_mmotor)
    2b2e:	80 91 43 0b 	lds	r24, 0x0B43
    2b32:	81 11       	cpse	r24, r1
    2b34:	3c c0       	rjmp	.+120    	; 0x2bae <run_in_remote_ctrl+0xe2>
				{
					//启动喂料辊
					roll_out();
    2b36:	0e 94 00 0b 	call	0x1600	; 0x1600 <roll_out>
					mmotor_start();
    2b3a:	0e 94 d6 0a 	call	0x15ac	; 0x15ac <mmotor_start>
    2b3e:	37 c0       	rjmp	.+110    	; 0x2bae <run_in_remote_ctrl+0xe2>
			}
		}
		else
		{
			//byq=1
			the_last_time_of_byq_high = boot_time;
    2b40:	80 91 58 0b 	lds	r24, 0x0B58
    2b44:	90 91 59 0b 	lds	r25, 0x0B59
    2b48:	a0 91 5a 0b 	lds	r26, 0x0B5A
    2b4c:	b0 91 5b 0b 	lds	r27, 0x0B5B
    2b50:	80 93 00 08 	sts	0x0800, r24
    2b54:	90 93 01 08 	sts	0x0801, r25
    2b58:	a0 93 02 08 	sts	0x0802, r26
    2b5c:	b0 93 03 08 	sts	0x0803, r27
			//
			if((boot_time-the_last_time_of_byq_low) > 500)
    2b60:	80 91 58 0b 	lds	r24, 0x0B58
    2b64:	90 91 59 0b 	lds	r25, 0x0B59
    2b68:	a0 91 5a 0b 	lds	r26, 0x0B5A
    2b6c:	b0 91 5b 0b 	lds	r27, 0x0B5B
    2b70:	40 91 04 08 	lds	r20, 0x0804
    2b74:	50 91 05 08 	lds	r21, 0x0805
    2b78:	60 91 06 08 	lds	r22, 0x0806
    2b7c:	70 91 07 08 	lds	r23, 0x0807
    2b80:	84 1b       	sub	r24, r20
    2b82:	95 0b       	sbc	r25, r21
    2b84:	a6 0b       	sbc	r26, r22
    2b86:	b7 0b       	sbc	r27, r23
    2b88:	85 3f       	cpi	r24, 0xF5	; 245
    2b8a:	91 40       	sbci	r25, 0x01	; 1
    2b8c:	a1 05       	cpc	r26, r1
    2b8e:	b1 05       	cpc	r27, r1
    2b90:	70 f0       	brcs	.+28     	; 0x2bae <run_in_remote_ctrl+0xe2>
			{
				//if((1==bit_mmotor) || (1==bit_fmotor))
				if((1==bit_mmotor))
    2b92:	80 91 43 0b 	lds	r24, 0x0B43
    2b96:	81 30       	cpi	r24, 0x01	; 1
    2b98:	11 f4       	brne	.+4      	; 0x2b9e <run_in_remote_ctrl+0xd2>
				{
					m_rPara.para.all_stop_id = 1;
    2b9a:	80 93 6c 0a 	sts	0x0A6C, r24
					//eeprom_write_byte_user(&m_ePara[0].para.all_stop_id, m_rPara.para.all_stop_id);
				}
				//
				all_stop();//远控模式下
    2b9e:	0e 94 4d 0b 	call	0x169a	; 0x169a <all_stop>
				//
				KillTimer(MT_AUTO_RUN_DELAY);
    2ba2:	84 e9       	ldi	r24, 0x94	; 148
    2ba4:	93 e1       	ldi	r25, 0x13	; 19
    2ba6:	0e 94 b1 29 	call	0x5362	; 0x5362 <KillTimer>
				reset_cause = RST_CAUSE_OTHER;
    2baa:	10 92 c3 09 	sts	0x09C3, r1
		}
		//
		//信号来了之后进入
		//远控自动运行

		if((0==byz) && (0==byq))
    2bae:	04 99       	sbic	0x00, 4	; 0
    2bb0:	4d c0       	rjmp	.+154    	; 0x2c4c <run_in_remote_ctrl+0x180>
    2bb2:	03 99       	sbic	0x00, 3	; 0
    2bb4:	4b c0       	rjmp	.+150    	; 0x2c4c <run_in_remote_ctrl+0x180>
		{
			the_last_time_of_byz_byq_low = boot_time;
    2bb6:	80 91 58 0b 	lds	r24, 0x0B58
    2bba:	90 91 59 0b 	lds	r25, 0x0B59
    2bbe:	a0 91 5a 0b 	lds	r26, 0x0B5A
    2bc2:	b0 91 5b 0b 	lds	r27, 0x0B5B
    2bc6:	80 93 fc 07 	sts	0x07FC, r24
    2bca:	90 93 fd 07 	sts	0x07FD, r25
    2bce:	a0 93 fe 07 	sts	0x07FE, r26
    2bd2:	b0 93 ff 07 	sts	0x07FF, r27
			//
			if((boot_time-the_last_time_of_byz_byq_high) > 20)
    2bd6:	80 91 58 0b 	lds	r24, 0x0B58
    2bda:	90 91 59 0b 	lds	r25, 0x0B59
    2bde:	a0 91 5a 0b 	lds	r26, 0x0B5A
    2be2:	b0 91 5b 0b 	lds	r27, 0x0B5B
    2be6:	40 91 f8 07 	lds	r20, 0x07F8
    2bea:	50 91 f9 07 	lds	r21, 0x07F9
    2bee:	60 91 fa 07 	lds	r22, 0x07FA
    2bf2:	70 91 fb 07 	lds	r23, 0x07FB
    2bf6:	84 1b       	sub	r24, r20
    2bf8:	95 0b       	sbc	r25, r21
    2bfa:	a6 0b       	sbc	r26, r22
    2bfc:	b7 0b       	sbc	r27, r23
    2bfe:	45 97       	sbiw	r24, 0x15	; 21
    2c00:	a1 05       	cpc	r26, r1
    2c02:	b1 05       	cpc	r27, r1
    2c04:	08 f4       	brcc	.+2      	; 0x2c08 <run_in_remote_ctrl+0x13c>
    2c06:	5b c0       	rjmp	.+182    	; 0x2cbe <run_in_remote_ctrl+0x1f2>
			{
				if(0 == bit_auto)
    2c08:	80 91 0d 0b 	lds	r24, 0x0B0D
    2c0c:	81 11       	cpse	r24, r1
    2c0e:	57 c0       	rjmp	.+174    	; 0x2cbe <run_in_remote_ctrl+0x1f2>
				{
					if(RST_CAUSE_WDT == reset_cause)
    2c10:	80 91 c3 09 	lds	r24, 0x09C3
    2c14:	88 30       	cpi	r24, 0x08	; 8
    2c16:	11 f4       	brne	.+4      	; 0x2c1c <run_in_remote_ctrl+0x150>
					{
						//看门狗复位
						key_auto_run();
    2c18:	0c 94 50 15 	jmp	0x2aa0	; 0x2aa0 <key_auto_run>
					}
					else
					{
						//其它
						if(FALSE == timer_is_running(MT_AUTO_RUN_DELAY))
    2c1c:	84 e9       	ldi	r24, 0x94	; 148
    2c1e:	93 e1       	ldi	r25, 0x13	; 19
    2c20:	0e 94 cc 2a 	call	0x5598	; 0x5598 <timer_is_running>
    2c24:	81 11       	cpse	r24, r1
    2c26:	4b c0       	rjmp	.+150    	; 0x2cbe <run_in_remote_ctrl+0x1f2>
						{
							//SetTimer(MT_AUTO_RUN_DELAY, 8*1000, 0);//远程状态下 YQ YZ信号同时输入等待8秒执行自动
						   SetTimer(MT_AUTO_RUN_DELAY, m_rPara.para.set_yuankong_auto_delay*1000, 0);
    2c28:	20 91 9d 0a 	lds	r18, 0x0A9D
    2c2c:	88 ee       	ldi	r24, 0xE8	; 232
    2c2e:	93 e0       	ldi	r25, 0x03	; 3
    2c30:	28 9f       	mul	r18, r24
    2c32:	a0 01       	movw	r20, r0
    2c34:	29 9f       	mul	r18, r25
    2c36:	50 0d       	add	r21, r0
    2c38:	11 24       	eor	r1, r1
    2c3a:	66 27       	eor	r22, r22
    2c3c:	57 fd       	sbrc	r21, 7
    2c3e:	60 95       	com	r22
    2c40:	76 2f       	mov	r23, r22
    2c42:	20 e0       	ldi	r18, 0x00	; 0
    2c44:	84 e9       	ldi	r24, 0x94	; 148
    2c46:	93 e1       	ldi	r25, 0x13	; 19
    2c48:	0c 94 3a 29 	jmp	0x5274	; 0x5274 <SetTimer>
						}					
					}
				}
			}
		}
		else if(1 == byz)
    2c4c:	04 9b       	sbis	0x00, 4	; 0
    2c4e:	37 c0       	rjmp	.+110    	; 0x2cbe <run_in_remote_ctrl+0x1f2>
		{
			//byz和byq不全为低电平
			the_last_time_of_byz_byq_high = boot_time;
    2c50:	80 91 58 0b 	lds	r24, 0x0B58
    2c54:	90 91 59 0b 	lds	r25, 0x0B59
    2c58:	a0 91 5a 0b 	lds	r26, 0x0B5A
    2c5c:	b0 91 5b 0b 	lds	r27, 0x0B5B
    2c60:	80 93 f8 07 	sts	0x07F8, r24
    2c64:	90 93 f9 07 	sts	0x07F9, r25
    2c68:	a0 93 fa 07 	sts	0x07FA, r26
    2c6c:	b0 93 fb 07 	sts	0x07FB, r27
			//

			if((boot_time-the_last_time_of_byz_byq_low) > 200)
    2c70:	80 91 58 0b 	lds	r24, 0x0B58
    2c74:	90 91 59 0b 	lds	r25, 0x0B59
    2c78:	a0 91 5a 0b 	lds	r26, 0x0B5A
    2c7c:	b0 91 5b 0b 	lds	r27, 0x0B5B
    2c80:	40 91 fc 07 	lds	r20, 0x07FC
    2c84:	50 91 fd 07 	lds	r21, 0x07FD
    2c88:	60 91 fe 07 	lds	r22, 0x07FE
    2c8c:	70 91 ff 07 	lds	r23, 0x07FF
    2c90:	84 1b       	sub	r24, r20
    2c92:	95 0b       	sbc	r25, r21
    2c94:	a6 0b       	sbc	r26, r22
    2c96:	b7 0b       	sbc	r27, r23
    2c98:	89 3c       	cpi	r24, 0xC9	; 201
    2c9a:	91 05       	cpc	r25, r1
    2c9c:	a1 05       	cpc	r26, r1
    2c9e:	b1 05       	cpc	r27, r1
    2ca0:	70 f0       	brcs	.+28     	; 0x2cbe <run_in_remote_ctrl+0x1f2>
			{
				bit_auto = 0;					
    2ca2:	10 92 0d 0b 	sts	0x0B0D, r1
				if(1 == bit_fmotor)
    2ca6:	80 91 33 0b 	lds	r24, 0x0B33
    2caa:	81 30       	cpi	r24, 0x01	; 1
    2cac:	41 f4       	brne	.+16     	; 0x2cbe <run_in_remote_ctrl+0x1f2>
				{
				    	
					KillTimer(MT_AUTO_RUN_DELAY);
    2cae:	84 e9       	ldi	r24, 0x94	; 148
    2cb0:	93 e1       	ldi	r25, 0x13	; 19
    2cb2:	0e 94 b1 29 	call	0x5362	; 0x5362 <KillTimer>
					reset_cause = RST_CAUSE_OTHER;
    2cb6:	10 92 c3 09 	sts	0x09C3, r1
					part_stop();
    2cba:	0c 94 39 0b 	jmp	0x1672	; 0x1672 <part_stop>
    2cbe:	08 95       	ret

00002cc0 <key_manual_run>:
{
	#if MUSTSTOPFIRST == TRUE
	if((0==bit_auto) && (0==bit_manual))
	#endif
	{
		bit_manual = 1;
    2cc0:	81 e0       	ldi	r24, 0x01	; 1
    2cc2:	80 93 fe 0a 	sts	0x0AFE, r24
		modbus_status.status.m_sd = STATUS_ON;
    2cc6:	e9 e1       	ldi	r30, 0x19	; 25
    2cc8:	fd e0       	ldi	r31, 0x0D	; 13
    2cca:	80 81       	ld	r24, Z
		bit_auto = 0;
    2ccc:	10 92 0d 0b 	sts	0x0B0D, r1
		modbus_status.status.m_zd = STATUS_OFF;
    2cd0:	84 60       	ori	r24, 0x04	; 4
    2cd2:	8d 7f       	andi	r24, 0xFD	; 253
    2cd4:	80 83       	st	Z, r24
		bit_xieliao = 0;
    2cd6:	10 92 ed 0a 	sts	0x0AED, r1
		enable_mb_delay = 0;
    2cda:	10 92 ab 0a 	sts	0x0AAB, r1
		//
		fmotor_start();//喂料电机启动
    2cde:	0e 94 20 0b 	call	0x1640	; 0x1640 <fmotor_start>
		enable_wait_rollin();
    2ce2:	0e 94 57 0b 	call	0x16ae	; 0x16ae <enable_wait_rollin>
		//
		TRACE_STRING("key_manual_run");
    2ce6:	6e e0       	ldi	r22, 0x0E	; 14
    2ce8:	85 e1       	ldi	r24, 0x15	; 21
    2cea:	95 e0       	ldi	r25, 0x05	; 5
    2cec:	0e 94 20 2b 	call	0x5640	; 0x5640 <send_uart1_to_computer>
		reset_set_status();
    2cf0:	0c 94 30 15 	jmp	0x2a60	; 0x2a60 <reset_set_status>

00002cf4 <save_para>:
}
/////////////////////////////////////////////////////////////////
//根据页号保存参数
void save_para()
{
	if(1==bit_setmode_2)
    2cf4:	80 91 c9 0a 	lds	r24, 0x0AC9
    2cf8:	81 30       	cpi	r24, 0x01	; 1
    2cfa:	79 f5       	brne	.+94     	; 0x2d5a <save_para+0x66>
	{
		//内部参数
		switch(pagenumber)
    2cfc:	80 91 b8 0a 	lds	r24, 0x0AB8
    2d00:	90 e0       	ldi	r25, 0x00	; 0
    2d02:	88 30       	cpi	r24, 0x08	; 8
    2d04:	91 05       	cpc	r25, r1
    2d06:	08 f0       	brcs	.+2      	; 0x2d0a <save_para+0x16>
    2d08:	f9 c0       	rjmp	.+498    	; 0x2efc <save_para+0x208>
    2d0a:	fc 01       	movw	r30, r24
    2d0c:	e6 5b       	subi	r30, 0xB6	; 182
    2d0e:	ff 4f       	sbci	r31, 0xFF	; 255
    2d10:	0c 94 6c 37 	jmp	0x6ed8	; 0x6ed8 <__tablejump2__>
		{
			case 0://料位传感器满量程输出(50%-100%)
			{
				eeprom_write_byte_user(&m_ePara[0].para.material_full,m_rPara.para.material_full);
    2d14:	60 91 62 0a 	lds	r22, 0x0A62
    2d18:	8a e0       	ldi	r24, 0x0A	; 10
    2d1a:	91 e0       	ldi	r25, 0x01	; 1
    2d1c:	e4 c0       	rjmp	.+456    	; 0x2ee6 <save_para+0x1f2>
			}
			break;
			case 1://上电远控与上电键盘控制选择. 1:上电远控  2:上电键盘控制
			{
				eeprom_write_byte_user(&m_ePara[0].para.is_remote,m_rPara.para.is_remote);
    2d1e:	60 91 63 0a 	lds	r22, 0x0A63
    2d22:	8b e0       	ldi	r24, 0x0B	; 11
    2d24:	91 e0       	ldi	r25, 0x01	; 1
    2d26:	df c0       	rjmp	.+446    	; 0x2ee6 <save_para+0x1f2>
			}
			break;
			case 2://主电机过载保护停机电流 (额定电流的100%-200%)
			{
				eeprom_write_byte_user(&m_ePara[0].para.mm_cur_overflow,m_rPara.para.mm_cur_overflow);
    2d28:	60 91 64 0a 	lds	r22, 0x0A64
    2d2c:	8c e0       	ldi	r24, 0x0C	; 12
    2d2e:	91 e0       	ldi	r25, 0x01	; 1
    2d30:	da c0       	rjmp	.+436    	; 0x2ee6 <save_para+0x1f2>
			}
			break;
			case 3://是否根据主电机电流进行连锁控制   0:连锁控制  1:不连锁控制
			{
				eeprom_write_byte_user(&m_ePara[0].para.mm_control,m_rPara.para.mm_control);
    2d32:	60 91 65 0a 	lds	r22, 0x0A65
    2d36:	8d e0       	ldi	r24, 0x0D	; 13
    2d38:	91 e0       	ldi	r25, 0x01	; 1
    2d3a:	d5 c0       	rjmp	.+426    	; 0x2ee6 <save_para+0x1f2>
			}
			break;
			case 4://电流传感器量程(10-100A),主电机电流
			{
				eeprom_write_byte_user(&m_ePara[0].para.cur1_full,m_rPara.para.cur1_full);
    2d3c:	60 91 66 0a 	lds	r22, 0x0A66
    2d40:	8e e0       	ldi	r24, 0x0E	; 14
    2d42:	91 e0       	ldi	r25, 0x01	; 1
    2d44:	d0 c0       	rjmp	.+416    	; 0x2ee6 <save_para+0x1f2>
			}
			break;
			case 6://设置料位数据读取端口
			{
				eeprom_write_byte_user(&m_ePara[0].para.material_port,m_rPara.para.material_port);
    2d46:	60 91 67 0a 	lds	r22, 0x0A67
    2d4a:	8f e0       	ldi	r24, 0x0F	; 15
    2d4c:	91 e0       	ldi	r25, 0x01	; 1
    2d4e:	cb c0       	rjmp	.+406    	; 0x2ee6 <save_para+0x1f2>
			}
			break;
			case 7://MB与转速之间的关系
			{
				eeprom_write_byte_user(&m_ePara[0].para.mb_div,m_rPara.para.mb_div);
    2d50:	60 91 76 0a 	lds	r22, 0x0A76
    2d54:	8e e1       	ldi	r24, 0x1E	; 30
    2d56:	91 e0       	ldi	r25, 0x01	; 1
    2d58:	c6 c0       	rjmp	.+396    	; 0x2ee6 <save_para+0x1f2>
			}
			break;
			#endif
		}
	}
	else if(1 == bit_setmode_delay)
    2d5a:	80 91 c4 0a 	lds	r24, 0x0AC4
    2d5e:	81 30       	cpi	r24, 0x01	; 1
    2d60:	01 f5       	brne	.+64     	; 0x2da2 <save_para+0xae>
	{
		switch(pagenumber)
    2d62:	80 91 b8 0a 	lds	r24, 0x0AB8
    2d66:	81 11       	cpse	r24, r1
    2d68:	c9 c0       	rjmp	.+402    	; 0x2efc <save_para+0x208>
		{
			case 0:
			{
				//限时参数
				m_rPara.para.limited_hours=limited_days*(unsigned short)24;
    2d6a:	80 91 65 0b 	lds	r24, 0x0B65
    2d6e:	90 91 66 0b 	lds	r25, 0x0B66
    2d72:	28 e1       	ldi	r18, 0x18	; 24
    2d74:	28 9f       	mul	r18, r24
    2d76:	b0 01       	movw	r22, r0
    2d78:	29 9f       	mul	r18, r25
    2d7a:	70 0d       	add	r23, r0
    2d7c:	11 24       	eor	r1, r1
    2d7e:	70 93 6b 0a 	sts	0x0A6B, r23
    2d82:	60 93 6a 0a 	sts	0x0A6A, r22
				eeprom_write_word_user((uint16_t *)&m_ePara[0].para.limited_hours,m_rPara.para.limited_hours);//存入的是小时
    2d86:	82 e1       	ldi	r24, 0x12	; 18
    2d88:	91 e0       	ldi	r25, 0x01	; 1
    2d8a:	0e 94 d3 10 	call	0x21a6	; 0x21a6 <eeprom_write_word_user>
				if(m_rPara.para.limited_hours > 0)
    2d8e:	80 91 6a 0a 	lds	r24, 0x0A6A
    2d92:	90 91 6b 0a 	lds	r25, 0x0A6B
    2d96:	89 2b       	or	r24, r25
    2d98:	09 f4       	brne	.+2      	; 0x2d9c <save_para+0xa8>
    2d9a:	b0 c0       	rjmp	.+352    	; 0x2efc <save_para+0x208>
				{
					bit_used_no_time=0;
    2d9c:	10 92 03 0b 	sts	0x0B03, r1
    2da0:	08 95       	ret
				}
			}
			break;
		}
	}
	else if(1==bit_setmode_3)
    2da2:	80 91 aa 0a 	lds	r24, 0x0AAA
    2da6:	81 30       	cpi	r24, 0x01	; 1
    2da8:	09 f0       	breq	.+2      	; 0x2dac <save_para+0xb8>
    2daa:	75 c0       	rjmp	.+234    	; 0x2e96 <save_para+0x1a2>
	{
		//密码保护的参数
		switch(pagenumber)
    2dac:	80 91 b8 0a 	lds	r24, 0x0AB8
    2db0:	90 e0       	ldi	r25, 0x00	; 0
    2db2:	87 30       	cpi	r24, 0x07	; 7
    2db4:	91 05       	cpc	r25, r1
    2db6:	08 f0       	brcs	.+2      	; 0x2dba <save_para+0xc6>
    2db8:	a1 c0       	rjmp	.+322    	; 0x2efc <save_para+0x208>
    2dba:	fc 01       	movw	r30, r24
    2dbc:	ee 5a       	subi	r30, 0xAE	; 174
    2dbe:	ff 4f       	sbci	r31, 0xFF	; 255
    2dc0:	0c 94 6c 37 	jmp	0x6ed8	; 0x6ed8 <__tablejump2__>
		{
			case 0://启动料位值
			{
				eeprom_write_byte_user(&m_ePara[0].para.material_start,m_rPara.para.material_start);
    2dc4:	60 91 6d 0a 	lds	r22, 0x0A6D
    2dc8:	85 e1       	ldi	r24, 0x15	; 21
    2dca:	91 e0       	ldi	r25, 0x01	; 1
    2dcc:	8c c0       	rjmp	.+280    	; 0x2ee6 <save_para+0x1f2>
			}
			break;
			case 1://停机料位值
			{
				eeprom_write_byte_user(&m_ePara[0].para.material_stop,m_rPara.para.material_stop);
    2dce:	60 91 6e 0a 	lds	r22, 0x0A6E
    2dd2:	86 e1       	ldi	r24, 0x16	; 22
    2dd4:	91 e0       	ldi	r25, 0x01	; 1
    2dd6:	87 c0       	rjmp	.+270    	; 0x2ee6 <save_para+0x1f2>
			}
			break;
			case 2://电流修正值
			{
				eeprom_write_byte_user(&m_ePara[0].para.current1_modify,m_rPara.para.current1_modify);
    2dd8:	60 91 6f 0a 	lds	r22, 0x0A6F
    2ddc:	87 e1       	ldi	r24, 0x17	; 23
    2dde:	91 e0       	ldi	r25, 0x01	; 1
    2de0:	82 c0       	rjmp	.+260    	; 0x2ee6 <save_para+0x1f2>
			}
			break;
			case 3://MODBUS通信地址
			{
				eeprom_write_byte_user(&m_ePara[0].para.addr_modbus,m_rPara.para.addr_modbus);
    2de2:	60 91 72 0a 	lds	r22, 0x0A72
    2de6:	8a e1       	ldi	r24, 0x1A	; 26
    2de8:	91 e0       	ldi	r25, 0x01	; 1
    2dea:	7d c0       	rjmp	.+250    	; 0x2ee6 <save_para+0x1f2>
			}
			break;
			case 4://MODBUS通信波特率
			{
				eeprom_write_byte_user(&m_ePara[0].para.baud_modbus,m_rPara.para.baud_modbus);
    2dec:	60 91 73 0a 	lds	r22, 0x0A73
    2df0:	8b e1       	ldi	r24, 0x1B	; 27
    2df2:	91 e0       	ldi	r25, 0x01	; 1
    2df4:	0e 94 a8 0f 	call	0x1f50	; 0x1f50 <eeprom_write_byte_user>
				//
				//将新设置的波特率应用到系统
				set_modbus_baud(m_rPara.para.baud_modbus);
    2df8:	80 91 73 0a 	lds	r24, 0x0A73
    2dfc:	0c 94 e6 2a 	jmp	0x55cc	; 0x55cc <set_modbus_baud>
			}
			break;
			case 5:
			{
				//MB输入选择
				eeprom_write_byte_user(&m_ePara[0].para.mb_level_pulse,m_rPara.para.mb_level_pulse);
    2e00:	60 91 74 0a 	lds	r22, 0x0A74
    2e04:	8c e1       	ldi	r24, 0x1C	; 28
    2e06:	91 e0       	ldi	r25, 0x01	; 1
    2e08:	0e 94 a8 0f 	call	0x1f50	; 0x1f50 <eeprom_write_byte_user>
    2e0c:	8f ec       	ldi	r24, 0xCF	; 207
    2e0e:	97 e0       	ldi	r25, 0x07	; 7
    2e10:	01 97       	sbiw	r24, 0x01	; 1
    2e12:	f1 f7       	brne	.-4      	; 0x2e10 <save_para+0x11c>
    2e14:	00 c0       	rjmp	.+0      	; 0x2e16 <save_para+0x122>
    2e16:	00 00       	nop
				//将修改应用到系统
				//PCICR &= ~_BV(PCIE2);//PCINT23禁用，检测MB脉冲
				//PCMSK2 &= ~_BV(PCINT23);
				//KillTimer(MT_MB_COUNTER);
				delay_ms(2);
				if(MB_PULSE == m_rPara.para.mb_level_pulse)
    2e18:	80 91 74 0a 	lds	r24, 0x0A74
    2e1c:	82 30       	cpi	r24, 0x02	; 2
    2e1e:	09 f0       	breq	.+2      	; 0x2e22 <save_para+0x12e>
    2e20:	6d c0       	rjmp	.+218    	; 0x2efc <save_para+0x208>
				{
					//PCICR |= _BV(PCIE2);//PCINT23使能，检测MB脉冲
					//PCMSK2 |= _BV(PCINT23);
					//检测MB脉冲
					SetTimer(MT_MB_COUNTER,MB_DETECTION_INTERVAL*1000,-1);
    2e22:	2f ef       	ldi	r18, 0xFF	; 255
    2e24:	48 ee       	ldi	r20, 0xE8	; 232
    2e26:	53 e0       	ldi	r21, 0x03	; 3
    2e28:	60 e0       	ldi	r22, 0x00	; 0
    2e2a:	70 e0       	ldi	r23, 0x00	; 0
    2e2c:	8d e8       	ldi	r24, 0x8D	; 141
    2e2e:	93 e1       	ldi	r25, 0x13	; 19
    2e30:	30 c0       	rjmp	.+96     	; 0x2e92 <save_para+0x19e>
			}
			break;
			case 6:
			{
				//DW输入选择
				eeprom_write_byte_user(&m_ePara[0].para.dw_level_pulse,m_rPara.para.dw_level_pulse);
    2e32:	60 91 75 0a 	lds	r22, 0x0A75
    2e36:	8d e1       	ldi	r24, 0x1D	; 29
    2e38:	91 e0       	ldi	r25, 0x01	; 1
    2e3a:	0e 94 a8 0f 	call	0x1f50	; 0x1f50 <eeprom_write_byte_user>
				//
				//将修改应用到系统
				PCICR &= ~_BV(PCIE3);//PCINT31禁用，检测DW电平
    2e3e:	80 91 68 00 	lds	r24, 0x0068
    2e42:	87 7f       	andi	r24, 0xF7	; 247
    2e44:	80 93 68 00 	sts	0x0068, r24
				PCMSK2 &= ~_BV(PCINT31);
    2e48:	80 91 6d 00 	lds	r24, 0x006D
    2e4c:	8f 77       	andi	r24, 0x7F	; 127
    2e4e:	80 93 6d 00 	sts	0x006D, r24
				KillTimer(MT_DW_COUNTER);
    2e52:	8e e8       	ldi	r24, 0x8E	; 142
    2e54:	93 e1       	ldi	r25, 0x13	; 19
    2e56:	0e 94 b1 29 	call	0x5362	; 0x5362 <KillTimer>
    2e5a:	8f ec       	ldi	r24, 0xCF	; 207
    2e5c:	97 e0       	ldi	r25, 0x07	; 7
    2e5e:	01 97       	sbiw	r24, 0x01	; 1
    2e60:	f1 f7       	brne	.-4      	; 0x2e5e <save_para+0x16a>
    2e62:	00 c0       	rjmp	.+0      	; 0x2e64 <save_para+0x170>
    2e64:	00 00       	nop
				delay_ms(2);
				if(DW_PULSE == m_rPara.para.dw_level_pulse)
    2e66:	80 91 75 0a 	lds	r24, 0x0A75
    2e6a:	82 30       	cpi	r24, 0x02	; 2
    2e6c:	09 f0       	breq	.+2      	; 0x2e70 <save_para+0x17c>
    2e6e:	46 c0       	rjmp	.+140    	; 0x2efc <save_para+0x208>
				{
					PCICR |= _BV(PCIE3);//PCINT31使能，检测DW脉冲
    2e70:	80 91 68 00 	lds	r24, 0x0068
    2e74:	88 60       	ori	r24, 0x08	; 8
    2e76:	80 93 68 00 	sts	0x0068, r24
					PCMSK2 |= _BV(PCINT31);
    2e7a:	80 91 6d 00 	lds	r24, 0x006D
    2e7e:	80 68       	ori	r24, 0x80	; 128
    2e80:	80 93 6d 00 	sts	0x006D, r24
					//检测DW脉冲
					SetTimer(MT_DW_COUNTER,DW_DETECTION_INTERVAL*1000,-1);
    2e84:	2f ef       	ldi	r18, 0xFF	; 255
    2e86:	48 ee       	ldi	r20, 0xE8	; 232
    2e88:	53 e0       	ldi	r21, 0x03	; 3
    2e8a:	60 e0       	ldi	r22, 0x00	; 0
    2e8c:	70 e0       	ldi	r23, 0x00	; 0
    2e8e:	8e e8       	ldi	r24, 0x8E	; 142
    2e90:	93 e1       	ldi	r25, 0x13	; 19
    2e92:	0c 94 3a 29 	jmp	0x5274	; 0x5274 <SetTimer>
		}
	}
	else
	{
		//外部参数
		switch(pagenumber)
    2e96:	80 91 b8 0a 	lds	r24, 0x0AB8
    2e9a:	82 30       	cpi	r24, 0x02	; 2
    2e9c:	d9 f0       	breq	.+54     	; 0x2ed4 <save_para+0x1e0>
    2e9e:	28 f4       	brcc	.+10     	; 0x2eaa <save_para+0x1b6>
    2ea0:	88 23       	and	r24, r24
    2ea2:	49 f0       	breq	.+18     	; 0x2eb6 <save_para+0x1c2>
    2ea4:	81 30       	cpi	r24, 0x01	; 1
    2ea6:	71 f0       	breq	.+28     	; 0x2ec4 <save_para+0x1d0>
    2ea8:	08 95       	ret
    2eaa:	84 30       	cpi	r24, 0x04	; 4
    2eac:	f1 f0       	breq	.+60     	; 0x2eea <save_para+0x1f6>
    2eae:	b8 f0       	brcs	.+46     	; 0x2ede <save_para+0x1ea>
    2eb0:	85 30       	cpi	r24, 0x05	; 5
    2eb2:	f1 f0       	breq	.+60     	; 0x2ef0 <save_para+0x1fc>
    2eb4:	08 95       	ret
		{
			case 0://最高转速(40-300)
			{
				eeprom_write_word_user((uint16_t *)&m_ePara[0].para.max_vel,m_rPara.para.max_vel);
    2eb6:	60 91 5c 0a 	lds	r22, 0x0A5C
    2eba:	70 91 5d 0a 	lds	r23, 0x0A5D
    2ebe:	84 e0       	ldi	r24, 0x04	; 4
    2ec0:	91 e0       	ldi	r25, 0x01	; 1
    2ec2:	06 c0       	rjmp	.+12     	; 0x2ed0 <save_para+0x1dc>
			}
			break;
			case 1://最低转速(40-300)
			{
				eeprom_write_word_user((uint16_t *)&m_ePara[0].para.min_vel,m_rPara.para.min_vel);
    2ec4:	60 91 5e 0a 	lds	r22, 0x0A5E
    2ec8:	70 91 5f 0a 	lds	r23, 0x0A5F
    2ecc:	86 e0       	ldi	r24, 0x06	; 6
    2ece:	91 e0       	ldi	r25, 0x01	; 1
    2ed0:	0c 94 d3 10 	jmp	0x21a6	; 0x21a6 <eeprom_write_word_user>
			}
			break;
			case 2://主电机额定电流(10-100A)
			{
				eeprom_write_byte_user(&m_ePara[0].para.mmotor_cur1,m_rPara.para.mmotor_cur1);
    2ed4:	60 91 60 0a 	lds	r22, 0x0A60
    2ed8:	88 e0       	ldi	r24, 0x08	; 8
    2eda:	91 e0       	ldi	r25, 0x01	; 1
    2edc:	04 c0       	rjmp	.+8      	; 0x2ee6 <save_para+0x1f2>
			}
			break;
			case 3://合轧延时时间(0.2-20s)
			{
				eeprom_write_byte_user(&m_ePara[0].para.rollin_delay,m_rPara.para.rollin_delay);
    2ede:	60 91 61 0a 	lds	r22, 0x0A61
    2ee2:	89 e0       	ldi	r24, 0x09	; 9
    2ee4:	91 e0       	ldi	r25, 0x01	; 1
    2ee6:	0c 94 a8 0f 	jmp	0x1f50	; 0x1f50 <eeprom_write_byte_user>
			}
			break;
			case 4://总停机日志数据
				m_rPara.para.all_stop_id = 0;
    2eea:	10 92 6c 0a 	sts	0x0A6C, r1
				//eeprom_write_byte_user(&m_ePara[0].para.all_stop_id, m_rPara.para.all_stop_id);
			break;
    2eee:	08 95       	ret
			case 5://恢复默认设置
			{
				if(8 == set_default)
    2ef0:	80 91 a8 0a 	lds	r24, 0x0AA8
    2ef4:	88 30       	cpi	r24, 0x08	; 8
    2ef6:	11 f4       	brne	.+4      	; 0x2efc <save_para+0x208>
				{
					set_default_para();
    2ef8:	0e 94 2d 12 	call	0x245a	; 0x245a <set_default_para>
    2efc:	08 95       	ret

00002efe <get_mb_counter_60s>:
	wdt_enable(WDTO_120MS);
	for(;;);//等待单片机重启
}
////////////////////////////////////////////////////////////////
unsigned short get_mb_counter_60s(void)
{
    2efe:	e3 ec       	ldi	r30, 0xC3	; 195
    2f00:	fb e0       	ldi	r31, 0x0B	; 11
	int i;
	unsigned short tmp=0;
    2f02:	80 e0       	ldi	r24, 0x00	; 0
    2f04:	90 e0       	ldi	r25, 0x00	; 0
	for(i=0;i<MB_60S_SAMPLE_SIZE;i++)
	{
		tmp += mb_60s_sample_buf[i];
    2f06:	21 91       	ld	r18, Z+
    2f08:	82 0f       	add	r24, r18
    2f0a:	91 1d       	adc	r25, r1
////////////////////////////////////////////////////////////////
unsigned short get_mb_counter_60s(void)
{
	int i;
	unsigned short tmp=0;
	for(i=0;i<MB_60S_SAMPLE_SIZE;i++)
    2f0c:	2b e0       	ldi	r18, 0x0B	; 11
    2f0e:	ef 3f       	cpi	r30, 0xFF	; 255
    2f10:	f2 07       	cpc	r31, r18
    2f12:	c9 f7       	brne	.-14     	; 0x2f06 <get_mb_counter_60s+0x8>
	{
		tmp += mb_60s_sample_buf[i];
	}
	return tmp;
}
    2f14:	08 95       	ret

00002f16 <get_mb_counter_3s>:
{
	int i;
	unsigned char tmp=0;
	for(i=0;i<MB_3S_SAMPLE_SIZE;i++)
	{
		tmp += mb_3s_sample_buf[i];
    2f16:	80 91 c1 0b 	lds	r24, 0x0BC1
    2f1a:	90 91 c0 0b 	lds	r25, 0x0BC0
    2f1e:	89 0f       	add	r24, r25
    2f20:	90 91 c2 0b 	lds	r25, 0x0BC2
	}
	return tmp;
}
    2f24:	89 0f       	add	r24, r25
    2f26:	08 95       	ret

00002f28 <get_dw_counter_60s>:
////////////////////////////////////////////////////////////////
unsigned short get_dw_counter_60s(void)
{
    2f28:	e2 e8       	ldi	r30, 0x82	; 130
    2f2a:	fb e0       	ldi	r31, 0x0B	; 11
	int i;
	unsigned short tmp=0;
    2f2c:	80 e0       	ldi	r24, 0x00	; 0
    2f2e:	90 e0       	ldi	r25, 0x00	; 0
	for(i=0;i<DW_60S_SAMPLE_SIZE;i++)
	{
		tmp += dw_60s_sample_buf[i];
    2f30:	21 91       	ld	r18, Z+
    2f32:	82 0f       	add	r24, r18
    2f34:	91 1d       	adc	r25, r1
////////////////////////////////////////////////////////////////
unsigned short get_dw_counter_60s(void)
{
	int i;
	unsigned short tmp=0;
	for(i=0;i<DW_60S_SAMPLE_SIZE;i++)
    2f36:	2b e0       	ldi	r18, 0x0B	; 11
    2f38:	ee 3b       	cpi	r30, 0xBE	; 190
    2f3a:	f2 07       	cpc	r31, r18
    2f3c:	c9 f7       	brne	.-14     	; 0x2f30 <get_dw_counter_60s+0x8>
	{
		tmp += dw_60s_sample_buf[i];
	}
	return tmp;
}
    2f3e:	08 95       	ret

00002f40 <get_dw_counter_3s>:
{
	int i;
	unsigned char tmp=0;
	for(i=0;i<DW_3S_SAMPLE_SIZE;i++)
	{
		tmp += dw_3s_sample_buf[i];
    2f40:	80 91 7f 0b 	lds	r24, 0x0B7F
    2f44:	90 91 7e 0b 	lds	r25, 0x0B7E
    2f48:	89 0f       	add	r24, r25
    2f4a:	90 91 80 0b 	lds	r25, 0x0B80
	}
	return tmp;
}
    2f4e:	89 0f       	add	r24, r25
    2f50:	08 95       	ret

00002f52 <qr_ql_signal_handling>:
////////////////////////////////////////////////////////////////
void qr_ql_signal_handling(void)
{
    2f52:	80 91 1a 0d 	lds	r24, 0x0D1A
	if((1==bqr) || (1==bql))
    2f56:	4e 99       	sbic	0x09, 6	; 9
    2f58:	02 c0       	rjmp	.+4      	; 0x2f5e <qr_ql_signal_handling+0xc>
    2f5a:	05 9b       	sbis	0x00, 5	; 0
    2f5c:	07 c0       	rjmp	.+14     	; 0x2f6c <qr_ql_signal_handling+0x1a>
	{
		//左右合轧信号不全，报警
		bit_qr_ql_error = 1;
    2f5e:	91 e0       	ldi	r25, 0x01	; 1
    2f60:	90 93 4e 0b 	sts	0x0B4E, r25
		modbus_status.status.m_qr_ql_error = STATUS_ON;
    2f64:	81 60       	ori	r24, 0x01	; 1
    2f66:	80 93 1a 0d 	sts	0x0D1A, r24
    2f6a:	0f c0       	rjmp	.+30     	; 0x2f8a <qr_ql_signal_handling+0x38>
		bcomerr = 1;
	}
	else
	{
		//合轧信号正确，清除报警
		bit_qr_ql_error = 0;
    2f6c:	10 92 4e 0b 	sts	0x0B4E, r1
		modbus_status.status.m_qr_ql_error = STATUS_OFF;
    2f70:	8e 7f       	andi	r24, 0xFE	; 254
    2f72:	80 93 1a 0d 	sts	0x0D1A, r24
		if((0==bit_over_i) && (0==bit_comm_error))
    2f76:	80 91 a9 0a 	lds	r24, 0x0AA9
    2f7a:	81 11       	cpse	r24, r1
    2f7c:	06 c0       	rjmp	.+12     	; 0x2f8a <qr_ql_signal_handling+0x38>
    2f7e:	80 91 56 0a 	lds	r24, 0x0A56
    2f82:	81 11       	cpse	r24, r1
    2f84:	02 c0       	rjmp	.+4      	; 0x2f8a <qr_ql_signal_handling+0x38>
		{
			//没有通信错误也没有电流过载错误
			bcomerr = 0;
    2f86:	45 98       	cbi	0x08, 5	; 8
    2f88:	08 95       	ret
		}
		else
		{
			bcomerr = 1;
    2f8a:	45 9a       	sbi	0x08, 5	; 8
    2f8c:	08 95       	ret

00002f8e <lw_signal_handling>:
////////////////////////////////////////////////////////////
void lw_signal_handling(void)
{
	static unsigned long the_last_time_of_blw_high=0;
	//
	if(0 == blw)
    2f8e:	02 99       	sbic	0x00, 2	; 0
    2f90:	1f c0       	rjmp	.+62     	; 0x2fd0 <lw_signal_handling+0x42>
	{
		//连续检测LW信号1秒，一直为低的话，确认LW信号有效
		if((boot_time-the_last_time_of_blw_high) > 500)
    2f92:	80 91 58 0b 	lds	r24, 0x0B58
    2f96:	90 91 59 0b 	lds	r25, 0x0B59
    2f9a:	a0 91 5a 0b 	lds	r26, 0x0B5A
    2f9e:	b0 91 5b 0b 	lds	r27, 0x0B5B
    2fa2:	40 91 f4 07 	lds	r20, 0x07F4
    2fa6:	50 91 f5 07 	lds	r21, 0x07F5
    2faa:	60 91 f6 07 	lds	r22, 0x07F6
    2fae:	70 91 f7 07 	lds	r23, 0x07F7
    2fb2:	84 1b       	sub	r24, r20
    2fb4:	95 0b       	sbc	r25, r21
    2fb6:	a6 0b       	sbc	r26, r22
    2fb8:	b7 0b       	sbc	r27, r23
    2fba:	85 3f       	cpi	r24, 0xF5	; 245
    2fbc:	91 40       	sbci	r25, 0x01	; 1
    2fbe:	a1 05       	cpc	r26, r1
    2fc0:	b1 05       	cpc	r27, r1
    2fc2:	b0 f0       	brcs	.+44     	; 0x2ff0 <lw_signal_handling+0x62>
		{
			part_stop();
    2fc4:	0e 94 39 0b 	call	0x1672	; 0x1672 <part_stop>
			//
			bit_duliao = 1;
    2fc8:	81 e0       	ldi	r24, 0x01	; 1
    2fca:	80 93 c0 0a 	sts	0x0AC0, r24
    2fce:	12 c0       	rjmp	.+36     	; 0x2ff4 <lw_signal_handling+0x66>
			return;//已经判断LW信号是有效的，堵料状态确认
		}
	}
	else
	{
		the_last_time_of_blw_high = boot_time;
    2fd0:	80 91 58 0b 	lds	r24, 0x0B58
    2fd4:	90 91 59 0b 	lds	r25, 0x0B59
    2fd8:	a0 91 5a 0b 	lds	r26, 0x0B5A
    2fdc:	b0 91 5b 0b 	lds	r27, 0x0B5B
    2fe0:	80 93 f4 07 	sts	0x07F4, r24
    2fe4:	90 93 f5 07 	sts	0x07F5, r25
    2fe8:	a0 93 f6 07 	sts	0x07F6, r26
    2fec:	b0 93 f7 07 	sts	0x07F7, r27
	}
	//
	//LW信号无效，不存在堵料
	bit_duliao = 0;
    2ff0:	10 92 c0 0a 	sts	0x0AC0, r1
	ddr_mbbj = 1;
    2ff4:	3e 9a       	sbi	0x07, 6	; 7
    2ff6:	08 95       	ret

00002ff8 <dw_signal_handling>:
////////////////////////////////////////////////////////////
void dw_signal_handling(void)
{
	//磨辊转速脉冲输入信号处理
	//
	if(DW_LEVEL == m_rPara.para.dw_level_pulse)
    2ff8:	80 91 75 0a 	lds	r24, 0x0A75
    2ffc:	81 30       	cpi	r24, 0x01	; 1
    2ffe:	11 f4       	brne	.+4      	; 0x3004 <dw_signal_handling+0xc>
	{
		//暂时不做处理
		asm volatile("nop");//占位代码，没有实际作用
    3000:	00 00       	nop
    3002:	08 95       	ret
	}
	else if(DW_PULSE == m_rPara.para.dw_level_pulse)
    3004:	82 30       	cpi	r24, 0x02	; 2
    3006:	21 f4       	brne	.+8      	; 0x3010 <dw_signal_handling+0x18>
	{
		//暂时不做处理
		dw_counter_3s;//占位代码，没有实际作用
    3008:	80 91 e9 0a 	lds	r24, 0x0AE9
    300c:	90 91 ea 0a 	lds	r25, 0x0AEA
    3010:	08 95       	ret

00003012 <mb_signal_handling>:
	//mb信号处理函数
	//mb输入信号为电平或者脉冲的处理方式重复度很高，但这样
	//便于维护，以后哪种方式有问题，针对修改该方式的代码即可
	//不需要担心会影响别的方式。
	//
	if(MB_LEVEL == m_rPara.para.mb_level_pulse)
    3012:	80 91 74 0a 	lds	r24, 0x0A74
    3016:	81 30       	cpi	r24, 0x01	; 1
    3018:	c1 f4       	brne	.+48     	; 0x304a <mb_signal_handling+0x38>
	{
		//MB输入信号为电平
		if (1 == bftstart)
    301a:	42 9b       	sbis	0x08, 2	; 8
    301c:	0e c0       	rjmp	.+28     	; 0x303a <mb_signal_handling+0x28>
		{
			//喂料电机已经启动
			if((1==bmb) && (enable_mb_delay > 20))//100ms一个值，2s
    301e:	37 9b       	sbis	0x06, 7	; 6
    3020:	3f c0       	rjmp	.+126    	; 0x30a0 <mb_signal_handling+0x8e>
    3022:	90 91 ab 0a 	lds	r25, 0x0AAB
    3026:	95 31       	cpi	r25, 0x15	; 21
    3028:	d8 f1       	brcs	.+118    	; 0x30a0 <mb_signal_handling+0x8e>
			{
				if(mb_invalid_delay > 200)//10ms，2s
    302a:	90 91 10 0b 	lds	r25, 0x0B10
    302e:	99 3c       	cpi	r25, 0xC9	; 201
    3030:	08 f4       	brcc	.+2      	; 0x3034 <mb_signal_handling+0x22>
    3032:	63 c0       	rjmp	.+198    	; 0x30fa <mb_signal_handling+0xe8>
				{
					mb_invalid_delay = 0;
    3034:	10 92 10 0b 	sts	0x0B10, r1
    3038:	26 c0       	rjmp	.+76     	; 0x3086 <mb_signal_handling+0x74>
				//mb信号是有效的，清除mb无效计数的延时
				mb_invalid_delay = 0;
				mb_is_invalid = 0;
			}
		}
		else if(1 == part_stop_bmb)
    303a:	80 91 e8 0a 	lds	r24, 0x0AE8
    303e:	81 30       	cpi	r24, 0x01	; 1
    3040:	09 f0       	breq	.+2      	; 0x3044 <mb_signal_handling+0x32>
    3042:	5b c0       	rjmp	.+182    	; 0x30fa <mb_signal_handling+0xe8>
		{
			//喂料电机没有启动
			if(0 == bmb)
    3044:	37 99       	sbic	0x06, 7	; 6
    3046:	51 c0       	rjmp	.+162    	; 0x30ea <mb_signal_handling+0xd8>
    3048:	40 c0       	rjmp	.+128    	; 0x30ca <mb_signal_handling+0xb8>
					mb_valid_counter = 0;
				}
			}
		}
	}
	else if(MB_PULSE == m_rPara.para.mb_level_pulse)
    304a:	82 30       	cpi	r24, 0x02	; 2
    304c:	09 f0       	breq	.+2      	; 0x3050 <mb_signal_handling+0x3e>
    304e:	55 c0       	rjmp	.+170    	; 0x30fa <mb_signal_handling+0xe8>
	{
		//MB输入信号为脉冲
		if (1 == bftstart)
    3050:	42 9b       	sbis	0x08, 2	; 8
    3052:	29 c0       	rjmp	.+82     	; 0x30a6 <mb_signal_handling+0x94>
		{
			//mb_div>0
			if((mb_counter_3s < (3*m_rPara.para.mb_div-1)) && (enable_mb_delay > 20))//100ms，2s
    3054:	20 91 c6 0a 	lds	r18, 0x0AC6
    3058:	30 91 c7 0a 	lds	r19, 0x0AC7
    305c:	80 91 76 0a 	lds	r24, 0x0A76
    3060:	43 e0       	ldi	r20, 0x03	; 3
    3062:	84 9f       	mul	r24, r20
    3064:	c0 01       	movw	r24, r0
    3066:	11 24       	eor	r1, r1
    3068:	01 97       	sbiw	r24, 0x01	; 1
    306a:	28 17       	cp	r18, r24
    306c:	39 07       	cpc	r19, r25
    306e:	c0 f4       	brcc	.+48     	; 0x30a0 <mb_signal_handling+0x8e>
    3070:	80 91 ab 0a 	lds	r24, 0x0AAB
    3074:	85 31       	cpi	r24, 0x15	; 21
    3076:	a0 f0       	brcs	.+40     	; 0x30a0 <mb_signal_handling+0x8e>
			{
				if(mb_invalid_delay > 200)//2s
    3078:	80 91 10 0b 	lds	r24, 0x0B10
    307c:	89 3c       	cpi	r24, 0xC9	; 201
    307e:	e8 f1       	brcs	.+122    	; 0x30fa <mb_signal_handling+0xe8>
				{
					mb_invalid_delay = 0;
    3080:	10 92 10 0b 	sts	0x0B10, r1
					//
					//确认mb信号已经无效
					mb_is_invalid = 1;
    3084:	81 e0       	ldi	r24, 0x01	; 1
    3086:	80 93 51 0b 	sts	0x0B51, r24
					mb_valid_counter = 0;
    308a:	10 92 61 0b 	sts	0x0B61, r1
					//
					enable_mb_delay=0;
    308e:	10 92 ab 0a 	sts	0x0AAB, r1
					part_stop_bmb = 1; //mb脉冲输入
    3092:	80 93 e8 0a 	sts	0x0AE8, r24
					//
					ddr_mbbj = 1;
    3096:	3e 9a       	sbi	0x07, 6	; 7
					//bmbbj = 1;
					//
					fmotor_stop();
    3098:	0e 94 2f 0b 	call	0x165e	; 0x165e <fmotor_stop>
					roll_out();
    309c:	0c 94 00 0b 	jmp	0x1600	; 0x1600 <roll_out>
				}
			}
			else
			{
				//mb信号是有效的，清除mb无效计数的延时
				mb_invalid_delay = 0;
    30a0:	10 92 10 0b 	sts	0x0B10, r1
    30a4:	1f c0       	rjmp	.+62     	; 0x30e4 <mb_signal_handling+0xd2>
				mb_is_invalid = 0;
			}
		}
		else if(1 == part_stop_bmb)
    30a6:	80 91 e8 0a 	lds	r24, 0x0AE8
    30aa:	81 30       	cpi	r24, 0x01	; 1
    30ac:	31 f5       	brne	.+76     	; 0x30fa <mb_signal_handling+0xe8>
		{
			//mb_div>0
			if(mb_counter_3s > (3*m_rPara.para.mb_div-2))
    30ae:	20 91 c6 0a 	lds	r18, 0x0AC6
    30b2:	30 91 c7 0a 	lds	r19, 0x0AC7
    30b6:	80 91 76 0a 	lds	r24, 0x0A76
    30ba:	43 e0       	ldi	r20, 0x03	; 3
    30bc:	84 9f       	mul	r24, r20
    30be:	c0 01       	movw	r24, r0
    30c0:	11 24       	eor	r1, r1
    30c2:	02 97       	sbiw	r24, 0x02	; 2
    30c4:	82 17       	cp	r24, r18
    30c6:	93 07       	cpc	r25, r19
    30c8:	80 f4       	brcc	.+32     	; 0x30ea <mb_signal_handling+0xd8>
			{
				mb_invalid_delay = 0;
    30ca:	10 92 10 0b 	sts	0x0B10, r1
				//
				mb_valid_counter++;
    30ce:	80 91 61 0b 	lds	r24, 0x0B61
    30d2:	8f 5f       	subi	r24, 0xFF	; 255
    30d4:	80 93 61 0b 	sts	0x0B61, r24
				if(mb_valid_counter > 2)
    30d8:	80 91 61 0b 	lds	r24, 0x0B61
    30dc:	83 30       	cpi	r24, 0x03	; 3
    30de:	68 f0       	brcs	.+26     	; 0x30fa <mb_signal_handling+0xe8>
				{
					mb_valid_counter = 0;
    30e0:	10 92 61 0b 	sts	0x0B61, r1
					//
					mb_is_invalid = 0;
    30e4:	10 92 51 0b 	sts	0x0B51, r1
    30e8:	08 95       	ret
				}
			}
			else
			{
				if(mb_invalid_delay > 100)
    30ea:	80 91 10 0b 	lds	r24, 0x0B10
    30ee:	85 36       	cpi	r24, 0x65	; 101
    30f0:	20 f0       	brcs	.+8      	; 0x30fa <mb_signal_handling+0xe8>
				{
					mb_invalid_delay = 0;
    30f2:	10 92 10 0b 	sts	0x0B10, r1
					//
					mb_valid_counter = 0;
    30f6:	10 92 61 0b 	sts	0x0B61, r1
    30fa:	08 95       	ret

000030fc <crc32_reset>:
static U32 crc32;
//
////////////////////////////////////////////////////////////////////
void crc32_reset(void)
{
  crc32 = CRC32_CCITT_SEED;
    30fc:	8f ef       	ldi	r24, 0xFF	; 255
    30fe:	9f ef       	ldi	r25, 0xFF	; 255
    3100:	dc 01       	movw	r26, r24
    3102:	80 93 5e 08 	sts	0x085E, r24
    3106:	90 93 5f 08 	sts	0x085F, r25
    310a:	a0 93 60 08 	sts	0x0860, r26
    310e:	b0 93 61 08 	sts	0x0861, r27
    3112:	08 95       	ret

00003114 <crc32_iterate_byte>:
}
////////////////////////////////////////////////////////////////////
void crc32_iterate_byte(U8 byte)
{
    3114:	0f 93       	push	r16
    3116:	1f 93       	push	r17
  crc32 = crc32_table[(crc32 ^ byte) & 0xFF] ^ (crc32 >> 8);
    3118:	40 91 5e 08 	lds	r20, 0x085E
    311c:	50 91 5f 08 	lds	r21, 0x085F
    3120:	60 91 60 08 	lds	r22, 0x0860
    3124:	70 91 61 08 	lds	r23, 0x0861
    3128:	8a 01       	movw	r16, r20
    312a:	9b 01       	movw	r18, r22
    312c:	08 27       	eor	r16, r24
    312e:	d9 01       	movw	r26, r18
    3130:	c8 01       	movw	r24, r16
    3132:	99 27       	eor	r25, r25
    3134:	aa 27       	eor	r26, r26
    3136:	bb 27       	eor	r27, r27
    3138:	fc 01       	movw	r30, r24
    313a:	ee 0f       	add	r30, r30
    313c:	ff 1f       	adc	r31, r31
    313e:	ee 0f       	add	r30, r30
    3140:	ff 1f       	adc	r31, r31
    3142:	ea 5a       	subi	r30, 0xAA	; 170
    3144:	fd 4f       	sbci	r31, 0xFD	; 253
    3146:	45 2f       	mov	r20, r21
    3148:	56 2f       	mov	r21, r22
    314a:	67 2f       	mov	r22, r23
    314c:	77 27       	eor	r23, r23
    314e:	80 81       	ld	r24, Z
    3150:	91 81       	ldd	r25, Z+1	; 0x01
    3152:	a2 81       	ldd	r26, Z+2	; 0x02
    3154:	b3 81       	ldd	r27, Z+3	; 0x03
    3156:	84 27       	eor	r24, r20
    3158:	95 27       	eor	r25, r21
    315a:	a6 27       	eor	r26, r22
    315c:	b7 27       	eor	r27, r23
    315e:	80 93 5e 08 	sts	0x085E, r24
    3162:	90 93 5f 08 	sts	0x085F, r25
    3166:	a0 93 60 08 	sts	0x0860, r26
    316a:	b0 93 61 08 	sts	0x0861, r27
}
    316e:	1f 91       	pop	r17
    3170:	0f 91       	pop	r16
    3172:	08 95       	ret

00003174 <crc32_iterate_buffer>:
////////////////////////////////////////////////////////////////////
void crc32_iterate_buffer(const void *buffer, U8 nbytes)
{
    3174:	0f 93       	push	r16
    3176:	1f 93       	push	r17
    3178:	cf 93       	push	r28
    317a:	df 93       	push	r29
    317c:	1f 92       	push	r1
    317e:	cd b7       	in	r28, 0x3d	; 61
    3180:	de b7       	in	r29, 0x3e	; 62
  const U8 *pbyte = buffer;

  while (nbytes--)
    3182:	8c 01       	movw	r16, r24
    3184:	68 0f       	add	r22, r24
    3186:	60 17       	cp	r22, r16
    3188:	41 f0       	breq	.+16     	; 0x319a <crc32_iterate_buffer+0x26>
  {
    crc32_iterate_byte(*pbyte++);
    318a:	f8 01       	movw	r30, r16
    318c:	81 91       	ld	r24, Z+
    318e:	8f 01       	movw	r16, r30
    3190:	69 83       	std	Y+1, r22	; 0x01
    3192:	0e 94 8a 18 	call	0x3114	; 0x3114 <crc32_iterate_byte>
    3196:	69 81       	ldd	r22, Y+1	; 0x01
    3198:	f6 cf       	rjmp	.-20     	; 0x3186 <crc32_iterate_buffer+0x12>
  }
}
    319a:	0f 90       	pop	r0
    319c:	df 91       	pop	r29
    319e:	cf 91       	pop	r28
    31a0:	1f 91       	pop	r17
    31a2:	0f 91       	pop	r16
    31a4:	08 95       	ret

000031a6 <crc32_get_value>:
////////////////////////////////////////////////////////////////////
U32 crc32_get_value(void)
{
  return ~crc32;
    31a6:	60 91 5e 08 	lds	r22, 0x085E
    31aa:	70 91 5f 08 	lds	r23, 0x085F
    31ae:	80 91 60 08 	lds	r24, 0x0860
    31b2:	90 91 61 08 	lds	r25, 0x0861
    31b6:	60 95       	com	r22
    31b8:	70 95       	com	r23
    31ba:	80 95       	com	r24
    31bc:	90 95       	com	r25
}
    31be:	08 95       	ret

000031c0 <crc8_cal>:
{
	//x8+x2+x+1
	U8 i;
	U8 crc=0;
	//
	if(NULL == p)
    31c0:	00 97       	sbiw	r24, 0x00	; 0
    31c2:	89 f0       	breq	.+34     	; 0x31e6 <crc8_cal+0x26>
	{
		return 0xff;
	}
	if(0 == len)
    31c4:	66 23       	and	r22, r22
    31c6:	79 f0       	breq	.+30     	; 0x31e6 <crc8_cal+0x26>
    31c8:	28 2f       	mov	r18, r24
    31ca:	fc 01       	movw	r30, r24
    31cc:	80 e0       	ldi	r24, 0x00	; 0
    31ce:	9e 2f       	mov	r25, r30
    31d0:	92 1b       	sub	r25, r18
	{
		return 0xff;
	}
	//
	for(i=0; i<len; i++)
    31d2:	96 17       	cp	r25, r22
    31d4:	38 f4       	brcc	.+14     	; 0x31e4 <crc8_cal+0x24>
	{
		crc = crc8_tab[crc^p[i]];
    31d6:	a1 91       	ld	r26, Z+
    31d8:	a8 27       	eor	r26, r24
    31da:	b0 e0       	ldi	r27, 0x00	; 0
    31dc:	a0 5d       	subi	r26, 0xD0	; 208
    31de:	ba 4f       	sbci	r27, 0xFA	; 250
    31e0:	8c 91       	ld	r24, X
    31e2:	f5 cf       	rjmp	.-22     	; 0x31ce <crc8_cal+0xe>
    31e4:	08 95       	ret
	U8 i;
	U8 crc=0;
	//
	if(NULL == p)
	{
		return 0xff;
    31e6:	8f ef       	ldi	r24, 0xFF	; 255
	{
		crc = crc8_tab[crc^p[i]];
	}
	//
	return crc;
}
    31e8:	08 95       	ret

000031ea <led_addr_switch_3bits>:
		led_addr_switch_3bits((unsigned char*)&led_buf[4].ch,dis_value);
	}
}
/////////////////////////////////////////////////////////////////
void led_addr_switch_3bits(unsigned char *p,unsigned short value)
{
    31ea:	fc 01       	movw	r30, r24
    31ec:	cb 01       	movw	r24, r22
	unsigned short m_temp;
	//
	if(0==value)
    31ee:	00 97       	sbiw	r24, 0x00	; 0
    31f0:	29 f4       	brne	.+10     	; 0x31fc <led_addr_switch_3bits+0x12>
	{
		p[0]=LED_DIS_SPACK;//不显示
    31f2:	85 e1       	ldi	r24, 0x15	; 21
    31f4:	80 83       	st	Z, r24
		p[1]=LED_DIS_SPACK;
    31f6:	81 83       	std	Z+1, r24	; 0x01
		p[2]=LED_DIS_0;
    31f8:	12 82       	std	Z+2, r1	; 0x02
    31fa:	08 95       	ret
	}
	else
	{
		p[0]=value/100;
    31fc:	64 e6       	ldi	r22, 0x64	; 100
    31fe:	70 e0       	ldi	r23, 0x00	; 0
    3200:	0e 94 22 37 	call	0x6e44	; 0x6e44 <__udivmodhi4>
    3204:	26 2f       	mov	r18, r22
    3206:	60 83       	st	Z, r22
		m_temp=value%100;
		p[1]=m_temp/10;
    3208:	6a e0       	ldi	r22, 0x0A	; 10
    320a:	70 e0       	ldi	r23, 0x00	; 0
    320c:	0e 94 22 37 	call	0x6e44	; 0x6e44 <__udivmodhi4>
    3210:	61 83       	std	Z+1, r22	; 0x01
		p[2]=m_temp%10;
    3212:	82 83       	std	Z+2, r24	; 0x02
		//
		if(0 == p[0])
    3214:	21 11       	cpse	r18, r1
    3216:	05 c0       	rjmp	.+10     	; 0x3222 <led_addr_switch_3bits+0x38>
		{
			p[0] = LED_DIS_SPACK;
    3218:	85 e1       	ldi	r24, 0x15	; 21
    321a:	80 83       	st	Z, r24
			//
			if(LED_DIS_0 == p[1])
    321c:	61 11       	cpse	r22, r1
    321e:	01 c0       	rjmp	.+2      	; 0x3222 <led_addr_switch_3bits+0x38>
			{
				p[1] = LED_DIS_SPACK;
    3220:	81 83       	std	Z+1, r24	; 0x01
    3222:	08 95       	ret

00003224 <display_page>:
void display_page(void)
{
	unsigned short dis_value;
	unsigned char i;
	//
	if(1 == bit_monitor_mode)
    3224:	80 91 f2 0a 	lds	r24, 0x0AF2
    3228:	81 30       	cpi	r24, 0x01	; 1
    322a:	09 f0       	breq	.+2      	; 0x322e <display_page+0xa>
    322c:	b7 c0       	rjmp	.+366    	; 0x339c <display_page+0x178>
	{
		//监控数据显示模式
		dis_value=0;
		led_buf[1].ch=LED_DIS_P;//p
    322e:	82 e1       	ldi	r24, 0x12	; 18
    3230:	80 93 71 0b 	sts	0x0B71, r24
		led_buf[2].ch=LED_DIS_SUB;//-
    3234:	84 e1       	ldi	r24, 0x14	; 20
    3236:	80 93 72 0b 	sts	0x0B72, r24
		led_buf[3].ch=monitor_mode_page+1;
    323a:	20 91 13 0e 	lds	r18, 0x0E13
    323e:	81 e0       	ldi	r24, 0x01	; 1
    3240:	82 0f       	add	r24, r18
    3242:	80 93 73 0b 	sts	0x0B73, r24
		//
		switch(monitor_mode_page)
    3246:	22 30       	cpi	r18, 0x02	; 2
    3248:	09 f4       	brne	.+2      	; 0x324c <display_page+0x28>
    324a:	5f c0       	rjmp	.+190    	; 0x330a <display_page+0xe6>
    324c:	60 f5       	brcc	.+88     	; 0x32a6 <display_page+0x82>
    324e:	22 23       	and	r18, r18
    3250:	09 f4       	brne	.+2      	; 0x3254 <display_page+0x30>
    3252:	45 c0       	rjmp	.+138    	; 0x32de <display_page+0xba>
    3254:	21 30       	cpi	r18, 0x01	; 1
    3256:	09 f0       	breq	.+2      	; 0x325a <display_page+0x36>
    3258:	91 c0       	rjmp	.+290    	; 0x337c <display_page+0x158>
			break;
			case 1:
			{
				//当前采样电流传感器信号电压值
				//(m_cur_monitor*16)/(cur_full*10)+4
				dis_value = (((m_cur_monitor*16)/m_rPara.para.cur1_full)/10) + 4;
    325a:	80 91 dc 0a 	lds	r24, 0x0ADC
    325e:	90 91 dd 0a 	lds	r25, 0x0ADD
    3262:	34 e0       	ldi	r19, 0x04	; 4
    3264:	88 0f       	add	r24, r24
    3266:	99 1f       	adc	r25, r25
    3268:	3a 95       	dec	r19
    326a:	e1 f7       	brne	.-8      	; 0x3264 <display_page+0x40>
    326c:	60 91 66 0a 	lds	r22, 0x0A66
    3270:	70 e0       	ldi	r23, 0x00	; 0
    3272:	0e 94 22 37 	call	0x6e44	; 0x6e44 <__udivmodhi4>
    3276:	cb 01       	movw	r24, r22
    3278:	6a e0       	ldi	r22, 0x0A	; 10
    327a:	70 e0       	ldi	r23, 0x00	; 0
    327c:	0e 94 22 37 	call	0x6e44	; 0x6e44 <__udivmodhi4>
    3280:	6c 5f       	subi	r22, 0xFC	; 252
    3282:	7f 4f       	sbci	r23, 0xFF	; 255
				//
				led_buf[8].ch = LED_DIS_D;//电流电压值1
    3284:	8d e0       	ldi	r24, 0x0D	; 13
    3286:	80 93 78 0b 	sts	0x0B78, r24
				led_buf[9].ch = LED_DIS_L;
    328a:	91 e1       	ldi	r25, 0x11	; 17
    328c:	90 93 79 0b 	sts	0x0B79, r25
				led_buf[10].ch = LED_DIS_D;
    3290:	80 93 7a 0b 	sts	0x0B7A, r24
				led_buf[11].ch = LED_DIS_Y;
    3294:	8e e2       	ldi	r24, 0x2E	; 46
    3296:	80 93 7b 0b 	sts	0x0B7B, r24
				led_buf[12].ch = LED_DIS_Z;
    329a:	8f e2       	ldi	r24, 0x2F	; 47
    329c:	80 93 7c 0b 	sts	0x0B7C, r24
				led_buf[13].ch = LED_DIS_1;
    32a0:	20 93 7d 0b 	sts	0x0B7D, r18
			}
			break;
    32a4:	4d c3       	rjmp	.+1690   	; 0x3940 <display_page+0x71c>
		dis_value=0;
		led_buf[1].ch=LED_DIS_P;//p
		led_buf[2].ch=LED_DIS_SUB;//-
		led_buf[3].ch=monitor_mode_page+1;
		//
		switch(monitor_mode_page)
    32a6:	24 30       	cpi	r18, 0x04	; 4
    32a8:	09 f4       	brne	.+2      	; 0x32ac <display_page+0x88>
    32aa:	52 c0       	rjmp	.+164    	; 0x3350 <display_page+0x12c>
    32ac:	08 f4       	brcc	.+2      	; 0x32b0 <display_page+0x8c>
    32ae:	3f c0       	rjmp	.+126    	; 0x332e <display_page+0x10a>
    32b0:	25 30       	cpi	r18, 0x05	; 5
    32b2:	09 f0       	breq	.+2      	; 0x32b6 <display_page+0x92>
    32b4:	63 c0       	rjmp	.+198    	; 0x337c <display_page+0x158>
			case 5:
			{
				//软件版本号
				dis_value = SOFTWARE_VERSION;//1.0
				//
				led_buf[8].ch = LED_DIS_SPACK;
    32b6:	85 e1       	ldi	r24, 0x15	; 21
    32b8:	80 93 78 0b 	sts	0x0B78, r24
				led_buf[9].ch = LED_DIS_R;//软件版本号
    32bc:	83 e1       	ldi	r24, 0x13	; 19
    32be:	80 93 79 0b 	sts	0x0B79, r24
				led_buf[10].ch = LED_DIS_J;
    32c2:	83 e2       	ldi	r24, 0x23	; 35
    32c4:	80 93 7a 0b 	sts	0x0B7A, r24
				led_buf[11].ch = LED_DIS_B;
    32c8:	8b e0       	ldi	r24, 0x0B	; 11
    32ca:	80 93 7b 0b 	sts	0x0B7B, r24
				led_buf[12].ch = LED_DIS_B;
    32ce:	80 93 7c 0b 	sts	0x0B7C, r24
				led_buf[13].ch = LED_DIS_H;
    32d2:	80 e1       	ldi	r24, 0x10	; 16
    32d4:	80 93 7d 0b 	sts	0x0B7D, r24
			}
			break;
			case 5:
			{
				//软件版本号
				dis_value = SOFTWARE_VERSION;//1.0
    32d8:	64 e1       	ldi	r22, 0x14	; 20
    32da:	70 e0       	ldi	r23, 0x00	; 0
				led_buf[10].ch = LED_DIS_J;
				led_buf[11].ch = LED_DIS_B;
				led_buf[12].ch = LED_DIS_B;
				led_buf[13].ch = LED_DIS_H;
			}
			break;
    32dc:	31 c3       	rjmp	.+1634   	; 0x3940 <display_page+0x71c>
		{
			case 0:
			{
				//当前采样料位传感器信号电压值
				//(m_material_value_monitor/300)*1000/250
				dis_value = m_material_value_monitor/75;//4-20mA
    32de:	80 91 54 0b 	lds	r24, 0x0B54
    32e2:	90 91 55 0b 	lds	r25, 0x0B55
    32e6:	6b e4       	ldi	r22, 0x4B	; 75
    32e8:	70 e0       	ldi	r23, 0x00	; 0
    32ea:	0e 94 22 37 	call	0x6e44	; 0x6e44 <__udivmodhi4>
				//
				led_buf[8].ch = LED_DIS_SPACK;
    32ee:	85 e1       	ldi	r24, 0x15	; 21
    32f0:	80 93 78 0b 	sts	0x0B78, r24
				led_buf[9].ch = LED_DIS_L;//料位电压值
    32f4:	81 e1       	ldi	r24, 0x11	; 17
    32f6:	80 93 79 0b 	sts	0x0B79, r24
				led_buf[10].ch = LED_DIS_W;
    32fa:	8c e2       	ldi	r24, 0x2C	; 44
    32fc:	80 93 7a 0b 	sts	0x0B7A, r24
				led_buf[11].ch = LED_DIS_D;
    3300:	8d e0       	ldi	r24, 0x0D	; 13
    3302:	80 93 7b 0b 	sts	0x0B7B, r24
				led_buf[12].ch = LED_DIS_Y;
    3306:	8e e2       	ldi	r24, 0x2E	; 46
    3308:	0e c3       	rjmp	.+1564   	; 0x3926 <display_page+0x702>
			}
			break;
			case 2:
			{
				//喂料辊当前每分钟脉冲输入数(MB)
				dis_value = mb_counter_60s;
    330a:	60 91 41 0b 	lds	r22, 0x0B41
    330e:	70 91 42 0b 	lds	r23, 0x0B42
				//
				led_buf[8].ch = LED_DIS_SPACK;
    3312:	85 e1       	ldi	r24, 0x15	; 21
    3314:	80 93 78 0b 	sts	0x0B78, r24
				led_buf[9].ch = LED_DIS_W;//喂料辊脉冲
    3318:	8c e2       	ldi	r24, 0x2C	; 44
    331a:	80 93 79 0b 	sts	0x0B79, r24
				led_buf[10].ch = LED_DIS_L;
    331e:	81 e1       	ldi	r24, 0x11	; 17
    3320:	80 93 7a 0b 	sts	0x0B7A, r24
				led_buf[11].ch = LED_DIS_G;
    3324:	82 e2       	ldi	r24, 0x22	; 34
    3326:	80 93 7b 0b 	sts	0x0B7B, r24
				led_buf[12].ch = LED_DIS_M;
    332a:	81 e2       	ldi	r24, 0x21	; 33
    332c:	8f c1       	rjmp	.+798    	; 0x364c <display_page+0x428>
			}
			break;
			case 3:
			{
				//磨辊当前每分钟脉冲输入数(DW)
				dis_value = dw_counter_60s;
    332e:	60 91 04 0b 	lds	r22, 0x0B04
    3332:	70 91 05 0b 	lds	r23, 0x0B05
				//
				led_buf[8].ch = LED_DIS_SPACK;
    3336:	85 e1       	ldi	r24, 0x15	; 21
    3338:	80 93 78 0b 	sts	0x0B78, r24
				led_buf[9].ch = LED_DIS_M;//磨辊脉冲
    333c:	91 e2       	ldi	r25, 0x21	; 33
    333e:	90 93 79 0b 	sts	0x0B79, r25
				led_buf[10].ch = LED_DIS_G;
    3342:	22 e2       	ldi	r18, 0x22	; 34
    3344:	20 93 7a 0b 	sts	0x0B7A, r18
				led_buf[11].ch = LED_DIS_M;
    3348:	90 93 7b 0b 	sts	0x0B7B, r25
				led_buf[12].ch = LED_DIS_C;
    334c:	9c e0       	ldi	r25, 0x0C	; 12
    334e:	46 c2       	rjmp	.+1164   	; 0x37dc <display_page+0x5b8>
			}
			break;
			case 4:
			{
				//累计运行时间(显示为天数）
				dis_value = m_rPara.para.used_hours/24;
    3350:	80 91 78 0a 	lds	r24, 0x0A78
    3354:	90 91 79 0a 	lds	r25, 0x0A79
    3358:	68 e1       	ldi	r22, 0x18	; 24
    335a:	70 e0       	ldi	r23, 0x00	; 0
    335c:	0e 94 22 37 	call	0x6e44	; 0x6e44 <__udivmodhi4>
				//
				led_buf[8].ch = LED_DIS_SPACK;
    3360:	85 e1       	ldi	r24, 0x15	; 21
    3362:	80 93 78 0b 	sts	0x0B78, r24
				led_buf[9].ch = LED_DIS_Y;//运行时间
    3366:	9e e2       	ldi	r25, 0x2E	; 46
    3368:	90 93 79 0b 	sts	0x0B79, r25
				led_buf[10].ch = LED_DIS_X;
    336c:	9d e2       	ldi	r25, 0x2D	; 45
    336e:	90 93 7a 0b 	sts	0x0B7A, r25
				led_buf[11].ch = LED_DIS_S;
    3372:	98 e2       	ldi	r25, 0x28	; 40
    3374:	90 93 7b 0b 	sts	0x0B7B, r25
				led_buf[12].ch = LED_DIS_J;
    3378:	93 e2       	ldi	r25, 0x23	; 35
    337a:	30 c2       	rjmp	.+1120   	; 0x37dc <display_page+0x5b8>
			#endif
			default:
			{
				dis_value = 123;//for test
				//
				led_buf[8].ch = LED_DIS_SPACK;
    337c:	85 e1       	ldi	r24, 0x15	; 21
    337e:	80 93 78 0b 	sts	0x0B78, r24
				led_buf[9].ch = LED_DIS_SPACK;
    3382:	80 93 79 0b 	sts	0x0B79, r24
				led_buf[10].ch = LED_DIS_SPACK;
    3386:	80 93 7a 0b 	sts	0x0B7A, r24
				led_buf[11].ch = LED_DIS_SPACK;
    338a:	80 93 7b 0b 	sts	0x0B7B, r24
				led_buf[12].ch = LED_DIS_SPACK;
    338e:	80 93 7c 0b 	sts	0x0B7C, r24
				led_buf[13].ch = LED_DIS_SPACK;				
    3392:	80 93 7d 0b 	sts	0x0B7D, r24
			}
			break;
			#endif
			default:
			{
				dis_value = 123;//for test
    3396:	6b e7       	ldi	r22, 0x7B	; 123
    3398:	70 e0       	ldi	r23, 0x00	; 0
				led_buf[10].ch = LED_DIS_SPACK;
				led_buf[11].ch = LED_DIS_SPACK;
				led_buf[12].ch = LED_DIS_SPACK;
				led_buf[13].ch = LED_DIS_SPACK;				
			}
			break;
    339a:	d2 c2       	rjmp	.+1444   	; 0x3940 <display_page+0x71c>
		}
		//
		led_addr_switch_3bits((unsigned char*)&led_buf[4].ch,dis_value);
	}
	else if(1 == bit_alarm_mode)
    339c:	90 91 df 0a 	lds	r25, 0x0ADF
    33a0:	91 30       	cpi	r25, 0x01	; 1
    33a2:	09 f0       	breq	.+2      	; 0x33a6 <display_page+0x182>
    33a4:	a2 c0       	rjmp	.+324    	; 0x34ea <display_page+0x2c6>
	{
		//告警数据显示模式
		dis_value=0;
		led_buf[1].ch=LED_DIS_A;//A
    33a6:	8a e0       	ldi	r24, 0x0A	; 10
    33a8:	80 93 71 0b 	sts	0x0B71, r24
		led_buf[2].ch=LED_DIS_SUB;//-
    33ac:	84 e1       	ldi	r24, 0x14	; 20
    33ae:	80 93 72 0b 	sts	0x0B72, r24
		led_buf[3].ch=alarm_mode_page+1;
    33b2:	80 91 10 0e 	lds	r24, 0x0E10
    33b6:	21 e0       	ldi	r18, 0x01	; 1
    33b8:	28 0f       	add	r18, r24
    33ba:	20 93 73 0b 	sts	0x0B73, r18
		//
		switch(alarm_mode_page)
    33be:	82 30       	cpi	r24, 0x02	; 2
    33c0:	b9 f1       	breq	.+110    	; 0x3430 <display_page+0x20c>
    33c2:	28 f4       	brcc	.+10     	; 0x33ce <display_page+0x1aa>
    33c4:	88 23       	and	r24, r24
    33c6:	51 f0       	breq	.+20     	; 0x33dc <display_page+0x1b8>
    33c8:	81 30       	cpi	r24, 0x01	; 1
    33ca:	d1 f0       	breq	.+52     	; 0x3400 <display_page+0x1dc>
    33cc:	7e c0       	rjmp	.+252    	; 0x34ca <display_page+0x2a6>
    33ce:	83 30       	cpi	r24, 0x03	; 3
    33d0:	09 f4       	brne	.+2      	; 0x33d4 <display_page+0x1b0>
    33d2:	42 c0       	rjmp	.+132    	; 0x3458 <display_page+0x234>
    33d4:	84 30       	cpi	r24, 0x04	; 4
    33d6:	09 f4       	brne	.+2      	; 0x33da <display_page+0x1b6>
    33d8:	56 c0       	rjmp	.+172    	; 0x3486 <display_page+0x262>
    33da:	77 c0       	rjmp	.+238    	; 0x34ca <display_page+0x2a6>
		{
			case 0:
			{
				//主电机电流过载停机
				dis_value = (1==bit_over_i) ? 1:0;
    33dc:	80 91 a9 0a 	lds	r24, 0x0AA9
    33e0:	61 e0       	ldi	r22, 0x01	; 1
    33e2:	70 e0       	ldi	r23, 0x00	; 0
    33e4:	81 30       	cpi	r24, 0x01	; 1
    33e6:	09 f0       	breq	.+2      	; 0x33ea <display_page+0x1c6>
    33e8:	60 e0       	ldi	r22, 0x00	; 0
				//
				led_buf[8].ch = LED_DIS_SPACK;
    33ea:	85 e1       	ldi	r24, 0x15	; 21
    33ec:	80 93 78 0b 	sts	0x0B78, r24
				led_buf[9].ch = LED_DIS_Z;//主电流过载
    33f0:	8f e2       	ldi	r24, 0x2F	; 47
    33f2:	80 93 79 0b 	sts	0x0B79, r24
				led_buf[10].ch = LED_DIS_D;
    33f6:	9d e0       	ldi	r25, 0x0D	; 13
    33f8:	90 93 7a 0b 	sts	0x0B7A, r25
				led_buf[11].ch = LED_DIS_L;
    33fc:	91 e1       	ldi	r25, 0x11	; 17
    33fe:	47 c1       	rjmp	.+654    	; 0x368e <display_page+0x46a>
			}
			break;
			case 1:
			{
				//喂料辊故障停机
				dis_value = (1==part_stop_bmb) ? 1:0;
    3400:	61 e0       	ldi	r22, 0x01	; 1
    3402:	70 e0       	ldi	r23, 0x00	; 0
    3404:	80 91 e8 0a 	lds	r24, 0x0AE8
    3408:	81 30       	cpi	r24, 0x01	; 1
    340a:	09 f0       	breq	.+2      	; 0x340e <display_page+0x1ea>
    340c:	60 e0       	ldi	r22, 0x00	; 0
				//
				led_buf[8].ch = LED_DIS_SPACK;
    340e:	85 e1       	ldi	r24, 0x15	; 21
    3410:	80 93 78 0b 	sts	0x0B78, r24
				led_buf[9].ch = LED_DIS_W;//喂料辊停机
    3414:	8c e2       	ldi	r24, 0x2C	; 44
    3416:	80 93 79 0b 	sts	0x0B79, r24
				led_buf[10].ch = LED_DIS_L;
    341a:	81 e1       	ldi	r24, 0x11	; 17
    341c:	80 93 7a 0b 	sts	0x0B7A, r24
				led_buf[11].ch = LED_DIS_G;
    3420:	82 e2       	ldi	r24, 0x22	; 34
    3422:	80 93 7b 0b 	sts	0x0B7B, r24
				led_buf[12].ch = LED_DIS_T;
    3426:	89 e2       	ldi	r24, 0x29	; 41
    3428:	80 93 7c 0b 	sts	0x0B7C, r24
				led_buf[13].ch = LED_DIS_J;
    342c:	83 e2       	ldi	r24, 0x23	; 35
    342e:	11 c1       	rjmp	.+546    	; 0x3652 <display_page+0x42e>
			}
			break;
			case 2:
			{
				//料位不稳定（料位传感器长时间内大范围波动）
				dis_value = (1==bit_material_disturbance) ? 1:0;
    3430:	80 91 ef 0a 	lds	r24, 0x0AEF
    3434:	61 e0       	ldi	r22, 0x01	; 1
    3436:	70 e0       	ldi	r23, 0x00	; 0
    3438:	81 30       	cpi	r24, 0x01	; 1
    343a:	09 f0       	breq	.+2      	; 0x343e <display_page+0x21a>
    343c:	60 e0       	ldi	r22, 0x00	; 0
				//
				led_buf[8].ch = LED_DIS_SPACK;
    343e:	85 e1       	ldi	r24, 0x15	; 21
    3440:	80 93 78 0b 	sts	0x0B78, r24
				led_buf[9].ch = LED_DIS_L;//料位不稳
    3444:	91 e1       	ldi	r25, 0x11	; 17
    3446:	90 93 79 0b 	sts	0x0B79, r25
				led_buf[10].ch = LED_DIS_W;
    344a:	9c e2       	ldi	r25, 0x2C	; 44
    344c:	90 93 7a 0b 	sts	0x0B7A, r25
				led_buf[11].ch = LED_DIS_B;
    3450:	2b e0       	ldi	r18, 0x0B	; 11
    3452:	20 93 7b 0b 	sts	0x0B7B, r18
    3456:	c2 c1       	rjmp	.+900    	; 0x37dc <display_page+0x5b8>
			}
			break;
			case 3:
			{
				//下料口堵塞（LW光耦输入时）
				dis_value = (0==blw) ? 1:0; //1:堵料
    3458:	60 b1       	in	r22, 0x00	; 0
    345a:	66 95       	lsr	r22
    345c:	66 95       	lsr	r22
    345e:	69 27       	eor	r22, r25
    3460:	61 70       	andi	r22, 0x01	; 1
    3462:	70 e0       	ldi	r23, 0x00	; 0
				//
				led_buf[8].ch = LED_DIS_SPACK;
    3464:	85 e1       	ldi	r24, 0x15	; 21
    3466:	80 93 78 0b 	sts	0x0B78, r24
				led_buf[9].ch = LED_DIS_X;//下料口堵塞
    346a:	8d e2       	ldi	r24, 0x2D	; 45
    346c:	80 93 79 0b 	sts	0x0B79, r24
				led_buf[10].ch = LED_DIS_L;
    3470:	81 e1       	ldi	r24, 0x11	; 17
    3472:	80 93 7a 0b 	sts	0x0B7A, r24
				led_buf[11].ch = LED_DIS_K;
    3476:	84 e2       	ldi	r24, 0x24	; 36
    3478:	80 93 7b 0b 	sts	0x0B7B, r24
				led_buf[12].ch = LED_DIS_D;
    347c:	8d e0       	ldi	r24, 0x0D	; 13
    347e:	80 93 7c 0b 	sts	0x0B7C, r24
				led_buf[13].ch = LED_DIS_S;
    3482:	88 e2       	ldi	r24, 0x28	; 40
    3484:	e6 c0       	rjmp	.+460    	; 0x3652 <display_page+0x42e>
			}
			break;
			case 4:
			{
				//喂料辊转速不在设定范围内（MB检测脉冲数/3不在最高和最低值内）
				if((m_vel_alarm>m_rPara.para.max_vel) || (m_vel_alarm<m_rPara.para.min_vel))
    3486:	80 91 0b 08 	lds	r24, 0x080B
    348a:	90 91 0c 08 	lds	r25, 0x080C
    348e:	20 91 5c 0a 	lds	r18, 0x0A5C
    3492:	30 91 5d 0a 	lds	r19, 0x0A5D
				{
					dis_value = 1;
    3496:	61 e0       	ldi	r22, 0x01	; 1
    3498:	70 e0       	ldi	r23, 0x00	; 0
			}
			break;
			case 4:
			{
				//喂料辊转速不在设定范围内（MB检测脉冲数/3不在最高和最低值内）
				if((m_vel_alarm>m_rPara.para.max_vel) || (m_vel_alarm<m_rPara.para.min_vel))
    349a:	28 17       	cp	r18, r24
    349c:	39 07       	cpc	r19, r25
    349e:	40 f0       	brcs	.+16     	; 0x34b0 <display_page+0x28c>
    34a0:	20 91 5e 0a 	lds	r18, 0x0A5E
    34a4:	30 91 5f 0a 	lds	r19, 0x0A5F
    34a8:	82 17       	cp	r24, r18
    34aa:	93 07       	cpc	r25, r19
    34ac:	08 f0       	brcs	.+2      	; 0x34b0 <display_page+0x28c>
    34ae:	60 e0       	ldi	r22, 0x00	; 0
				else
				{
					dis_value = 0;
				}
				//
				led_buf[8].ch = LED_DIS_SPACK;
    34b0:	85 e1       	ldi	r24, 0x15	; 21
    34b2:	80 93 78 0b 	sts	0x0B78, r24
				led_buf[9].ch = LED_DIS_W;//喂料辊故障
    34b6:	8c e2       	ldi	r24, 0x2C	; 44
    34b8:	80 93 79 0b 	sts	0x0B79, r24
				led_buf[10].ch = LED_DIS_L;
    34bc:	81 e1       	ldi	r24, 0x11	; 17
    34be:	80 93 7a 0b 	sts	0x0B7A, r24
				led_buf[11].ch = LED_DIS_G;
    34c2:	82 e2       	ldi	r24, 0x22	; 34
    34c4:	80 93 7b 0b 	sts	0x0B7B, r24
    34c8:	2e c2       	rjmp	.+1116   	; 0x3926 <display_page+0x702>
			break;*/
			default:
			{
				dis_value = 567;//for test
				//
				led_buf[8].ch = LED_DIS_SPACK;
    34ca:	85 e1       	ldi	r24, 0x15	; 21
    34cc:	80 93 78 0b 	sts	0x0B78, r24
				led_buf[9].ch = LED_DIS_SPACK;
    34d0:	80 93 79 0b 	sts	0x0B79, r24
				led_buf[10].ch = LED_DIS_SPACK;
    34d4:	80 93 7a 0b 	sts	0x0B7A, r24
				led_buf[11].ch = LED_DIS_SPACK;
    34d8:	80 93 7b 0b 	sts	0x0B7B, r24
				led_buf[12].ch = LED_DIS_SPACK;
    34dc:	80 93 7c 0b 	sts	0x0B7C, r24
				led_buf[13].ch = LED_DIS_SPACK;
    34e0:	80 93 7d 0b 	sts	0x0B7D, r24
				led_buf[13].ch = LED_DIS_Z;
			}
			break;*/
			default:
			{
				dis_value = 567;//for test
    34e4:	67 e3       	ldi	r22, 0x37	; 55
    34e6:	72 e0       	ldi	r23, 0x02	; 2
				led_buf[10].ch = LED_DIS_SPACK;
				led_buf[11].ch = LED_DIS_SPACK;
				led_buf[12].ch = LED_DIS_SPACK;
				led_buf[13].ch = LED_DIS_SPACK;
			}
			break;
    34e8:	2b c2       	rjmp	.+1110   	; 0x3940 <display_page+0x71c>
		}
		//
		led_addr_switch_3bits((unsigned char*)&led_buf[4].ch,dis_value);
	}
	else if(1 == bit_setmode_password)
    34ea:	90 91 cb 0a 	lds	r25, 0x0ACB
    34ee:	80 91 b8 0a 	lds	r24, 0x0AB8
    34f2:	91 30       	cpi	r25, 0x01	; 1
    34f4:	09 f0       	breq	.+2      	; 0x34f8 <display_page+0x2d4>
    34f6:	5c c0       	rjmp	.+184    	; 0x35b0 <display_page+0x38c>
	{
		//密码输入界面
		if(pagenumber > 5)
    34f8:	86 30       	cpi	r24, 0x06	; 6
    34fa:	a0 f1       	brcs	.+104    	; 0x3564 <display_page+0x340>
		{
			//密码输入完成,需要比较密码是否正确
			if(1 == bit_setmode_pwd_time)
    34fc:	80 91 01 0b 	lds	r24, 0x0B01
    3500:	81 30       	cpi	r24, 0x01	; 1
    3502:	c9 f4       	brne	.+50     	; 0x3536 <display_page+0x312>
    3504:	ea e2       	ldi	r30, 0x2A	; 42
    3506:	f5 e0       	ldi	r31, 0x05	; 5
    3508:	af e4       	ldi	r26, 0x4F	; 79
    350a:	ba e0       	ldi	r27, 0x0A	; 10
			{
				//使用时间密码设置
				for(i=0; i<6; i++)
				{
					if((const_password[i]-'0') != password[i])
    350c:	81 91       	ld	r24, Z+
    350e:	2d 91       	ld	r18, X+
    3510:	90 e0       	ldi	r25, 0x00	; 0
    3512:	c0 97       	sbiw	r24, 0x30	; 48
    3514:	30 e0       	ldi	r19, 0x00	; 0
    3516:	82 17       	cp	r24, r18
    3518:	93 07       	cpc	r25, r19
    351a:	09 f0       	breq	.+2      	; 0x351e <display_page+0x2fa>
    351c:	15 c2       	rjmp	.+1066   	; 0x3948 <display_page+0x724>
		{
			//密码输入完成,需要比较密码是否正确
			if(1 == bit_setmode_pwd_time)
			{
				//使用时间密码设置
				for(i=0; i<6; i++)
    351e:	25 e0       	ldi	r18, 0x05	; 5
    3520:	e0 33       	cpi	r30, 0x30	; 48
    3522:	f2 07       	cpc	r31, r18
    3524:	99 f7       	brne	.-26     	; 0x350c <display_page+0x2e8>
						break;
					}
				}
				if(6 == i)
				{
					bit_setmode_password=0;
    3526:	10 92 cb 0a 	sts	0x0ACB, r1
					bit_setmode_delay=1;//进入限时设置
    352a:	81 e0       	ldi	r24, 0x01	; 1
    352c:	80 93 c4 0a 	sts	0x0AC4, r24
					bit_setmode_pwd_time=0;
    3530:	10 92 01 0b 	sts	0x0B01, r1
    3534:	0d c2       	rjmp	.+1050   	; 0x3950 <display_page+0x72c>
    3536:	e4 e2       	ldi	r30, 0x24	; 36
    3538:	f5 e0       	ldi	r31, 0x05	; 5
    353a:	af e4       	ldi	r26, 0x4F	; 79
    353c:	ba e0       	ldi	r27, 0x0A	; 10
			else
			{
				//密码保护参数密码设置
				for(i=0; i<6; i++)
				{
					if((arg_password[i]-'0') != password[i])
    353e:	81 91       	ld	r24, Z+
    3540:	2d 91       	ld	r18, X+
    3542:	90 e0       	ldi	r25, 0x00	; 0
    3544:	c0 97       	sbiw	r24, 0x30	; 48
    3546:	30 e0       	ldi	r19, 0x00	; 0
    3548:	82 17       	cp	r24, r18
    354a:	93 07       	cpc	r25, r19
    354c:	09 f0       	breq	.+2      	; 0x3550 <display_page+0x32c>
    354e:	03 c2       	rjmp	.+1030   	; 0x3956 <display_page+0x732>
				}
			}
			else
			{
				//密码保护参数密码设置
				for(i=0; i<6; i++)
    3550:	85 e0       	ldi	r24, 0x05	; 5
    3552:	ea 32       	cpi	r30, 0x2A	; 42
    3554:	f8 07       	cpc	r31, r24
    3556:	99 f7       	brne	.-26     	; 0x353e <display_page+0x31a>
						break;
					}
				}
				if(6 == i)
				{
					bit_setmode_password=0;
    3558:	10 92 cb 0a 	sts	0x0ACB, r1
					bit_setmode_3=1;//进入限时设置
    355c:	81 e0       	ldi	r24, 0x01	; 1
    355e:	80 93 aa 0a 	sts	0x0AAA, r24
    3562:	f6 c1       	rjmp	.+1004   	; 0x3950 <display_page+0x72c>
				}
			}
		}
		else
		{
			led_buf[1].ch=password[0];
    3564:	80 91 4f 0a 	lds	r24, 0x0A4F
    3568:	80 93 71 0b 	sts	0x0B71, r24
			led_buf[2].ch=password[1];
    356c:	80 91 50 0a 	lds	r24, 0x0A50
    3570:	80 93 72 0b 	sts	0x0B72, r24
			led_buf[3].ch=password[2];
    3574:	80 91 51 0a 	lds	r24, 0x0A51
    3578:	80 93 73 0b 	sts	0x0B73, r24
			led_buf[4].ch=password[3];
    357c:	80 91 52 0a 	lds	r24, 0x0A52
    3580:	80 93 74 0b 	sts	0x0B74, r24
			led_buf[5].ch=password[4];
    3584:	80 91 53 0a 	lds	r24, 0x0A53
    3588:	80 93 75 0b 	sts	0x0B75, r24
			led_buf[6].ch=password[5];
    358c:	80 91 54 0a 	lds	r24, 0x0A54
    3590:	80 93 76 0b 	sts	0x0B76, r24
			//
			led_buf[8].ch = LED_DIS_SPACK;
    3594:	85 e1       	ldi	r24, 0x15	; 21
    3596:	80 93 78 0b 	sts	0x0B78, r24
			led_buf[9].ch = LED_DIS_SPACK;
    359a:	80 93 79 0b 	sts	0x0B79, r24
			led_buf[10].ch = LED_DIS_SPACK;
    359e:	80 93 7a 0b 	sts	0x0B7A, r24
			led_buf[11].ch = LED_DIS_SPACK;
    35a2:	80 93 7b 0b 	sts	0x0B7B, r24
			led_buf[12].ch = LED_DIS_SPACK;
    35a6:	80 93 7c 0b 	sts	0x0B7C, r24
			led_buf[13].ch = LED_DIS_SPACK;
    35aa:	80 93 7d 0b 	sts	0x0B7D, r24
    35ae:	08 95       	ret
	}
	else
	{
		//参数设置界面
		dis_value=0;
		led_buf[2].ch=LED_DIS_SUB;//-
    35b0:	94 e1       	ldi	r25, 0x14	; 20
    35b2:	90 93 72 0b 	sts	0x0B72, r25
		led_buf[3].ch=pagenumber+1;
    35b6:	91 e0       	ldi	r25, 0x01	; 1
    35b8:	98 0f       	add	r25, r24
    35ba:	90 93 73 0b 	sts	0x0B73, r25
		//
		if(1 == bit_setmode_delay)
    35be:	90 91 c4 0a 	lds	r25, 0x0AC4
    35c2:	91 30       	cpi	r25, 0x01	; 1
    35c4:	11 f5       	brne	.+68     	; 0x360a <display_page+0x3e6>
		{
			//设置可用的时间
			led_buf[1].ch=LED_DIS_4;
    35c6:	94 e0       	ldi	r25, 0x04	; 4
    35c8:	90 93 71 0b 	sts	0x0B71, r25
			//
			switch(pagenumber)
    35cc:	81 11       	cpse	r24, r1
    35ce:	19 c0       	rjmp	.+50     	; 0x3602 <display_page+0x3de>
			{
				case 0://时间限制
				{
					if(limited_days > 999) //不要修改
    35d0:	80 91 65 0b 	lds	r24, 0x0B65
    35d4:	90 91 66 0b 	lds	r25, 0x0B66
    35d8:	88 3e       	cpi	r24, 0xE8	; 232
    35da:	93 40       	sbci	r25, 0x03	; 3
    35dc:	28 f4       	brcc	.+10     	; 0x35e8 <display_page+0x3c4>
					{
						dis_value = 999;
					}
					else
					{
						dis_value=limited_days;
    35de:	60 91 65 0b 	lds	r22, 0x0B65
    35e2:	70 91 66 0b 	lds	r23, 0x0B66
    35e6:	02 c0       	rjmp	.+4      	; 0x35ec <display_page+0x3c8>
			{
				case 0://时间限制
				{
					if(limited_days > 999) //不要修改
					{
						dis_value = 999;
    35e8:	67 ee       	ldi	r22, 0xE7	; 231
    35ea:	73 e0       	ldi	r23, 0x03	; 3
					else
					{
						dis_value=limited_days;
					}					
					//
					led_buf[8].ch = LED_DIS_SPACK;
    35ec:	85 e1       	ldi	r24, 0x15	; 21
    35ee:	80 93 78 0b 	sts	0x0B78, r24
					led_buf[9].ch = LED_DIS_S;//时间限制
    35f2:	98 e2       	ldi	r25, 0x28	; 40
    35f4:	90 93 79 0b 	sts	0x0B79, r25
					led_buf[10].ch = LED_DIS_J;
    35f8:	93 e2       	ldi	r25, 0x23	; 35
    35fa:	90 93 7a 0b 	sts	0x0B7A, r25
					led_buf[11].ch = LED_DIS_X;
    35fe:	9d e2       	ldi	r25, 0x2D	; 45
    3600:	ea c0       	rjmp	.+468    	; 0x37d6 <display_page+0x5b2>
					led_buf[13].ch = LED_DIS_SPACK;
				}
				break;
				default:
				{
					TRACE_STRING("default");
    3602:	67 e0       	ldi	r22, 0x07	; 7
    3604:	80 e3       	ldi	r24, 0x30	; 48
    3606:	96 e0       	ldi	r25, 0x06	; 6
    3608:	95 c1       	rjmp	.+810    	; 0x3934 <display_page+0x710>
					reset_set_status();
				}
				break;
			}
		}
		else if(1==bit_setmode_2)
    360a:	90 91 c9 0a 	lds	r25, 0x0AC9
    360e:	91 30       	cpi	r25, 0x01	; 1
    3610:	09 f0       	breq	.+2      	; 0x3614 <display_page+0x3f0>
    3612:	93 c0       	rjmp	.+294    	; 0x373a <display_page+0x516>
		{
			//设置内部参数
			led_buf[1].ch=LED_DIS_2;
    3614:	92 e0       	ldi	r25, 0x02	; 2
    3616:	90 93 71 0b 	sts	0x0B71, r25
			//
			switch(pagenumber)
    361a:	90 e0       	ldi	r25, 0x00	; 0
    361c:	88 30       	cpi	r24, 0x08	; 8
    361e:	91 05       	cpc	r25, r1
    3620:	08 f0       	brcs	.+2      	; 0x3624 <display_page+0x400>
    3622:	87 c0       	rjmp	.+270    	; 0x3732 <display_page+0x50e>
    3624:	fc 01       	movw	r30, r24
    3626:	e7 5a       	subi	r30, 0xA7	; 167
    3628:	ff 4f       	sbci	r31, 0xFF	; 255
    362a:	0c 94 6c 37 	jmp	0x6ed8	; 0x6ed8 <__tablejump2__>
			{
				case 0://料位传感器满量程输出(50%-100%)
				{
					dis_value=m_rPara.para.material_full;
    362e:	60 91 62 0a 	lds	r22, 0x0A62
    3632:	70 e0       	ldi	r23, 0x00	; 0
					//
					led_buf[8].ch = LED_DIS_SPACK;
    3634:	85 e1       	ldi	r24, 0x15	; 21
    3636:	80 93 78 0b 	sts	0x0B78, r24
					led_buf[9].ch = LED_DIS_L;//料位满量程
    363a:	81 e1       	ldi	r24, 0x11	; 17
    363c:	80 93 79 0b 	sts	0x0B79, r24
					led_buf[10].ch = LED_DIS_W;
    3640:	9c e2       	ldi	r25, 0x2C	; 44
    3642:	90 93 7a 0b 	sts	0x0B7A, r25
					led_buf[11].ch = LED_DIS_M;
    3646:	91 e2       	ldi	r25, 0x21	; 33
    3648:	90 93 7b 0b 	sts	0x0B7B, r25
					led_buf[12].ch = LED_DIS_L;
    364c:	80 93 7c 0b 	sts	0x0B7C, r24
					led_buf[13].ch = LED_DIS_C;
    3650:	8c e0       	ldi	r24, 0x0C	; 12
    3652:	80 93 7d 0b 	sts	0x0B7D, r24
				}
				break;
    3656:	74 c1       	rjmp	.+744    	; 0x3940 <display_page+0x71c>
				case 1://上电远控与上电键盘控制选择. 1:上电远控  2:上电键盘控制
				{
					dis_value=m_rPara.para.is_remote;
    3658:	60 91 63 0a 	lds	r22, 0x0A63
    365c:	70 e0       	ldi	r23, 0x00	; 0
					//
					led_buf[8].ch = LED_DIS_SPACK;
    365e:	85 e1       	ldi	r24, 0x15	; 21
    3660:	80 93 78 0b 	sts	0x0B78, r24
					led_buf[9].ch = LED_DIS_S;//上电远控
    3664:	98 e2       	ldi	r25, 0x28	; 40
    3666:	90 93 79 0b 	sts	0x0B79, r25
					led_buf[10].ch = LED_DIS_D;
    366a:	9d e0       	ldi	r25, 0x0D	; 13
    366c:	90 93 7a 0b 	sts	0x0B7A, r25
					led_buf[11].ch = LED_DIS_Y;
    3670:	9e e2       	ldi	r25, 0x2E	; 46
    3672:	4a c0       	rjmp	.+148    	; 0x3708 <display_page+0x4e4>
					led_buf[13].ch = LED_DIS_SPACK;
				}
				break;
				case 2://主电机过载保护停机电流 (额定电流的100%-200%)
				{
					dis_value=m_rPara.para.mm_cur_overflow;
    3674:	60 91 64 0a 	lds	r22, 0x0A64
    3678:	70 e0       	ldi	r23, 0x00	; 0
					//
					led_buf[8].ch = LED_DIS_SPACK;
    367a:	85 e1       	ldi	r24, 0x15	; 21
    367c:	80 93 78 0b 	sts	0x0B78, r24
					led_buf[9].ch = LED_DIS_Z;//主电机过载
    3680:	8f e2       	ldi	r24, 0x2F	; 47
    3682:	80 93 79 0b 	sts	0x0B79, r24
					led_buf[10].ch = LED_DIS_D;
    3686:	9d e0       	ldi	r25, 0x0D	; 13
    3688:	90 93 7a 0b 	sts	0x0B7A, r25
					led_buf[11].ch = LED_DIS_J;
    368c:	93 e2       	ldi	r25, 0x23	; 35
    368e:	90 93 7b 0b 	sts	0x0B7B, r25
					led_buf[12].ch = LED_DIS_G;
    3692:	92 e2       	ldi	r25, 0x22	; 34
    3694:	a3 c0       	rjmp	.+326    	; 0x37dc <display_page+0x5b8>
					led_buf[13].ch = LED_DIS_Z;
				}
				break;
				case 3://是否根据主电机电流进行连锁控制   0:连锁控制  1:不连锁控制
				{
					dis_value=m_rPara.para.mm_control;
    3696:	60 91 65 0a 	lds	r22, 0x0A65
    369a:	70 e0       	ldi	r23, 0x00	; 0
					//
					led_buf[8].ch = LED_DIS_SPACK;
    369c:	85 e1       	ldi	r24, 0x15	; 21
    369e:	80 93 78 0b 	sts	0x0B78, r24
					led_buf[9].ch = LED_DIS_L;//连锁控制
    36a2:	91 e1       	ldi	r25, 0x11	; 17
    36a4:	90 93 79 0b 	sts	0x0B79, r25
					led_buf[10].ch = LED_DIS_S;
    36a8:	98 e2       	ldi	r25, 0x28	; 40
    36aa:	90 93 7a 0b 	sts	0x0B7A, r25
					led_buf[11].ch = LED_DIS_K;
    36ae:	94 e2       	ldi	r25, 0x24	; 36
    36b0:	92 c0       	rjmp	.+292    	; 0x37d6 <display_page+0x5b2>
					led_buf[13].ch = LED_DIS_SPACK;
				}
				break;
				case 4://电流传感器量程(10-100A),主电机电流
				{
					dis_value=m_rPara.para.cur1_full;
    36b2:	60 91 66 0a 	lds	r22, 0x0A66
    36b6:	70 e0       	ldi	r23, 0x00	; 0
					//
					led_buf[8].ch = LED_DIS_Z;//主电机电流1
    36b8:	8f e2       	ldi	r24, 0x2F	; 47
    36ba:	80 93 78 0b 	sts	0x0B78, r24
					led_buf[9].ch = LED_DIS_D;
    36be:	8d e0       	ldi	r24, 0x0D	; 13
    36c0:	80 93 79 0b 	sts	0x0B79, r24
					led_buf[10].ch = LED_DIS_J;
    36c4:	93 e2       	ldi	r25, 0x23	; 35
    36c6:	90 93 7a 0b 	sts	0x0B7A, r25
					led_buf[11].ch = LED_DIS_D;
    36ca:	80 93 7b 0b 	sts	0x0B7B, r24
					led_buf[12].ch = LED_DIS_L;
    36ce:	81 e1       	ldi	r24, 0x11	; 17
    36d0:	71 c0       	rjmp	.+226    	; 0x37b4 <display_page+0x590>
				break;
				case 5://设置料位传感器高低料位
				{
					dis_value=0;
					//
					led_buf[8].ch = LED_DIS_SPACK;
    36d2:	85 e1       	ldi	r24, 0x15	; 21
    36d4:	80 93 78 0b 	sts	0x0B78, r24
					led_buf[9].ch = LED_DIS_SPACK;
    36d8:	80 93 79 0b 	sts	0x0B79, r24
					led_buf[10].ch = LED_DIS_SPACK;
    36dc:	80 93 7a 0b 	sts	0x0B7A, r24
					led_buf[11].ch = LED_DIS_SPACK;
    36e0:	80 93 7b 0b 	sts	0x0B7B, r24
					led_buf[12].ch = LED_DIS_SPACK;
    36e4:	80 93 7c 0b 	sts	0x0B7C, r24
					led_buf[13].ch = LED_DIS_SPACK;
    36e8:	80 93 7d 0b 	sts	0x0B7D, r24
    36ec:	27 c1       	rjmp	.+590    	; 0x393c <display_page+0x718>
				}
				break;
				case 6://设置料位数据读取端口	  1:AD 2:485 3:LC
				{
					dis_value=m_rPara.para.material_port;
    36ee:	60 91 67 0a 	lds	r22, 0x0A67
    36f2:	70 e0       	ldi	r23, 0x00	; 0
					//
					led_buf[8].ch = LED_DIS_SPACK;
    36f4:	85 e1       	ldi	r24, 0x15	; 21
    36f6:	80 93 78 0b 	sts	0x0B78, r24
					led_buf[9].ch = LED_DIS_L;//料位端口
    36fa:	91 e1       	ldi	r25, 0x11	; 17
    36fc:	90 93 79 0b 	sts	0x0B79, r25
					led_buf[10].ch = LED_DIS_W;
    3700:	9c e2       	ldi	r25, 0x2C	; 44
    3702:	90 93 7a 0b 	sts	0x0B7A, r25
					led_buf[11].ch = LED_DIS_D;
    3706:	9d e0       	ldi	r25, 0x0D	; 13
    3708:	90 93 7b 0b 	sts	0x0B7B, r25
					led_buf[12].ch = LED_DIS_K;
    370c:	94 e2       	ldi	r25, 0x24	; 36
    370e:	66 c0       	rjmp	.+204    	; 0x37dc <display_page+0x5b8>
					led_buf[13].ch = LED_DIS_SPACK;
				}
				break;
				case 7://MB和转速之间的比例关系
				{
					dis_value=m_rPara.para.mb_div;
    3710:	60 91 76 0a 	lds	r22, 0x0A76
    3714:	70 e0       	ldi	r23, 0x00	; 0
					//
					led_buf[8].ch = LED_DIS_SPACK;
    3716:	85 e1       	ldi	r24, 0x15	; 21
    3718:	80 93 78 0b 	sts	0x0B78, r24
					led_buf[9].ch = LED_DIS_M;//MB
    371c:	91 e2       	ldi	r25, 0x21	; 33
    371e:	90 93 79 0b 	sts	0x0B79, r25
					led_buf[10].ch = LED_DIS_B;
    3722:	9b e0       	ldi	r25, 0x0B	; 11
    3724:	90 93 7a 0b 	sts	0x0B7A, r25
					led_buf[11].ch = LED_DIS_SPACK;
    3728:	80 93 7b 0b 	sts	0x0B7B, r24
					led_buf[12].ch = LED_DIS_SPACK;
    372c:	80 93 7c 0b 	sts	0x0B7C, r24
    3730:	90 cf       	rjmp	.-224    	; 0x3652 <display_page+0x42e>
				}
				break;
				#endif
				default://退出设置模式,进入工作模式
				{
					TRACE_STRING("jingruguozuomoshi");
    3732:	61 e1       	ldi	r22, 0x11	; 17
    3734:	88 e3       	ldi	r24, 0x38	; 56
    3736:	96 e0       	ldi	r25, 0x06	; 6
    3738:	fd c0       	rjmp	.+506    	; 0x3934 <display_page+0x710>
					reset_set_status();
				}
				break;
			}
		}
		else if(1==bit_setmode_3)
    373a:	90 91 aa 0a 	lds	r25, 0x0AAA
    373e:	91 30       	cpi	r25, 0x01	; 1
    3740:	09 f0       	breq	.+2      	; 0x3744 <display_page+0x520>
    3742:	82 c0       	rjmp	.+260    	; 0x3848 <display_page+0x624>
		{
			//需要密码进入的参数设置
			led_buf[1].ch=LED_DIS_3;
    3744:	93 e0       	ldi	r25, 0x03	; 3
    3746:	90 93 71 0b 	sts	0x0B71, r25
			//
			switch(pagenumber)
    374a:	90 e0       	ldi	r25, 0x00	; 0
    374c:	87 30       	cpi	r24, 0x07	; 7
    374e:	91 05       	cpc	r25, r1
    3750:	08 f0       	brcs	.+2      	; 0x3754 <display_page+0x530>
    3752:	76 c0       	rjmp	.+236    	; 0x3840 <display_page+0x61c>
    3754:	fc 01       	movw	r30, r24
    3756:	ef 59       	subi	r30, 0x9F	; 159
    3758:	ff 4f       	sbci	r31, 0xFF	; 255
    375a:	0c 94 6c 37 	jmp	0x6ed8	; 0x6ed8 <__tablejump2__>
			{
				case 0://启动料位值
				{
					dis_value=m_rPara.para.material_start;
    375e:	60 91 6d 0a 	lds	r22, 0x0A6D
    3762:	70 e0       	ldi	r23, 0x00	; 0
					//
					led_buf[8].ch = LED_DIS_SPACK;
    3764:	85 e1       	ldi	r24, 0x15	; 21
    3766:	80 93 78 0b 	sts	0x0B78, r24
					led_buf[9].ch = LED_DIS_Q;//启动料位值
    376a:	87 e2       	ldi	r24, 0x27	; 39
    376c:	80 93 79 0b 	sts	0x0B79, r24
					led_buf[10].ch = LED_DIS_D;
    3770:	8d e0       	ldi	r24, 0x0D	; 13
    3772:	0a c0       	rjmp	.+20     	; 0x3788 <display_page+0x564>
					led_buf[13].ch = LED_DIS_Z;
				}
				break;
				case 1://停机料位值
				{
					dis_value=m_rPara.para.material_stop;
    3774:	60 91 6e 0a 	lds	r22, 0x0A6E
    3778:	70 e0       	ldi	r23, 0x00	; 0
					//
					led_buf[8].ch = LED_DIS_SPACK;
    377a:	85 e1       	ldi	r24, 0x15	; 21
    377c:	80 93 78 0b 	sts	0x0B78, r24
					led_buf[9].ch = LED_DIS_T;//停机料位值
    3780:	89 e2       	ldi	r24, 0x29	; 41
    3782:	80 93 79 0b 	sts	0x0B79, r24
					led_buf[10].ch = LED_DIS_J;
    3786:	83 e2       	ldi	r24, 0x23	; 35
    3788:	80 93 7a 0b 	sts	0x0B7A, r24
					led_buf[11].ch = LED_DIS_L;
    378c:	81 e1       	ldi	r24, 0x11	; 17
    378e:	80 93 7b 0b 	sts	0x0B7B, r24
					led_buf[12].ch = LED_DIS_W;
    3792:	8c e2       	ldi	r24, 0x2C	; 44
    3794:	c8 c0       	rjmp	.+400    	; 0x3926 <display_page+0x702>
					led_buf[13].ch = LED_DIS_Z;
				}
				break;
				case 2://电流修正值
				{
					dis_value=m_rPara.para.current1_modify;
    3796:	60 91 6f 0a 	lds	r22, 0x0A6F
    379a:	70 e0       	ldi	r23, 0x00	; 0
					//
					led_buf[8].ch = LED_DIS_D;//电流修正值
    379c:	8d e0       	ldi	r24, 0x0D	; 13
    379e:	80 93 78 0b 	sts	0x0B78, r24
					led_buf[9].ch = LED_DIS_L;
    37a2:	81 e1       	ldi	r24, 0x11	; 17
    37a4:	80 93 79 0b 	sts	0x0B79, r24
					led_buf[10].ch = LED_DIS_X;
    37a8:	8d e2       	ldi	r24, 0x2D	; 45
    37aa:	80 93 7a 0b 	sts	0x0B7A, r24
					led_buf[11].ch = LED_DIS_Z;
    37ae:	8f e2       	ldi	r24, 0x2F	; 47
    37b0:	80 93 7b 0b 	sts	0x0B7B, r24
					led_buf[12].ch = LED_DIS_Z;
    37b4:	80 93 7c 0b 	sts	0x0B7C, r24
					led_buf[13].ch = LED_DIS_1;
    37b8:	81 e0       	ldi	r24, 0x01	; 1
    37ba:	4b cf       	rjmp	.-362    	; 0x3652 <display_page+0x42e>
				}
				break;
				case 3://MODBUS通信从机地址
				{
					dis_value=m_rPara.para.addr_modbus;
    37bc:	60 91 72 0a 	lds	r22, 0x0A72
    37c0:	70 e0       	ldi	r23, 0x00	; 0
					//
					led_buf[8].ch = LED_DIS_SPACK;
    37c2:	85 e1       	ldi	r24, 0x15	; 21
    37c4:	80 93 78 0b 	sts	0x0B78, r24
					led_buf[9].ch = LED_DIS_C;//从机地址
    37c8:	9c e0       	ldi	r25, 0x0C	; 12
    37ca:	90 93 79 0b 	sts	0x0B79, r25
					led_buf[10].ch = LED_DIS_J;
    37ce:	93 e2       	ldi	r25, 0x23	; 35
    37d0:	90 93 7a 0b 	sts	0x0B7A, r25
					led_buf[11].ch = LED_DIS_D;
    37d4:	9d e0       	ldi	r25, 0x0D	; 13
    37d6:	90 93 7b 0b 	sts	0x0B7B, r25
					led_buf[12].ch = LED_DIS_Z;
    37da:	9f e2       	ldi	r25, 0x2F	; 47
    37dc:	90 93 7c 0b 	sts	0x0B7C, r25
    37e0:	38 cf       	rjmp	.-400    	; 0x3652 <display_page+0x42e>
					led_buf[13].ch = LED_DIS_SPACK;
				}
				break;
				case 4://MODBUS通信波特率
				{
					dis_value=m_rPara.para.baud_modbus;
    37e2:	60 91 73 0a 	lds	r22, 0x0A73
    37e6:	70 e0       	ldi	r23, 0x00	; 0
					//
					led_buf[8].ch = LED_DIS_SPACK;
    37e8:	85 e1       	ldi	r24, 0x15	; 21
    37ea:	80 93 78 0b 	sts	0x0B78, r24
					led_buf[9].ch = LED_DIS_T;//通信波特率
    37ee:	89 e2       	ldi	r24, 0x29	; 41
    37f0:	80 93 79 0b 	sts	0x0B79, r24
					led_buf[10].ch = LED_DIS_X;
    37f4:	9d e2       	ldi	r25, 0x2D	; 45
    37f6:	90 93 7a 0b 	sts	0x0B7A, r25
					led_buf[11].ch = LED_DIS_B;
    37fa:	9b e0       	ldi	r25, 0x0B	; 11
    37fc:	90 93 7b 0b 	sts	0x0B7B, r25
					led_buf[12].ch = LED_DIS_T;
    3800:	80 93 7c 0b 	sts	0x0B7C, r24
					led_buf[13].ch = LED_DIS_L;
    3804:	81 e1       	ldi	r24, 0x11	; 17
    3806:	25 cf       	rjmp	.-438    	; 0x3652 <display_page+0x42e>
				}
				break;
				case 5://MB输入选择（电平或者脉冲）
				{
					dis_value = m_rPara.para.mb_level_pulse;
    3808:	60 91 74 0a 	lds	r22, 0x0A74
    380c:	70 e0       	ldi	r23, 0x00	; 0
					//
					led_buf[8].ch = LED_DIS_SPACK;
    380e:	85 e1       	ldi	r24, 0x15	; 21
    3810:	80 93 78 0b 	sts	0x0B78, r24
					led_buf[9].ch = LED_DIS_M;//MB输入
    3814:	91 e2       	ldi	r25, 0x21	; 33
    3816:	90 93 79 0b 	sts	0x0B79, r25
					led_buf[10].ch = LED_DIS_B;
    381a:	9b e0       	ldi	r25, 0x0B	; 11
    381c:	0a c0       	rjmp	.+20     	; 0x3832 <display_page+0x60e>
					led_buf[13].ch = LED_DIS_SPACK;
				}
				break;
				case 6://DW输入选择（电平或者脉冲）
				{
					dis_value = m_rPara.para.dw_level_pulse;
    381e:	60 91 75 0a 	lds	r22, 0x0A75
    3822:	70 e0       	ldi	r23, 0x00	; 0
					//
					led_buf[8].ch = LED_DIS_SPACK;
    3824:	85 e1       	ldi	r24, 0x15	; 21
    3826:	80 93 78 0b 	sts	0x0B78, r24
					led_buf[9].ch = LED_DIS_D;//DW输入
    382a:	9d e0       	ldi	r25, 0x0D	; 13
    382c:	90 93 79 0b 	sts	0x0B79, r25
					led_buf[10].ch = LED_DIS_W;
    3830:	9c e2       	ldi	r25, 0x2C	; 44
    3832:	90 93 7a 0b 	sts	0x0B7A, r25
					led_buf[11].ch = LED_DIS_S;
    3836:	98 e2       	ldi	r25, 0x28	; 40
    3838:	90 93 7b 0b 	sts	0x0B7B, r25
					led_buf[12].ch = LED_DIS_R;
    383c:	93 e1       	ldi	r25, 0x13	; 19
    383e:	ce cf       	rjmp	.-100    	; 0x37dc <display_page+0x5b8>
				}
				break;
				#endif
				default://退出设置模式,进入工作模式
				{
					TRACE_STRING("jingruguozuomoshi2");
    3840:	62 e1       	ldi	r22, 0x12	; 18
    3842:	8a e4       	ldi	r24, 0x4A	; 74
    3844:	96 e0       	ldi	r25, 0x06	; 6
    3846:	76 c0       	rjmp	.+236    	; 0x3934 <display_page+0x710>
			}
		}
		else
		{
			//设置外部参数
			led_buf[1].ch=LED_DIS_1;
    3848:	91 e0       	ldi	r25, 0x01	; 1
    384a:	90 93 71 0b 	sts	0x0B71, r25
			//
			switch(pagenumber)
    384e:	82 30       	cpi	r24, 0x02	; 2
    3850:	d9 f1       	breq	.+118    	; 0x38c8 <display_page+0x6a4>
    3852:	88 f4       	brcc	.+34     	; 0x3876 <display_page+0x652>
    3854:	88 23       	and	r24, r24
    3856:	39 f1       	breq	.+78     	; 0x38a6 <display_page+0x682>
    3858:	81 30       	cpi	r24, 0x01	; 1
    385a:	09 f0       	breq	.+2      	; 0x385e <display_page+0x63a>
    385c:	68 c0       	rjmp	.+208    	; 0x392e <display_page+0x70a>
					led_buf[13].ch = LED_DIS_SPACK;
				}
				break;
				case 1://最低转速(40-300)
				{
					dis_value=m_rPara.para.min_vel;
    385e:	60 91 5e 0a 	lds	r22, 0x0A5E
    3862:	70 91 5f 0a 	lds	r23, 0x0A5F
					//
					led_buf[8].ch = LED_DIS_SPACK;
    3866:	85 e1       	ldi	r24, 0x15	; 21
    3868:	80 93 78 0b 	sts	0x0B78, r24
					led_buf[9].ch = LED_DIS_Z;//最低转速
    386c:	9f e2       	ldi	r25, 0x2F	; 47
    386e:	90 93 79 0b 	sts	0x0B79, r25
					led_buf[10].ch = LED_DIS_D;
    3872:	2d e0       	ldi	r18, 0x0D	; 13
    3874:	23 c0       	rjmp	.+70     	; 0x38bc <display_page+0x698>
		else
		{
			//设置外部参数
			led_buf[1].ch=LED_DIS_1;
			//
			switch(pagenumber)
    3876:	84 30       	cpi	r24, 0x04	; 4
    3878:	09 f4       	brne	.+2      	; 0x387c <display_page+0x658>
    387a:	48 c0       	rjmp	.+144    	; 0x390c <display_page+0x6e8>
    387c:	c8 f1       	brcs	.+114    	; 0x38f0 <display_page+0x6cc>
    387e:	85 30       	cpi	r24, 0x05	; 5
    3880:	09 f0       	breq	.+2      	; 0x3884 <display_page+0x660>
    3882:	55 c0       	rjmp	.+170    	; 0x392e <display_page+0x70a>
					led_buf[13].ch = LED_DIS_SPACK;
				}
				break;
				case 5://恢复默认参数
				{
					dis_value=set_default;
    3884:	60 91 a8 0a 	lds	r22, 0x0AA8
    3888:	70 e0       	ldi	r23, 0x00	; 0
					//
					led_buf[8].ch = LED_DIS_SPACK;
    388a:	85 e1       	ldi	r24, 0x15	; 21
    388c:	80 93 78 0b 	sts	0x0B78, r24
					led_buf[9].ch = LED_DIS_H;//恢复默认值
    3890:	80 e1       	ldi	r24, 0x10	; 16
    3892:	80 93 79 0b 	sts	0x0B79, r24
					led_buf[10].ch = LED_DIS_F;
    3896:	8f e0       	ldi	r24, 0x0F	; 15
    3898:	80 93 7a 0b 	sts	0x0B7A, r24
					led_buf[11].ch = LED_DIS_M;
    389c:	81 e2       	ldi	r24, 0x21	; 33
    389e:	80 93 7b 0b 	sts	0x0B7B, r24
					led_buf[12].ch = LED_DIS_R;
    38a2:	83 e1       	ldi	r24, 0x13	; 19
    38a4:	40 c0       	rjmp	.+128    	; 0x3926 <display_page+0x702>
			//
			switch(pagenumber)
			{
				case 0://最高转速(40-300)
				{
					dis_value=m_rPara.para.max_vel;
    38a6:	60 91 5c 0a 	lds	r22, 0x0A5C
    38aa:	70 91 5d 0a 	lds	r23, 0x0A5D
					//
					led_buf[8].ch = LED_DIS_SPACK;
    38ae:	85 e1       	ldi	r24, 0x15	; 21
    38b0:	80 93 78 0b 	sts	0x0B78, r24
					led_buf[9].ch = LED_DIS_Z;//最高转速
    38b4:	9f e2       	ldi	r25, 0x2F	; 47
    38b6:	90 93 79 0b 	sts	0x0B79, r25
					led_buf[10].ch = LED_DIS_G;
    38ba:	22 e2       	ldi	r18, 0x22	; 34
				{
					dis_value=m_rPara.para.min_vel;
					//
					led_buf[8].ch = LED_DIS_SPACK;
					led_buf[9].ch = LED_DIS_Z;//最低转速
					led_buf[10].ch = LED_DIS_D;
    38bc:	20 93 7a 0b 	sts	0x0B7A, r18
					led_buf[11].ch = LED_DIS_Z;
    38c0:	90 93 7b 0b 	sts	0x0B7B, r25
					led_buf[12].ch = LED_DIS_S;
    38c4:	98 e2       	ldi	r25, 0x28	; 40
    38c6:	8a cf       	rjmp	.-236    	; 0x37dc <display_page+0x5b8>
					led_buf[13].ch = LED_DIS_SPACK;
				}
				break;
				case 2://主电机额定电流(10-100A)
				{
					dis_value=m_rPara.para.mmotor_cur1;
    38c8:	60 91 60 0a 	lds	r22, 0x0A60
    38cc:	70 e0       	ldi	r23, 0x00	; 0
					//
					led_buf[8].ch = LED_DIS_Z;//主额定电流1
    38ce:	8f e2       	ldi	r24, 0x2F	; 47
    38d0:	80 93 78 0b 	sts	0x0B78, r24
					led_buf[9].ch = LED_DIS_E;
    38d4:	8e e0       	ldi	r24, 0x0E	; 14
    38d6:	80 93 79 0b 	sts	0x0B79, r24
					led_buf[10].ch = LED_DIS_D;
    38da:	8d e0       	ldi	r24, 0x0D	; 13
    38dc:	80 93 7a 0b 	sts	0x0B7A, r24
					led_buf[11].ch = LED_DIS_D;
    38e0:	80 93 7b 0b 	sts	0x0B7B, r24
					led_buf[12].ch = LED_DIS_L;
    38e4:	81 e1       	ldi	r24, 0x11	; 17
    38e6:	80 93 7c 0b 	sts	0x0B7C, r24
					led_buf[13].ch = LED_DIS_1;
    38ea:	90 93 7d 0b 	sts	0x0B7D, r25
				}
				break;
    38ee:	28 c0       	rjmp	.+80     	; 0x3940 <display_page+0x71c>
				case 3://合轧延时时间(0.2-20s)
				{
					dis_value=m_rPara.para.rollin_delay;
    38f0:	60 91 61 0a 	lds	r22, 0x0A61
    38f4:	70 e0       	ldi	r23, 0x00	; 0
					//
					led_buf[8].ch = LED_DIS_SPACK;
    38f6:	85 e1       	ldi	r24, 0x15	; 21
    38f8:	80 93 78 0b 	sts	0x0B78, r24
					led_buf[9].ch = LED_DIS_H;//合轧延时
    38fc:	90 e1       	ldi	r25, 0x10	; 16
    38fe:	90 93 79 0b 	sts	0x0B79, r25
					led_buf[10].ch = LED_DIS_Z;
    3902:	9f e2       	ldi	r25, 0x2F	; 47
    3904:	90 93 7a 0b 	sts	0x0B7A, r25
					led_buf[11].ch = LED_DIS_Y;
    3908:	9e e2       	ldi	r25, 0x2E	; 46
    390a:	da cf       	rjmp	.-76     	; 0x38c0 <display_page+0x69c>
				}
				break;
				case 4://测试数据显示
				{
					//dis_value = eeprom_read_byte_user(&m_ePara[0].para.all_stop_id);
					dis_value = m_rPara.para.all_stop_id;
    390c:	60 91 6c 0a 	lds	r22, 0x0A6C
    3910:	70 e0       	ldi	r23, 0x00	; 0
					//
					led_buf[8].ch = LED_DIS_SPACK;
    3912:	85 e1       	ldi	r24, 0x15	; 21
    3914:	80 93 78 0b 	sts	0x0B78, r24
					led_buf[9].ch = LED_DIS_C;//测试数据
    3918:	9c e0       	ldi	r25, 0x0C	; 12
    391a:	90 93 79 0b 	sts	0x0B79, r25
					led_buf[10].ch = LED_DIS_S;
    391e:	98 e2       	ldi	r25, 0x28	; 40
    3920:	90 93 7a 0b 	sts	0x0B7A, r25
    3924:	27 cd       	rjmp	.-1458   	; 0x3374 <display_page+0x150>
					//
					led_buf[8].ch = LED_DIS_SPACK;
					led_buf[9].ch = LED_DIS_H;//恢复默认值
					led_buf[10].ch = LED_DIS_F;
					led_buf[11].ch = LED_DIS_M;
					led_buf[12].ch = LED_DIS_R;
    3926:	80 93 7c 0b 	sts	0x0B7C, r24
					led_buf[13].ch = LED_DIS_Z;
    392a:	8f e2       	ldi	r24, 0x2F	; 47
    392c:	92 ce       	rjmp	.-732    	; 0x3652 <display_page+0x42e>
				}
				break;
				#endif
				default://退出设置模式,进入工作模式
				{
					TRACE_STRING("jingruguozuomoshi3");
    392e:	62 e1       	ldi	r22, 0x12	; 18
    3930:	8d e5       	ldi	r24, 0x5D	; 93
    3932:	96 e0       	ldi	r25, 0x06	; 6
    3934:	0e 94 20 2b 	call	0x5640	; 0x5640 <send_uart1_to_computer>
					reset_set_status();
    3938:	0e 94 30 15 	call	0x2a60	; 0x2a60 <reset_set_status>
		}
	}
	else
	{
		//参数设置界面
		dis_value=0;
    393c:	60 e0       	ldi	r22, 0x00	; 0
    393e:	70 e0       	ldi	r23, 0x00	; 0
				}
				break;
			}
		}
		//
		led_addr_switch_3bits((unsigned char*)&led_buf[4].ch,dis_value);
    3940:	84 e7       	ldi	r24, 0x74	; 116
    3942:	9b e0       	ldi	r25, 0x0B	; 11
    3944:	0c 94 f5 18 	jmp	0x31ea	; 0x31ea <led_addr_switch_3bits>
					bit_setmode_pwd_time=0;
					pagenumber=0;
				}
				else
				{
			        TRACE_STRING("bit_setmode_password1");
    3948:	65 e1       	ldi	r22, 0x15	; 21
    394a:	80 e7       	ldi	r24, 0x70	; 112
    394c:	96 e0       	ldi	r25, 0x06	; 6
    394e:	06 c0       	rjmp	.+12     	; 0x395c <display_page+0x738>
				}
				if(6 == i)
				{
					bit_setmode_password=0;
					bit_setmode_3=1;//进入限时设置
					pagenumber=0;
    3950:	10 92 b8 0a 	sts	0x0AB8, r1
    3954:	08 95       	ret
				}
				else
				{
					TRACE_STRING("bit_setmode_password2");
    3956:	65 e1       	ldi	r22, 0x15	; 21
    3958:	86 e8       	ldi	r24, 0x86	; 134
    395a:	96 e0       	ldi	r25, 0x06	; 6
    395c:	0e 94 20 2b 	call	0x5640	; 0x5640 <send_uart1_to_computer>
					reset_set_status();//退出设置
    3960:	0c 94 30 15 	jmp	0x2a60	; 0x2a60 <reset_set_status>

00003964 <led_display>:
void led_display(void)
{
	unsigned short m_vel,m_cur;
	//
	//判断主电机电流溢出是否达到停机要求
	if(m_cur_d1 < mm_cur_overflow_stop)
    3964:	20 91 f0 0a 	lds	r18, 0x0AF0
    3968:	30 91 f1 0a 	lds	r19, 0x0AF1
    396c:	80 91 67 0b 	lds	r24, 0x0B67
    3970:	90 91 68 0b 	lds	r25, 0x0B68
    3974:	28 17       	cp	r18, r24
    3976:	39 07       	cpc	r19, r25
    3978:	10 f4       	brcc	.+4      	; 0x397e <led_display+0x1a>
	{
		//不清除的话，每秒自动加一
		cur_overflow_delay=0;
    397a:	10 92 31 0b 	sts	0x0B31, r1
	}
	//
	if(GAOLIAOWEI==m_cgq_ack)
    397e:	80 91 e2 0a 	lds	r24, 0x0AE2
    3982:	84 33       	cpi	r24, 0x34	; 52
    3984:	69 f4       	brne	.+26     	; 0x39a0 <led_display+0x3c>
	{
		led_buf[1].ch=LED_DIS_SPACK;
    3986:	85 e1       	ldi	r24, 0x15	; 21
    3988:	80 93 71 0b 	sts	0x0B71, r24
		led_buf[2].ch=LED_DIS_SPACK;
    398c:	80 93 72 0b 	sts	0x0B72, r24
		led_buf[3].ch=LED_DIS_SPACK;
    3990:	80 93 73 0b 	sts	0x0B73, r24
		led_buf[4].ch=LED_DIS_SPACK;
    3994:	80 93 74 0b 	sts	0x0B74, r24
		led_buf[5].ch=LED_DIS_SPACK;
    3998:	80 93 75 0b 	sts	0x0B75, r24
		led_buf[6].ch=LED_DIS_H;
    399c:	80 e1       	ldi	r24, 0x10	; 16
    399e:	0e c0       	rjmp	.+28     	; 0x39bc <led_display+0x58>
		{
			m_cgq_ack=0;
			m_cgq_ack_delay=0;
		}
	}
	else if(DILIAOWEI==m_cgq_ack)
    39a0:	85 33       	cpi	r24, 0x35	; 53
    39a2:	c1 f4       	brne	.+48     	; 0x39d4 <led_display+0x70>
	{
		led_buf[1].ch=LED_DIS_SPACK;
    39a4:	85 e1       	ldi	r24, 0x15	; 21
    39a6:	80 93 71 0b 	sts	0x0B71, r24
		led_buf[2].ch=LED_DIS_SPACK;
    39aa:	80 93 72 0b 	sts	0x0B72, r24
		led_buf[3].ch=LED_DIS_SPACK;
    39ae:	80 93 73 0b 	sts	0x0B73, r24
		led_buf[4].ch=LED_DIS_SPACK;
    39b2:	80 93 74 0b 	sts	0x0B74, r24
		led_buf[5].ch=LED_DIS_SPACK;
    39b6:	80 93 75 0b 	sts	0x0B75, r24
		led_buf[6].ch=LED_DIS_L;
    39ba:	81 e1       	ldi	r24, 0x11	; 17
    39bc:	80 93 76 0b 	sts	0x0B76, r24
		if(m_cgq_ack_delay > 9)
    39c0:	80 91 69 0b 	lds	r24, 0x0B69
    39c4:	8a 30       	cpi	r24, 0x0A	; 10
    39c6:	08 f4       	brcc	.+2      	; 0x39ca <led_display+0x66>
    39c8:	a3 c0       	rjmp	.+326    	; 0x3b10 <led_display+0x1ac>
		{
			m_cgq_ack=0;
    39ca:	10 92 e2 0a 	sts	0x0AE2, r1
			m_cgq_ack_delay=0;
    39ce:	10 92 69 0b 	sts	0x0B69, r1
    39d2:	08 95       	ret
		}
	}
	else if((0==bit_setmode) && (0==bit_monitor_mode) && (0==bit_alarm_mode))
    39d4:	80 91 c5 0a 	lds	r24, 0x0AC5
    39d8:	81 11       	cpse	r24, r1
    39da:	94 c0       	rjmp	.+296    	; 0x3b04 <led_display+0x1a0>
    39dc:	80 91 f2 0a 	lds	r24, 0x0AF2
    39e0:	81 11       	cpse	r24, r1
    39e2:	90 c0       	rjmp	.+288    	; 0x3b04 <led_display+0x1a0>
    39e4:	80 91 df 0a 	lds	r24, 0x0ADF
    39e8:	81 11       	cpse	r24, r1
    39ea:	8c c0       	rjmp	.+280    	; 0x3b04 <led_display+0x1a0>
	{
		//工作模式的数码管显示
		if(1==bit_xieliao)
    39ec:	80 91 ed 0a 	lds	r24, 0x0AED
    39f0:	81 30       	cpi	r24, 0x01	; 1
    39f2:	39 f4       	brne	.+14     	; 0x3a02 <led_display+0x9e>
		{
			m_vel=m_rPara.para.max_vel>>1;
    39f4:	60 91 5c 0a 	lds	r22, 0x0A5C
    39f8:	70 91 5d 0a 	lds	r23, 0x0A5D
    39fc:	76 95       	lsr	r23
    39fe:	67 95       	ror	r22
    3a00:	18 c0       	rjmp	.+48     	; 0x3a32 <led_display+0xce>
		}
		else if(0==bit_fmotor)
    3a02:	80 91 33 0b 	lds	r24, 0x0B33
    3a06:	88 23       	and	r24, r24
    3a08:	91 f0       	breq	.+36     	; 0x3a2e <led_display+0xca>
		{
			m_vel=0;
		}
		else if(1==bit_auto)
    3a0a:	80 91 0d 0b 	lds	r24, 0x0B0D
    3a0e:	81 30       	cpi	r24, 0x01	; 1
    3a10:	29 f4       	brne	.+10     	; 0x3a1c <led_display+0xb8>
		{
			m_vel=auto_vel;
    3a12:	60 91 5f 0b 	lds	r22, 0x0B5F
    3a16:	70 91 60 0b 	lds	r23, 0x0B60
    3a1a:	0b c0       	rjmp	.+22     	; 0x3a32 <led_display+0xce>
		}
		else if(1==bit_manual)
    3a1c:	80 91 fe 0a 	lds	r24, 0x0AFE
    3a20:	81 30       	cpi	r24, 0x01	; 1
    3a22:	29 f4       	brne	.+10     	; 0x3a2e <led_display+0xca>
		{
			m_vel=m_rPara.para.manual_vel;
    3a24:	60 91 68 0a 	lds	r22, 0x0A68
    3a28:	70 91 69 0a 	lds	r23, 0x0A69
    3a2c:	02 c0       	rjmp	.+4      	; 0x3a32 <led_display+0xce>
		{
			m_vel=m_rPara.para.max_vel>>1;
		}
		else if(0==bit_fmotor)
		{
			m_vel=0;
    3a2e:	60 e0       	ldi	r22, 0x00	; 0
    3a30:	70 e0       	ldi	r23, 0x00	; 0
		else
		{
			m_vel=0;
		}
		//
		modbus_status.status.m_rpm = m_vel;//转速  
    3a32:	70 93 16 0d 	sts	0x0D16, r23
    3a36:	60 93 15 0d 	sts	0x0D15, r22
        
		//m_vel = 123;//转速



        led_addr_switch_3bits((unsigned char*)&led_buf[4].ch,m_vel);
    3a3a:	84 e7       	ldi	r24, 0x74	; 116
    3a3c:	9b e0       	ldi	r25, 0x0B	; 11
    3a3e:	0e 94 f5 18 	call	0x31ea	; 0x31ea <led_addr_switch_3bits>
		//
		//主电机电流要一直显示,不管键盘上的主电机启动按钮是否按下,因为有可
		//能在别的地方启动主电机
		m_cur=m_cur_cal;
    3a42:	80 91 62 0b 	lds	r24, 0x0B62
    3a46:	90 91 63 0b 	lds	r25, 0x0B63
		//确定小数点的位置
		modbus_status.status.m_cur_i = m_cur;//有乘10的效果
    3a4a:	90 93 14 0d 	sts	0x0D14, r25
    3a4e:	80 93 13 0d 	sts	0x0D13, r24


        //m_cur = 456;//有乘10的效果
		//
		if(m_cur < 100)
    3a52:	84 36       	cpi	r24, 0x64	; 100
    3a54:	91 05       	cpc	r25, r1
    3a56:	c0 f4       	brcc	.+48     	; 0x3a88 <led_display+0x124>
		{
			m_cur*=10;
    3a58:	2a e0       	ldi	r18, 0x0A	; 10
    3a5a:	28 9f       	mul	r18, r24
    3a5c:	b0 01       	movw	r22, r0
    3a5e:	29 9f       	mul	r18, r25
    3a60:	70 0d       	add	r23, r0
    3a62:	11 24       	eor	r1, r1
			m_cur+=m_cur_round;
    3a64:	80 91 e0 0a 	lds	r24, 0x0AE0
    3a68:	68 0f       	add	r22, r24
    3a6a:	71 1d       	adc	r23, r1
			led_addr_switch_3bits((unsigned char*)&led_buf[1].ch,m_cur);
    3a6c:	81 e7       	ldi	r24, 0x71	; 113
    3a6e:	9b e0       	ldi	r25, 0x0B	; 11
    3a70:	0e 94 f5 18 	call	0x31ea	; 0x31ea <led_addr_switch_3bits>
			if(LED_DIS_SPACK != led_buf[1].ch)
    3a74:	80 91 71 0b 	lds	r24, 0x0B71
    3a78:	85 31       	cpi	r24, 0x15	; 21
    3a7a:	81 f0       	breq	.+32     	; 0x3a9c <led_display+0x138>
			{
				led_buf[1].ch += 22;
    3a7c:	80 91 71 0b 	lds	r24, 0x0B71
    3a80:	8a 5e       	subi	r24, 0xEA	; 234
    3a82:	80 93 71 0b 	sts	0x0B71, r24
    3a86:	0a c0       	rjmp	.+20     	; 0x3a9c <led_display+0x138>
			}
		}
		else
		{
			led_addr_switch_3bits((unsigned char*)&led_buf[1].ch,m_cur);
    3a88:	bc 01       	movw	r22, r24
    3a8a:	81 e7       	ldi	r24, 0x71	; 113
    3a8c:	9b e0       	ldi	r25, 0x0B	; 11
    3a8e:	0e 94 f5 18 	call	0x31ea	; 0x31ea <led_addr_switch_3bits>
			led_buf[2].ch += 22;
    3a92:	80 91 72 0b 	lds	r24, 0x0B72
    3a96:	8a 5e       	subi	r24, 0xEA	; 234
    3a98:	80 93 72 0b 	sts	0x0B72, r24
		}
		//
		led_buf[11].ch = led_buf[4].ch;//转速
    3a9c:	80 91 74 0b 	lds	r24, 0x0B74
    3aa0:	80 93 7b 0b 	sts	0x0B7B, r24
		led_buf[12].ch = led_buf[5].ch;
    3aa4:	80 91 75 0b 	lds	r24, 0x0B75
    3aa8:	80 93 7c 0b 	sts	0x0B7C, r24
		led_buf[13].ch = led_buf[6].ch;
    3aac:	80 91 76 0b 	lds	r24, 0x0B76
    3ab0:	80 93 7d 0b 	sts	0x0B7D, r24
		led_buf[8].ch = LED_DIS_R;//R
    3ab4:	83 e1       	ldi	r24, 0x13	; 19
    3ab6:	80 93 78 0b 	sts	0x0B78, r24
		led_buf[9].ch = LED_DIS_P;//P
    3aba:	82 e1       	ldi	r24, 0x12	; 18
    3abc:	80 93 79 0b 	sts	0x0B79, r24
		led_buf[10].ch = LED_DIS_M;//M
    3ac0:	81 e2       	ldi	r24, 0x21	; 33
    3ac2:	80 93 7a 0b 	sts	0x0B7A, r24
		//
		if(1==bit_mmotor)
    3ac6:	80 91 43 0b 	lds	r24, 0x0B43
    3aca:	81 30       	cpi	r24, 0x01	; 1
    3acc:	59 f4       	brne	.+22     	; 0x3ae4 <led_display+0x180>
		{
		led_buf[4].ch = led_buf[3].ch;//电流
    3ace:	80 91 73 0b 	lds	r24, 0x0B73
    3ad2:	80 93 74 0b 	sts	0x0B74, r24
		led_buf[3].ch = led_buf[2].ch;
    3ad6:	80 91 72 0b 	lds	r24, 0x0B72
    3ada:	80 93 73 0b 	sts	0x0B73, r24
		led_buf[2].ch = led_buf[1].ch;	
    3ade:	80 91 71 0b 	lds	r24, 0x0B71
    3ae2:	05 c0       	rjmp	.+10     	; 0x3aee <led_display+0x18a>
		}
		else
		{
			led_buf[4].ch = LED_DIS_0;//电流
    3ae4:	10 92 74 0b 	sts	0x0B74, r1
			led_buf[3].ch = LED_DIS_SPACK;
    3ae8:	85 e1       	ldi	r24, 0x15	; 21
    3aea:	80 93 73 0b 	sts	0x0B73, r24
			led_buf[2].ch = LED_DIS_SPACK;
    3aee:	80 93 72 0b 	sts	0x0B72, r24
		}
		led_buf[1].ch = LED_DIS_I;//I
    3af2:	80 e2       	ldi	r24, 0x20	; 32
    3af4:	80 93 71 0b 	sts	0x0B71, r24
		//
		led_buf[5].ch = LED_DIS_SPACK;
    3af8:	85 e1       	ldi	r24, 0x15	; 21
    3afa:	80 93 75 0b 	sts	0x0B75, r24
		led_buf[6].ch = LED_DIS_SPACK;
    3afe:	80 93 76 0b 	sts	0x0B76, r24
    3b02:	08 95       	ret
	}
	else
	{
		//设置模式下的数码管显示
		display_page();
    3b04:	0e 94 12 19 	call	0x3224	; 0x3224 <display_page>
		//		
		bit_current_1st = 0;
    3b08:	10 92 b6 0a 	sts	0x0AB6, r1
		bit_current_2nd = 0;
    3b0c:	10 92 ba 0a 	sts	0x0ABA, r1
    3b10:	08 95       	ret

00003b12 <modbus_status_update>:
 void modbus_status_update(void)
 {
	 //原有的一些状态就不管了，新增加的状态尽量集中在该处更新。
	 //5ms调用一次，对效率没有什么影响。
	 //bear, 20170514
	 modbus_status.status.m_rolllocked = bit_rolllock;
    3b12:	90 91 4d 0b 	lds	r25, 0x0B4D
    3b16:	e9 e1       	ldi	r30, 0x19	; 25
    3b18:	fd e0       	ldi	r31, 0x0D	; 13
    3b1a:	81 81       	ldd	r24, Z+1	; 0x01
    3b1c:	90 fb       	bst	r25, 0
    3b1e:	81 f9       	bld	r24, 1
    3b20:	81 83       	std	Z+1, r24	; 0x01
	 modbus_status.status.m_duliao = bit_duliao;
    3b22:	90 91 c0 0a 	lds	r25, 0x0AC0
    3b26:	81 81       	ldd	r24, Z+1	; 0x01
    3b28:	90 fb       	bst	r25, 0
    3b2a:	82 f9       	bld	r24, 2
    3b2c:	81 83       	std	Z+1, r24	; 0x01
	 modbus_status.status.m_mb_validity = mb_is_invalid;
    3b2e:	90 91 51 0b 	lds	r25, 0x0B51
    3b32:	81 81       	ldd	r24, Z+1	; 0x01
    3b34:	90 fb       	bst	r25, 0
    3b36:	83 f9       	bld	r24, 3
    3b38:	81 83       	std	Z+1, r24	; 0x01
    3b3a:	08 95       	ret

00003b3c <modbus_init>:
 }
 /////////////////////////////////////////////////////////////////
 void modbus_init(void)
 {
	 uart1_init();
    3b3c:	0e 94 09 2b 	call	0x5612	; 0x5612 <uart1_init>
	 //
	 is_read_maintain_reg_frame = FALSE;
    3b40:	10 92 66 08 	sts	0x0866, r1
	 is_write_multi_reg_frame = FALSE;
    3b44:	10 92 65 08 	sts	0x0865, r1
	 is_read_maintain_reg_frame_ok = FALSE;
    3b48:	10 92 64 08 	sts	0x0864, r1
	 is_write_multi_reg_frame_ok = FALSE;
    3b4c:	10 92 63 08 	sts	0x0863, r1
	 //
	 read_maintain_reg_frame_ok = &read_maintain_reg_frame[1];
    3b50:	8a e0       	ldi	r24, 0x0A	; 10
    3b52:	9d e0       	ldi	r25, 0x0D	; 13
    3b54:	90 93 0d 0e 	sts	0x0E0D, r25
    3b58:	80 93 0c 0e 	sts	0x0E0C, r24
	 read_maintain_reg_frame_tmp = &read_maintain_reg_frame[0];
    3b5c:	82 e0       	ldi	r24, 0x02	; 2
    3b5e:	9d e0       	ldi	r25, 0x0D	; 13
    3b60:	90 93 0f 0e 	sts	0x0E0F, r25
    3b64:	80 93 0e 0e 	sts	0x0E0E, r24
	 write_multi_reg_frame_ok = &write_multi_reg_frame[1];
    3b68:	87 ea       	ldi	r24, 0xA7	; 167
    3b6a:	9d e0       	ldi	r25, 0x0D	; 13
    3b6c:	90 93 01 0c 	sts	0x0C01, r25
    3b70:	80 93 00 0c 	sts	0x0C00, r24
	 write_multi_reg_frame_tmp = &write_multi_reg_frame[0];
    3b74:	83 e4       	ldi	r24, 0x43	; 67
    3b76:	9d e0       	ldi	r25, 0x0D	; 13
    3b78:	90 93 01 0d 	sts	0x0D01, r25
    3b7c:	80 93 00 0d 	sts	0x0D00, r24
	 //
	 memset((char*)modbus_status.buf,STATUS_OFF,sizeof(SYSTEM_STATUS_MODBUS));
    3b80:	80 e3       	ldi	r24, 0x30	; 48
    3b82:	e3 e1       	ldi	r30, 0x13	; 19
    3b84:	fd e0       	ldi	r31, 0x0D	; 13
    3b86:	df 01       	movw	r26, r30
    3b88:	98 2f       	mov	r25, r24
    3b8a:	1d 92       	st	X+, r1
    3b8c:	9a 95       	dec	r25
    3b8e:	e9 f7       	brne	.-6      	; 0x3b8a <modbus_init+0x4e>
	 //
	 modbus_status.status.m_wendu.gun[0] = 21;
    3b90:	95 e1       	ldi	r25, 0x15	; 21
    3b92:	90 93 1b 0d 	sts	0x0D1B, r25
	 modbus_status.status.m_wendu.gun[1] = 25;
    3b96:	99 e1       	ldi	r25, 0x19	; 25
    3b98:	90 93 1c 0d 	sts	0x0D1C, r25
	 modbus_status.status.m_wendu.zhou1[0] = 64; //>55
    3b9c:	90 e4       	ldi	r25, 0x40	; 64
    3b9e:	90 93 1d 0d 	sts	0x0D1D, r25
	 modbus_status.status.m_wendu.zhou1[1] = 33;
    3ba2:	91 e2       	ldi	r25, 0x21	; 33
    3ba4:	90 93 1e 0d 	sts	0x0D1E, r25
	 modbus_status.status.m_wendu.zhou2[0] = 48; //>55
    3ba8:	80 93 1f 0d 	sts	0x0D1F, r24
	 modbus_status.status.m_wendu.zhou2[1] = 70;
    3bac:	86 e4       	ldi	r24, 0x46	; 70
    3bae:	80 93 20 0d 	sts	0x0D20, r24
    3bb2:	08 95       	ret

00003bb4 <modbus_cal_crc16>:
	 */
	 UCHAR2 crc16;
	 unsigned short i;
	 unsigned char j;
	 unsigned char tmp;
	 crc16.ms = 0xffff;
    3bb4:	2f ef       	ldi	r18, 0xFF	; 255
    3bb6:	3f ef       	ldi	r19, 0xFF	; 255
    3bb8:	68 0f       	add	r22, r24
    3bba:	79 1f       	adc	r23, r25
	 for(i=0; i<len; i++)
    3bbc:	86 17       	cp	r24, r22
    3bbe:	97 07       	cpc	r25, r23
    3bc0:	a1 f0       	breq	.+40     	; 0x3bea <modbus_cal_crc16+0x36>
	 {
		 crc16.mc[0] ^= p[i];
    3bc2:	fc 01       	movw	r30, r24
    3bc4:	41 91       	ld	r20, Z+
    3bc6:	cf 01       	movw	r24, r30
    3bc8:	24 27       	eor	r18, r20
    3bca:	e8 e0       	ldi	r30, 0x08	; 8
		 for(j=0; j<8; j++)
		 {
			 tmp = crc16.mc[0] & 0x01;
			 crc16.ms >>= 1;
    3bcc:	a9 01       	movw	r20, r18
    3bce:	56 95       	lsr	r21
    3bd0:	47 95       	ror	r20
			 if(tmp)
    3bd2:	20 fd       	sbrc	r18, 0
    3bd4:	02 c0       	rjmp	.+4      	; 0x3bda <modbus_cal_crc16+0x26>
	 {
		 crc16.mc[0] ^= p[i];
		 for(j=0; j<8; j++)
		 {
			 tmp = crc16.mc[0] & 0x01;
			 crc16.ms >>= 1;
    3bd6:	9a 01       	movw	r18, r20
    3bd8:	05 c0       	rjmp	.+10     	; 0x3be4 <modbus_cal_crc16+0x30>
			 if(tmp)
			 {
				 crc16.ms ^= 0xa001;
    3bda:	9a 01       	movw	r18, r20
    3bdc:	f1 e0       	ldi	r31, 0x01	; 1
    3bde:	2f 27       	eor	r18, r31
    3be0:	f0 ea       	ldi	r31, 0xA0	; 160
    3be2:	3f 27       	eor	r19, r31
    3be4:	e1 50       	subi	r30, 0x01	; 1
	 unsigned char tmp;
	 crc16.ms = 0xffff;
	 for(i=0; i<len; i++)
	 {
		 crc16.mc[0] ^= p[i];
		 for(j=0; j<8; j++)
    3be6:	91 f7       	brne	.-28     	; 0x3bcc <modbus_cal_crc16+0x18>
    3be8:	e9 cf       	rjmp	.-46     	; 0x3bbc <modbus_cal_crc16+0x8>
			 }
		 }
	 }
	 //
	 return crc16.ms;
 }
    3bea:	c9 01       	movw	r24, r18
    3bec:	08 95       	ret

00003bee <modbus_write_multi_reg_frame_response>:
		 }
	 }
 }
 /////////////////////////////////////////////////////////////////
 void modbus_write_multi_reg_frame_response(U8 port_type,WRITE_MULTI_REG_FRAME *p)
 {
    3bee:	df 92       	push	r13
    3bf0:	ef 92       	push	r14
    3bf2:	ff 92       	push	r15
    3bf4:	0f 93       	push	r16
    3bf6:	1f 93       	push	r17
    3bf8:	cf 93       	push	r28
    3bfa:	df 93       	push	r29
    3bfc:	18 2f       	mov	r17, r24
    3bfe:	eb 01       	movw	r28, r22
	 UCHAR2 write_addr_s,write_num,crc16;
	 //
	 write_addr_s.mc[0] = p->frame.addr_sl;
    3c00:	db 80       	ldd	r13, Y+3	; 0x03
	 write_addr_s.mc[1] = p->frame.addr_sh;
    3c02:	ea 80       	ldd	r14, Y+2	; 0x02
	 write_num.mc[0] = p->frame.num_l;
    3c04:	fd 80       	ldd	r15, Y+5	; 0x05
    3c06:	4f 2d       	mov	r20, r15
	 write_num.mc[1] = p->frame.num_h;
    3c08:	0c 81       	ldd	r16, Y+4	; 0x04
    3c0a:	50 2f       	mov	r21, r16
	 //
	 if((ADDR_START_NVM_PARA <= write_addr_s.ms) &&
    3c0c:	2d 2d       	mov	r18, r13
    3c0e:	3e 2d       	mov	r19, r14
    3c10:	21 15       	cp	r18, r1
    3c12:	84 e0       	ldi	r24, 0x04	; 4
    3c14:	38 07       	cpc	r19, r24
    3c16:	08 f4       	brcc	.+2      	; 0x3c1a <modbus_write_multi_reg_frame_response+0x2c>
    3c18:	65 c0       	rjmp	.+202    	; 0x3ce4 <modbus_write_multi_reg_frame_response+0xf6>
	    ((ADDR_START_NVM_PARA+sizeof(WRITE_MULTI_REG_FRAME)) >= (write_addr_s.ms+write_num.ms)))
    3c1a:	24 0f       	add	r18, r20
    3c1c:	35 1f       	adc	r19, r21
	 write_addr_s.mc[0] = p->frame.addr_sl;
	 write_addr_s.mc[1] = p->frame.addr_sh;
	 write_num.mc[0] = p->frame.num_l;
	 write_num.mc[1] = p->frame.num_h;
	 //
	 if((ADDR_START_NVM_PARA <= write_addr_s.ms) &&
    3c1e:	25 36       	cpi	r18, 0x65	; 101
    3c20:	34 40       	sbci	r19, 0x04	; 4
    3c22:	08 f0       	brcs	.+2      	; 0x3c26 <modbus_write_multi_reg_frame_response+0x38>
    3c24:	5f c0       	rjmp	.+190    	; 0x3ce4 <modbus_write_multi_reg_frame_response+0xf6>
		 //NVM_PARA 
		 {			 
			 //运行参数立即适用（注意：数据的有效性由上位机软件来保证，该处不做处理）
			 PARA_COMM_PKT *pPCP = &p->frame.data;
			 NVM_DATA *pND = &pPCP->para;
			 if(FALSE == pPCP->para_advanced_modify_enable)
    3c26:	fb 01       	movw	r30, r22
    3c28:	e8 5a       	subi	r30, 0xA8	; 168
    3c2a:	ff 4f       	sbci	r31, 0xFF	; 255
    3c2c:	80 81       	ld	r24, Z
    3c2e:	81 11       	cpse	r24, r1
    3c30:	21 c0       	rjmp	.+66     	; 0x3c74 <modbus_write_multi_reg_frame_response+0x86>
			 {
				 //高级参数不允许修改	
				 //覆盖高级参数到原来的值。		
				 pND->para.material_start = m_rPara.para.material_start;
    3c32:	80 91 6d 0a 	lds	r24, 0x0A6D
    3c36:	8d 8f       	std	Y+29, r24	; 0x1d
				 pND->para.material_stop = m_rPara.para.material_stop;
    3c38:	80 91 6e 0a 	lds	r24, 0x0A6E
    3c3c:	8e 8f       	std	Y+30, r24	; 0x1e
				 pND->para.current1_modify = m_rPara.para.current1_modify;
    3c3e:	80 91 6f 0a 	lds	r24, 0x0A6F
    3c42:	8f 8f       	std	Y+31, r24	; 0x1f
				 pND->para.current2_modify = m_rPara.para.current2_modify;
    3c44:	80 91 77 0a 	lds	r24, 0x0A77
    3c48:	8f a3       	std	Y+39, r24	; 0x27
				 pND->para.addr_modbus = m_rPara.para.addr_modbus;
    3c4a:	80 91 72 0a 	lds	r24, 0x0A72
    3c4e:	8a a3       	std	Y+34, r24	; 0x22
				 pND->para.baud_modbus = m_rPara.para.baud_modbus;
    3c50:	80 91 73 0a 	lds	r24, 0x0A73
    3c54:	8b a3       	std	Y+35, r24	; 0x23
				 pND->para.dw_level_pulse = m_rPara.para.dw_level_pulse;
    3c56:	80 91 75 0a 	lds	r24, 0x0A75
    3c5a:	8d a3       	std	Y+37, r24	; 0x25
				 pND->para.mb_level_pulse = m_rPara.para.mb_level_pulse;
    3c5c:	80 91 74 0a 	lds	r24, 0x0A74
    3c60:	8c a3       	std	Y+36, r24	; 0x24
				 memcpy(&pND->para.w5500_net_para.ip_para,&m_rPara.para.w5500_net_para.ip_para,sizeof(IP_PARA));
    3c62:	8c e0       	ldi	r24, 0x0C	; 12
    3c64:	e4 e8       	ldi	r30, 0x84	; 132
    3c66:	fa e0       	ldi	r31, 0x0A	; 10
    3c68:	db 01       	movw	r26, r22
    3c6a:	d4 96       	adiw	r26, 0x34	; 52
    3c6c:	01 90       	ld	r0, Z+
    3c6e:	0d 92       	st	X+, r0
    3c70:	8a 95       	dec	r24
    3c72:	e1 f7       	brne	.-8      	; 0x3c6c <modbus_write_multi_reg_frame_response+0x7e>
			 }
			 //
			 memcpy(m_rPara.buf,pND->buf,sizeof(NVM_DATA));
    3c74:	80 e5       	ldi	r24, 0x50	; 80
    3c76:	fe 01       	movw	r30, r28
    3c78:	38 96       	adiw	r30, 0x08	; 8
    3c7a:	a8 e5       	ldi	r26, 0x58	; 88
    3c7c:	ba e0       	ldi	r27, 0x0A	; 10
    3c7e:	01 90       	ld	r0, Z+
    3c80:	0d 92       	st	X+, r0
    3c82:	8a 95       	dec	r24
    3c84:	e1 f7       	brne	.-8      	; 0x3c7e <modbus_write_multi_reg_frame_response+0x90>
		 }
		 //数据写入EEPROM（注意：数据的有效性由上位机软件来保证，该处不做处理）
		 extern void write_para_to_eeprom(NVM_DATA *p,unsigned char rst_used_hours);
		 write_para_to_eeprom(&m_rPara,FALSE); 
    3c86:	60 e0       	ldi	r22, 0x00	; 0
    3c88:	88 e5       	ldi	r24, 0x58	; 88
    3c8a:	9a e0       	ldi	r25, 0x0A	; 10
    3c8c:	0e 94 f7 10 	call	0x21ee	; 0x21ee <write_para_to_eeprom>
		 //
		 #if USED_W5500 == TRUE
		 {
			 //初始化网络芯片，指定延时时间(ms)
			 init_w5500(10);
    3c90:	6a e0       	ldi	r22, 0x0A	; 10
    3c92:	70 e0       	ldi	r23, 0x00	; 0
    3c94:	80 e0       	ldi	r24, 0x00	; 0
    3c96:	90 e0       	ldi	r25, 0x00	; 0
    3c98:	0e 94 fb 31 	call	0x63f6	; 0x63f6 <init_w5500>
		 }
		 #endif
		 //
		 // 应答
		 modbus_tx_buf[0] = m_rPara.para.addr_modbus;
    3c9c:	80 91 72 0a 	lds	r24, 0x0A72
    3ca0:	80 93 02 0c 	sts	0x0C02, r24
		 modbus_tx_buf[1] = CMD_WRITE_MULTI_REG;
    3ca4:	80 e1       	ldi	r24, 0x10	; 16
    3ca6:	80 93 03 0c 	sts	0x0C03, r24
		 modbus_tx_buf[2] = write_addr_s.mc[0];
    3caa:	d0 92 04 0c 	sts	0x0C04, r13
		 modbus_tx_buf[3] = write_addr_s.mc[1];
    3cae:	e0 92 05 0c 	sts	0x0C05, r14
		 modbus_tx_buf[4] = write_num.mc[0];
    3cb2:	f0 92 06 0c 	sts	0x0C06, r15
		 modbus_tx_buf[5] = write_num.mc[1];
    3cb6:	00 93 07 0c 	sts	0x0C07, r16
		 crc16.ms = modbus_cal_crc16(modbus_tx_buf,6);
    3cba:	66 e0       	ldi	r22, 0x06	; 6
    3cbc:	70 e0       	ldi	r23, 0x00	; 0
    3cbe:	82 e0       	ldi	r24, 0x02	; 2
    3cc0:	9c e0       	ldi	r25, 0x0C	; 12
    3cc2:	0e 94 da 1d 	call	0x3bb4	; 0x3bb4 <modbus_cal_crc16>
		 modbus_tx_buf[6] = crc16.mc[0];
    3cc6:	80 93 08 0c 	sts	0x0C08, r24
		 modbus_tx_buf[7] = crc16.mc[1];
    3cca:	90 93 09 0c 	sts	0x0C09, r25
		 modbus_tx_buf[8] = 0xaa;
    3cce:	8a ea       	ldi	r24, 0xAA	; 170
    3cd0:	80 93 0a 0c 	sts	0x0C0A, r24
		 modbus_tx_buf[9] = 0xaa;
    3cd4:	80 93 0b 0c 	sts	0x0C0B, r24
		 if(PORT_USART == port_type)
    3cd8:	15 33       	cpi	r17, 0x35	; 53
    3cda:	11 f4       	brne	.+4      	; 0x3ce0 <modbus_write_multi_reg_frame_response+0xf2>
		 {
			 send_uart1_to_computer(modbus_tx_buf,8+2);
    3cdc:	6a e0       	ldi	r22, 0x0A	; 10
    3cde:	1e c0       	rjmp	.+60     	; 0x3d1c <modbus_write_multi_reg_frame_response+0x12e>
		 }
		 else
		 {
			 #if USED_W5500 == TRUE
			 W5500_socket_send(modbus_tx_buf,8);
    3ce0:	68 e0       	ldi	r22, 0x08	; 8
    3ce2:	2a c0       	rjmp	.+84     	; 0x3d38 <modbus_write_multi_reg_frame_response+0x14a>
		 }		 
	 }
	 else
	 {
		 //数据地址不正常
		 modbus_tx_buf[0] = m_rPara.para.addr_modbus;
    3ce4:	80 91 72 0a 	lds	r24, 0x0A72
    3ce8:	80 93 02 0c 	sts	0x0C02, r24
		 modbus_tx_buf[1] = CMD_WRITE_MULTI_REG+0x80;
    3cec:	80 e9       	ldi	r24, 0x90	; 144
    3cee:	80 93 03 0c 	sts	0x0C03, r24
		 modbus_tx_buf[2] = ERR_DATA_ADDR;
    3cf2:	82 e0       	ldi	r24, 0x02	; 2
    3cf4:	80 93 04 0c 	sts	0x0C04, r24
		 crc16.ms = modbus_cal_crc16(modbus_tx_buf,3);
    3cf8:	63 e0       	ldi	r22, 0x03	; 3
    3cfa:	70 e0       	ldi	r23, 0x00	; 0
    3cfc:	82 e0       	ldi	r24, 0x02	; 2
    3cfe:	9c e0       	ldi	r25, 0x0C	; 12
    3d00:	0e 94 da 1d 	call	0x3bb4	; 0x3bb4 <modbus_cal_crc16>
		 modbus_tx_buf[3] = crc16.mc[0];
    3d04:	80 93 05 0c 	sts	0x0C05, r24
		 modbus_tx_buf[4] = crc16.mc[1];
    3d08:	90 93 06 0c 	sts	0x0C06, r25
		 modbus_tx_buf[5] = 0xaa;
    3d0c:	8a ea       	ldi	r24, 0xAA	; 170
    3d0e:	80 93 07 0c 	sts	0x0C07, r24
		 modbus_tx_buf[6] = 0xaa;
    3d12:	80 93 08 0c 	sts	0x0C08, r24
		 if(PORT_USART == port_type)
    3d16:	15 33       	cpi	r17, 0x35	; 53
    3d18:	61 f4       	brne	.+24     	; 0x3d32 <modbus_write_multi_reg_frame_response+0x144>
		 {
			 send_uart1_to_computer(modbus_tx_buf,5+2);
    3d1a:	67 e0       	ldi	r22, 0x07	; 7
    3d1c:	82 e0       	ldi	r24, 0x02	; 2
    3d1e:	9c e0       	ldi	r25, 0x0C	; 12
			 #if USED_W5500 == TRUE
			 W5500_socket_send(modbus_tx_buf,5);
			 #endif
		 }		 
	 }
 }
    3d20:	df 91       	pop	r29
    3d22:	cf 91       	pop	r28
    3d24:	1f 91       	pop	r17
    3d26:	0f 91       	pop	r16
    3d28:	ff 90       	pop	r15
    3d2a:	ef 90       	pop	r14
    3d2c:	df 90       	pop	r13
		 modbus_tx_buf[4] = crc16.mc[1];
		 modbus_tx_buf[5] = 0xaa;
		 modbus_tx_buf[6] = 0xaa;
		 if(PORT_USART == port_type)
		 {
			 send_uart1_to_computer(modbus_tx_buf,5+2);
    3d2e:	0c 94 20 2b 	jmp	0x5640	; 0x5640 <send_uart1_to_computer>
		 }
		 else if(PORT_ENET == port_type)
    3d32:	19 35       	cpi	r17, 0x59	; 89
    3d34:	61 f4       	brne	.+24     	; 0x3d4e <modbus_write_multi_reg_frame_response+0x160>
		 {
			 #if USED_W5500 == TRUE
			 W5500_socket_send(modbus_tx_buf,5);
    3d36:	65 e0       	ldi	r22, 0x05	; 5
    3d38:	82 e0       	ldi	r24, 0x02	; 2
    3d3a:	9c e0       	ldi	r25, 0x0C	; 12
			 #endif
		 }		 
	 }
 }
    3d3c:	df 91       	pop	r29
    3d3e:	cf 91       	pop	r28
    3d40:	1f 91       	pop	r17
    3d42:	0f 91       	pop	r16
    3d44:	ff 90       	pop	r15
    3d46:	ef 90       	pop	r14
    3d48:	df 90       	pop	r13
			 send_uart1_to_computer(modbus_tx_buf,5+2);
		 }
		 else if(PORT_ENET == port_type)
		 {
			 #if USED_W5500 == TRUE
			 W5500_socket_send(modbus_tx_buf,5);
    3d4a:	0c 94 46 34 	jmp	0x688c	; 0x688c <W5500_socket_send>
			 #endif
		 }		 
	 }
 }
    3d4e:	df 91       	pop	r29
    3d50:	cf 91       	pop	r28
    3d52:	1f 91       	pop	r17
    3d54:	0f 91       	pop	r16
    3d56:	ff 90       	pop	r15
    3d58:	ef 90       	pop	r14
    3d5a:	df 90       	pop	r13
    3d5c:	08 95       	ret

00003d5e <modbus_write_multi_reg_frame_handling>:
	 modbus_status.status.m_wendu.zhou2[0] = 48; //>55
	 modbus_status.status.m_wendu.zhou2[1] = 70;
 }
 /////////////////////////////////////////////////////////////////
 void modbus_write_multi_reg_frame_handling(U8 port_type)
 {
    3d5e:	1f 93       	push	r17
    3d60:	cf 93       	push	r28
    3d62:	df 93       	push	r29
    3d64:	18 2f       	mov	r17, r24
	 UCHAR2 modbus_crc16;
	 modbus_crc16.ms = modbus_cal_crc16(write_multi_reg_frame_ok->buf,SIZE_WRITE_MULTI_REG-2);
    3d66:	c0 91 00 0c 	lds	r28, 0x0C00
    3d6a:	d0 91 01 0c 	lds	r29, 0x0C01
    3d6e:	62 e6       	ldi	r22, 0x62	; 98
    3d70:	70 e0       	ldi	r23, 0x00	; 0
    3d72:	ce 01       	movw	r24, r28
    3d74:	0e 94 da 1d 	call	0x3bb4	; 0x3bb4 <modbus_cal_crc16>
	 if((modbus_crc16.mc[0] == write_multi_reg_frame_ok->frame.crc_l) &&
    3d78:	fe 01       	movw	r30, r28
    3d7a:	ee 59       	subi	r30, 0x9E	; 158
    3d7c:	ff 4f       	sbci	r31, 0xFF	; 255
    3d7e:	20 81       	ld	r18, Z
    3d80:	28 13       	cpse	r18, r24
    3d82:	0b c0       	rjmp	.+22     	; 0x3d9a <modbus_write_multi_reg_frame_handling+0x3c>
	    (modbus_crc16.mc[1] == write_multi_reg_frame_ok->frame.crc_h))
    3d84:	31 96       	adiw	r30, 0x01	; 1
 /////////////////////////////////////////////////////////////////
 void modbus_write_multi_reg_frame_handling(U8 port_type)
 {
	 UCHAR2 modbus_crc16;
	 modbus_crc16.ms = modbus_cal_crc16(write_multi_reg_frame_ok->buf,SIZE_WRITE_MULTI_REG-2);
	 if((modbus_crc16.mc[0] == write_multi_reg_frame_ok->frame.crc_l) &&
    3d86:	80 81       	ld	r24, Z
    3d88:	89 13       	cpse	r24, r25
    3d8a:	07 c0       	rjmp	.+14     	; 0x3d9a <modbus_write_multi_reg_frame_handling+0x3c>
	    (modbus_crc16.mc[1] == write_multi_reg_frame_ok->frame.crc_h))
	 {
		 //crc校验正确
		 modbus_write_multi_reg_frame_response(port_type,write_multi_reg_frame_ok);
    3d8c:	be 01       	movw	r22, r28
    3d8e:	81 2f       	mov	r24, r17
			 #if USED_W5500 == TRUE
			 W5500_socket_send(modbus_tx_buf,5/*5+2*/);
			 #endif
		 }
	 }
 }
    3d90:	df 91       	pop	r29
    3d92:	cf 91       	pop	r28
    3d94:	1f 91       	pop	r17
	 modbus_crc16.ms = modbus_cal_crc16(write_multi_reg_frame_ok->buf,SIZE_WRITE_MULTI_REG-2);
	 if((modbus_crc16.mc[0] == write_multi_reg_frame_ok->frame.crc_l) &&
	    (modbus_crc16.mc[1] == write_multi_reg_frame_ok->frame.crc_h))
	 {
		 //crc校验正确
		 modbus_write_multi_reg_frame_response(port_type,write_multi_reg_frame_ok);
    3d96:	0c 94 f7 1d 	jmp	0x3bee	; 0x3bee <modbus_write_multi_reg_frame_response>
	 }
	 else
	 {
		 //crc校验错误
		 write_multi_reg_frame_id = 0;
    3d9a:	10 92 0b 0e 	sts	0x0E0B, r1
		 is_write_multi_reg_frame = FALSE;
    3d9e:	10 92 65 08 	sts	0x0865, r1
		 //
		 modbus_tx_buf[0] = m_rPara.para.addr_modbus;
    3da2:	80 91 72 0a 	lds	r24, 0x0A72
    3da6:	80 93 02 0c 	sts	0x0C02, r24
		 modbus_tx_buf[1] = CMD_WRITE_MULTI_REG+0x80;
    3daa:	80 e9       	ldi	r24, 0x90	; 144
    3dac:	80 93 03 0c 	sts	0x0C03, r24
		 modbus_tx_buf[2] = ERR_DATA_VALUE;//数据内容错误
    3db0:	83 e0       	ldi	r24, 0x03	; 3
    3db2:	80 93 04 0c 	sts	0x0C04, r24
		 modbus_crc16.ms = modbus_cal_crc16(modbus_tx_buf,3);
    3db6:	63 e0       	ldi	r22, 0x03	; 3
    3db8:	70 e0       	ldi	r23, 0x00	; 0
    3dba:	82 e0       	ldi	r24, 0x02	; 2
    3dbc:	9c e0       	ldi	r25, 0x0C	; 12
    3dbe:	0e 94 da 1d 	call	0x3bb4	; 0x3bb4 <modbus_cal_crc16>
		 modbus_tx_buf[3] = modbus_crc16.mc[0];
    3dc2:	80 93 05 0c 	sts	0x0C05, r24
		 modbus_tx_buf[4] = modbus_crc16.mc[1];
    3dc6:	90 93 06 0c 	sts	0x0C06, r25
		 modbus_tx_buf[5] = 0xaa;
    3dca:	8a ea       	ldi	r24, 0xAA	; 170
    3dcc:	80 93 07 0c 	sts	0x0C07, r24
		 modbus_tx_buf[6] = 0xaa;
    3dd0:	80 93 08 0c 	sts	0x0C08, r24
		 if(PORT_USART == port_type)
		 {
			send_uart1_to_computer(modbus_tx_buf,5/*5+2*/);
    3dd4:	65 e0       	ldi	r22, 0x05	; 5
    3dd6:	82 e0       	ldi	r24, 0x02	; 2
    3dd8:	9c e0       	ldi	r25, 0x0C	; 12
		 modbus_crc16.ms = modbus_cal_crc16(modbus_tx_buf,3);
		 modbus_tx_buf[3] = modbus_crc16.mc[0];
		 modbus_tx_buf[4] = modbus_crc16.mc[1];
		 modbus_tx_buf[5] = 0xaa;
		 modbus_tx_buf[6] = 0xaa;
		 if(PORT_USART == port_type)
    3dda:	15 33       	cpi	r17, 0x35	; 53
    3ddc:	29 f4       	brne	.+10     	; 0x3de8 <modbus_write_multi_reg_frame_handling+0x8a>
			 #if USED_W5500 == TRUE
			 W5500_socket_send(modbus_tx_buf,5/*5+2*/);
			 #endif
		 }
	 }
 }
    3dde:	df 91       	pop	r29
    3de0:	cf 91       	pop	r28
    3de2:	1f 91       	pop	r17
		 modbus_tx_buf[4] = modbus_crc16.mc[1];
		 modbus_tx_buf[5] = 0xaa;
		 modbus_tx_buf[6] = 0xaa;
		 if(PORT_USART == port_type)
		 {
			send_uart1_to_computer(modbus_tx_buf,5/*5+2*/);
    3de4:	0c 94 20 2b 	jmp	0x5640	; 0x5640 <send_uart1_to_computer>
			 #if USED_W5500 == TRUE
			 W5500_socket_send(modbus_tx_buf,5/*5+2*/);
			 #endif
		 }
	 }
 }
    3de8:	df 91       	pop	r29
    3dea:	cf 91       	pop	r28
    3dec:	1f 91       	pop	r17
			send_uart1_to_computer(modbus_tx_buf,5/*5+2*/);
		 }
		 else
		 {
			 #if USED_W5500 == TRUE
			 W5500_socket_send(modbus_tx_buf,5/*5+2*/);
    3dee:	0c 94 46 34 	jmp	0x688c	; 0x688c <W5500_socket_send>

00003df2 <modbus_read_maintain_reg_frame_response>:
	 }
 }
 extern unsigned char temp_data[80];
 /////////////////////////////////////////////////////////////////
 void modbus_read_maintain_reg_frame_response(U8 port_type,READ_MAINTAIN_REG_FRAME *p)
 {
    3df2:	ff 92       	push	r15
    3df4:	0f 93       	push	r16
    3df6:	1f 93       	push	r17
    3df8:	cf 93       	push	r28
    3dfa:	df 93       	push	r29
    3dfc:	f8 2e       	mov	r15, r24
    3dfe:	fb 01       	movw	r30, r22
	 UCHAR2 read_addr_s,read_num,crc16;
	 //
	 read_addr_s.mc[0] = p->frame.addr_sl;
	 read_addr_s.mc[1] = p->frame.addr_sh;
	 read_num.mc[0] = p->frame.num_l;
    3e00:	25 81       	ldd	r18, Z+5	; 0x05
	 read_num.mc[1] = p->frame.num_h;
    3e02:	84 81       	ldd	r24, Z+4	; 0x04
	 //
	 if((ADDR_START_INPUT_STATUS <= read_addr_s.ms) && 
    3e04:	43 81       	ldd	r20, Z+3	; 0x03
    3e06:	52 81       	ldd	r21, Z+2	; 0x02
    3e08:	4f 3f       	cpi	r20, 0xFF	; 255
    3e0a:	51 05       	cpc	r21, r1
    3e0c:	09 f0       	breq	.+2      	; 0x3e10 <modbus_read_maintain_reg_frame_response+0x1e>
    3e0e:	08 f4       	brcc	.+2      	; 0x3e12 <modbus_read_maintain_reg_frame_response+0x20>
    3e10:	df c0       	rjmp	.+446    	; 0x3fd0 <modbus_read_maintain_reg_frame_response+0x1de>
	    ((ADDR_START_INPUT_STATUS+20) >= (read_addr_s.ms+read_num.ms)))//20个输入端
    3e12:	c2 2f       	mov	r28, r18
    3e14:	d8 2f       	mov	r29, r24
    3e16:	ce 01       	movw	r24, r28
    3e18:	84 0f       	add	r24, r20
    3e1a:	95 1f       	adc	r25, r21
	 read_addr_s.mc[0] = p->frame.addr_sl;
	 read_addr_s.mc[1] = p->frame.addr_sh;
	 read_num.mc[0] = p->frame.num_l;
	 read_num.mc[1] = p->frame.num_h;
	 //
	 if((ADDR_START_INPUT_STATUS <= read_addr_s.ms) && 
    3e1c:	85 31       	cpi	r24, 0x15	; 21
    3e1e:	31 e0       	ldi	r19, 0x01	; 1
    3e20:	93 07       	cpc	r25, r19
    3e22:	68 f4       	brcc	.+26     	; 0x3e3e <modbus_read_maintain_reg_frame_response+0x4c>
	    ((ADDR_START_INPUT_STATUS+20) >= (read_addr_s.ms+read_num.ms)))//20个输入端
	 {
		 //根据具体硬件环境实现（注意具体的输入端口数量）
		 modbus_tx_buf[0] = m_rPara.para.addr_modbus;
    3e24:	80 91 72 0a 	lds	r24, 0x0A72
    3e28:	80 93 02 0c 	sts	0x0C02, r24
		 modbus_tx_buf[1] = CMD_READ_MAINTAIN_REG;
    3e2c:	83 e0       	ldi	r24, 0x03	; 3
    3e2e:	80 93 03 0c 	sts	0x0C03, r24
		 modbus_tx_buf[2] = read_num.mc[0];
    3e32:	20 93 04 0c 	sts	0x0C04, r18
		 memcpy(&modbus_tx_buf[3],&key_status[read_addr_s.ms-ADDR_START_INPUT_STATUS],read_num.ms);
    3e36:	ba 01       	movw	r22, r20
    3e38:	66 5e       	subi	r22, 0xE6	; 230
    3e3a:	72 4f       	sbci	r23, 0xF2	; 242
    3e3c:	9f c0       	rjmp	.+318    	; 0x3f7c <modbus_read_maintain_reg_frame_response+0x18a>
			 #if USED_W5500 == TRUE
			 W5500_socket_send(modbus_tx_buf,read_num.ms+5);
			 #endif
		 }
	 }
	 else if((ADDR_START_RUNNING_STATUS <= read_addr_s.ms) && 
    3e3e:	41 15       	cp	r20, r1
    3e40:	33 e0       	ldi	r19, 0x03	; 3
    3e42:	53 07       	cpc	r21, r19
    3e44:	08 f4       	brcc	.+2      	; 0x3e48 <modbus_read_maintain_reg_frame_response+0x56>
    3e46:	be c0       	rjmp	.+380    	; 0x3fc4 <modbus_read_maintain_reg_frame_response+0x1d2>
    3e48:	85 33       	cpi	r24, 0x35	; 53
    3e4a:	33 e0       	ldi	r19, 0x03	; 3
    3e4c:	93 07       	cpc	r25, r19
    3e4e:	08 f0       	brcs	.+2      	; 0x3e52 <modbus_read_maintain_reg_frame_response+0x60>
    3e50:	81 c0       	rjmp	.+258    	; 0x3f54 <modbus_read_maintain_reg_frame_response+0x162>
	         ((ADDR_START_RUNNING_STATUS+sizeof(SYSTEM_STATUS_MODBUS)+4) >= (read_addr_s.ms+read_num.ms)))//运行参数
	 {
		 //根据具体的软件检测要求实现（注意具体的运行参数数量，根据需要可以细化）
		 //
		 modbus_tx_buf[0] = m_rPara.para.addr_modbus;
    3e52:	80 91 72 0a 	lds	r24, 0x0A72
    3e56:	80 93 02 0c 	sts	0x0C02, r24
		 modbus_tx_buf[1] = CMD_READ_MAINTAIN_REG;
    3e5a:	83 e0       	ldi	r24, 0x03	; 3
    3e5c:	80 93 03 0c 	sts	0x0C03, r24
		 modbus_tx_buf[2] = read_num.mc[0];
    3e60:	20 93 04 0c 	sts	0x0C04, r18

			 unsigned short temp2;
			 
			 unsigned char temp;

			 temp2 = temp_data[2] *256 + temp_data[3];
    3e64:	80 91 10 08 	lds	r24, 0x0810
    3e68:	90 e0       	ldi	r25, 0x00	; 0
    3e6a:	98 2f       	mov	r25, r24
    3e6c:	88 27       	eor	r24, r24
    3e6e:	20 91 11 08 	lds	r18, 0x0811
    3e72:	82 0f       	add	r24, r18
    3e74:	91 1d       	adc	r25, r1
			 temp = temp2/16;
    3e76:	74 e0       	ldi	r23, 0x04	; 4
    3e78:	96 95       	lsr	r25
    3e7a:	87 95       	ror	r24
    3e7c:	7a 95       	dec	r23
    3e7e:	e1 f7       	brne	.-8      	; 0x3e78 <modbus_read_maintain_reg_frame_response+0x86>
			 			 
			 modbus_status.status.m_wendu.zhou1[0] =temp;
    3e80:	80 93 1d 0d 	sts	0x0D1D, r24

			  
			 temp2 = temp_data[4] *256 + temp_data[5];
    3e84:	20 91 12 08 	lds	r18, 0x0812
    3e88:	30 e0       	ldi	r19, 0x00	; 0
    3e8a:	32 2f       	mov	r19, r18
    3e8c:	22 27       	eor	r18, r18
    3e8e:	80 91 13 08 	lds	r24, 0x0813
    3e92:	28 0f       	add	r18, r24
    3e94:	31 1d       	adc	r19, r1
			 temp = temp2/16;
    3e96:	f4 e0       	ldi	r31, 0x04	; 4
    3e98:	36 95       	lsr	r19
    3e9a:	27 95       	ror	r18
    3e9c:	fa 95       	dec	r31
    3e9e:	e1 f7       	brne	.-8      	; 0x3e98 <modbus_read_maintain_reg_frame_response+0xa6>
			 modbus_status.status.m_wendu.zhou1[1] =temp;
    3ea0:	20 93 1e 0d 	sts	0x0D1E, r18

			
			 temp2 = temp_data[6] *256 + temp_data[7];
    3ea4:	20 91 14 08 	lds	r18, 0x0814
    3ea8:	30 e0       	ldi	r19, 0x00	; 0
    3eaa:	32 2f       	mov	r19, r18
    3eac:	22 27       	eor	r18, r18
    3eae:	80 91 15 08 	lds	r24, 0x0815
    3eb2:	28 0f       	add	r18, r24
    3eb4:	31 1d       	adc	r19, r1
			 temp = temp2/16;
    3eb6:	b4 e0       	ldi	r27, 0x04	; 4
    3eb8:	36 95       	lsr	r19
    3eba:	27 95       	ror	r18
    3ebc:	ba 95       	dec	r27
    3ebe:	e1 f7       	brne	.-8      	; 0x3eb8 <modbus_read_maintain_reg_frame_response+0xc6>
			 modbus_status.status.m_wendu.gun[0] = temp;
    3ec0:	20 93 1b 0d 	sts	0x0D1B, r18

			  
			 temp2 = temp_data[8] *256 + temp_data[9];
    3ec4:	20 91 16 08 	lds	r18, 0x0816
    3ec8:	30 e0       	ldi	r19, 0x00	; 0
    3eca:	32 2f       	mov	r19, r18
    3ecc:	22 27       	eor	r18, r18
    3ece:	80 91 17 08 	lds	r24, 0x0817
    3ed2:	28 0f       	add	r18, r24
    3ed4:	31 1d       	adc	r19, r1
			 temp = temp2/16;
    3ed6:	04 e0       	ldi	r16, 0x04	; 4
    3ed8:	36 95       	lsr	r19
    3eda:	27 95       	ror	r18
    3edc:	0a 95       	dec	r16
    3ede:	e1 f7       	brne	.-8      	; 0x3ed8 <modbus_read_maintain_reg_frame_response+0xe6>
			 modbus_status.status.m_wendu.zhou2[0] = temp;
    3ee0:	20 93 1f 0d 	sts	0x0D1F, r18

			 
			 temp2 = temp_data[14] *256 + temp_data[15];
    3ee4:	20 91 1c 08 	lds	r18, 0x081C
    3ee8:	30 e0       	ldi	r19, 0x00	; 0
    3eea:	32 2f       	mov	r19, r18
    3eec:	22 27       	eor	r18, r18
    3eee:	80 91 1d 08 	lds	r24, 0x081D
    3ef2:	28 0f       	add	r18, r24
    3ef4:	31 1d       	adc	r19, r1
			 temp = temp2/16;
    3ef6:	94 e0       	ldi	r25, 0x04	; 4
    3ef8:	36 95       	lsr	r19
    3efa:	27 95       	ror	r18
    3efc:	9a 95       	dec	r25
    3efe:	e1 f7       	brne	.-8      	; 0x3ef8 <modbus_read_maintain_reg_frame_response+0x106>
			 modbus_status.status.m_wendu.gun[1] =temp;
    3f00:	20 93 1c 0d 	sts	0x0D1C, r18


			 
			 temp2 = temp_data[16] *256 + temp_data[17];
    3f04:	20 91 1e 08 	lds	r18, 0x081E
    3f08:	30 e0       	ldi	r19, 0x00	; 0
    3f0a:	32 2f       	mov	r19, r18
    3f0c:	22 27       	eor	r18, r18
    3f0e:	80 91 1f 08 	lds	r24, 0x081F
    3f12:	28 0f       	add	r18, r24
    3f14:	31 1d       	adc	r19, r1
			 temp = temp2/16;
    3f16:	74 e0       	ldi	r23, 0x04	; 4
    3f18:	36 95       	lsr	r19
    3f1a:	27 95       	ror	r18
    3f1c:	7a 95       	dec	r23
    3f1e:	e1 f7       	brne	.-8      	; 0x3f18 <modbus_read_maintain_reg_frame_response+0x126>
			 modbus_status.status.m_wendu.zhou2[1] = temp;
    3f20:	20 93 20 0d 	sts	0x0D20, r18
		

		 }
		 #endif
		 //
		 modbus_status.status.m_BootTime = boot_time; //系统引导时间
    3f24:	00 91 58 0b 	lds	r16, 0x0B58
    3f28:	10 91 59 0b 	lds	r17, 0x0B59
    3f2c:	20 91 5a 0b 	lds	r18, 0x0B5A
    3f30:	30 91 5b 0b 	lds	r19, 0x0B5B
    3f34:	00 93 23 0d 	sts	0x0D23, r16
    3f38:	10 93 24 0d 	sts	0x0D24, r17
    3f3c:	20 93 25 0d 	sts	0x0D25, r18
    3f40:	30 93 26 0d 	sts	0x0D26, r19
		 modbus_status.status.m_ResetCause = reset_cause; //复位原因
    3f44:	80 91 c3 09 	lds	r24, 0x09C3
    3f48:	80 93 27 0d 	sts	0x0D27, r24
		 //
		 memcpy(&modbus_tx_buf[3],(char*)&modbus_status.buf[read_addr_s.ms-ADDR_START_RUNNING_STATUS],read_num.ms);
    3f4c:	ba 01       	movw	r22, r20
    3f4e:	6d 5e       	subi	r22, 0xED	; 237
    3f50:	75 4f       	sbci	r23, 0xF5	; 245
    3f52:	14 c0       	rjmp	.+40     	; 0x3f7c <modbus_read_maintain_reg_frame_response+0x18a>
			 #if USED_W5500 == TRUE
			 W5500_socket_send(modbus_tx_buf,read_num.ms+5);
			 #endif
		 }		 		 
	 }
	 else if((ADDR_START_NVM_PARA <= read_addr_s.ms) && 
    3f54:	41 15       	cp	r20, r1
    3f56:	34 e0       	ldi	r19, 0x04	; 4
    3f58:	53 07       	cpc	r21, r19
    3f5a:	a0 f1       	brcs	.+104    	; 0x3fc4 <modbus_read_maintain_reg_frame_response+0x1d2>
    3f5c:	81 35       	cpi	r24, 0x51	; 81
    3f5e:	34 e0       	ldi	r19, 0x04	; 4
    3f60:	93 07       	cpc	r25, r19
    3f62:	98 f5       	brcc	.+102    	; 0x3fca <modbus_read_maintain_reg_frame_response+0x1d8>
	         ((ADDR_START_NVM_PARA+sizeof(NVM_DATA)) >= (read_addr_s.ms+read_num.ms)))//nvm_para
	 {
		 //配合上位机读系统参数
		 //
		 modbus_tx_buf[0] = m_rPara.para.addr_modbus;
    3f64:	80 91 72 0a 	lds	r24, 0x0A72
    3f68:	80 93 02 0c 	sts	0x0C02, r24
		 modbus_tx_buf[1] = CMD_READ_MAINTAIN_REG;
    3f6c:	83 e0       	ldi	r24, 0x03	; 3
    3f6e:	80 93 03 0c 	sts	0x0C03, r24
		 modbus_tx_buf[2] = read_num.mc[0];
    3f72:	20 93 04 0c 	sts	0x0C04, r18
		 memcpy(&modbus_tx_buf[3],(char*)&m_rPara.buf[read_addr_s.ms-ADDR_START_NVM_PARA],read_num.ms);
    3f76:	ba 01       	movw	r22, r20
    3f78:	68 5a       	subi	r22, 0xA8	; 168
    3f7a:	79 4f       	sbci	r23, 0xF9	; 249
    3f7c:	ae 01       	movw	r20, r28
    3f7e:	85 e0       	ldi	r24, 0x05	; 5
    3f80:	9c e0       	ldi	r25, 0x0C	; 12
    3f82:	0e 94 8c 37 	call	0x6f18	; 0x6f18 <memcpy>
		 crc16.ms = modbus_cal_crc16(modbus_tx_buf,read_num.ms+3);
    3f86:	8e 01       	movw	r16, r28
    3f88:	0d 5f       	subi	r16, 0xFD	; 253
    3f8a:	1f 4f       	sbci	r17, 0xFF	; 255
    3f8c:	b8 01       	movw	r22, r16
    3f8e:	82 e0       	ldi	r24, 0x02	; 2
    3f90:	9c e0       	ldi	r25, 0x0C	; 12
    3f92:	0e 94 da 1d 	call	0x3bb4	; 0x3bb4 <modbus_cal_crc16>
		 modbus_tx_buf[read_num.ms+3] = crc16.mc[0];
    3f96:	f8 01       	movw	r30, r16
    3f98:	ee 5f       	subi	r30, 0xFE	; 254
    3f9a:	f3 4f       	sbci	r31, 0xF3	; 243
    3f9c:	80 83       	st	Z, r24
		 modbus_tx_buf[read_num.ms+4] = crc16.mc[1];
    3f9e:	fe 01       	movw	r30, r28
    3fa0:	ee 5f       	subi	r30, 0xFE	; 254
    3fa2:	f3 4f       	sbci	r31, 0xF3	; 243
    3fa4:	94 83       	std	Z+4, r25	; 0x04
		 modbus_tx_buf[read_num.ms+5] = 0xaa;
    3fa6:	8a ea       	ldi	r24, 0xAA	; 170
    3fa8:	85 83       	std	Z+5, r24	; 0x05
		 modbus_tx_buf[read_num.ms+6] = 0xaa;
    3faa:	86 83       	std	Z+6, r24	; 0x06
		 if(PORT_USART == port_type)
    3fac:	85 e3       	ldi	r24, 0x35	; 53
    3fae:	f8 12       	cpse	r15, r24
    3fb0:	03 c0       	rjmp	.+6      	; 0x3fb8 <modbus_read_maintain_reg_frame_response+0x1c6>
		 {
			 send_uart1_to_computer(modbus_tx_buf,read_num.ms+5+2);
    3fb2:	6c 2f       	mov	r22, r28
    3fb4:	69 5f       	subi	r22, 0xF9	; 249
    3fb6:	29 c0       	rjmp	.+82     	; 0x400a <modbus_read_maintain_reg_frame_response+0x218>
		 }
		 else if(PORT_ENET == port_type)
    3fb8:	99 e5       	ldi	r25, 0x59	; 89
    3fba:	f9 12       	cpse	r15, r25
    3fbc:	3c c0       	rjmp	.+120    	; 0x4036 <modbus_read_maintain_reg_frame_response+0x244>
		 {
			 #if USED_W5500 == TRUE
			 W5500_socket_send(modbus_tx_buf,read_num.ms+5);
    3fbe:	6c 2f       	mov	r22, r28
    3fc0:	6b 5f       	subi	r22, 0xFB	; 251
    3fc2:	30 c0       	rjmp	.+96     	; 0x4024 <modbus_read_maintain_reg_frame_response+0x232>
			 #endif
		 }		 		 
	 }
	 else if((ADDR_START_OUTPUT_STATUS <= read_addr_s.ms) && 
    3fc4:	41 15       	cp	r20, r1
    3fc6:	52 40       	sbci	r21, 0x02	; 2
    3fc8:	18 f0       	brcs	.+6      	; 0x3fd0 <modbus_read_maintain_reg_frame_response+0x1de>
    3fca:	87 30       	cpi	r24, 0x07	; 7
    3fcc:	92 40       	sbci	r25, 0x02	; 2
    3fce:	98 f1       	brcs	.+102    	; 0x4036 <modbus_read_maintain_reg_frame_response+0x244>
		 
	 }
	 else
	 {
		 //数据地址不正常
		 modbus_tx_buf[0] = m_rPara.para.addr_modbus;
    3fd0:	80 91 72 0a 	lds	r24, 0x0A72
    3fd4:	80 93 02 0c 	sts	0x0C02, r24
		 modbus_tx_buf[1] = CMD_READ_MAINTAIN_REG+0x80;
    3fd8:	83 e8       	ldi	r24, 0x83	; 131
    3fda:	80 93 03 0c 	sts	0x0C03, r24
		 modbus_tx_buf[2] = ERR_DATA_ADDR;
    3fde:	82 e0       	ldi	r24, 0x02	; 2
    3fe0:	80 93 04 0c 	sts	0x0C04, r24
		 crc16.ms = modbus_cal_crc16(modbus_tx_buf,3);
    3fe4:	63 e0       	ldi	r22, 0x03	; 3
    3fe6:	70 e0       	ldi	r23, 0x00	; 0
    3fe8:	82 e0       	ldi	r24, 0x02	; 2
    3fea:	9c e0       	ldi	r25, 0x0C	; 12
    3fec:	0e 94 da 1d 	call	0x3bb4	; 0x3bb4 <modbus_cal_crc16>
		 modbus_tx_buf[3] = crc16.mc[0];
    3ff0:	80 93 05 0c 	sts	0x0C05, r24
		 modbus_tx_buf[4] = crc16.mc[1];
    3ff4:	90 93 06 0c 	sts	0x0C06, r25
		 modbus_tx_buf[5] = 0xaa;
    3ff8:	8a ea       	ldi	r24, 0xAA	; 170
    3ffa:	80 93 07 0c 	sts	0x0C07, r24
		 modbus_tx_buf[6] = 0xaa;
    3ffe:	80 93 08 0c 	sts	0x0C08, r24
		 if(PORT_USART == port_type)
    4002:	85 e3       	ldi	r24, 0x35	; 53
    4004:	f8 12       	cpse	r15, r24
    4006:	0a c0       	rjmp	.+20     	; 0x401c <modbus_read_maintain_reg_frame_response+0x22a>
		 {
			 send_uart1_to_computer(modbus_tx_buf,5+2);
    4008:	67 e0       	ldi	r22, 0x07	; 7
    400a:	82 e0       	ldi	r24, 0x02	; 2
    400c:	9c e0       	ldi	r25, 0x0C	; 12
			 #if USED_W5500 == TRUE
			 W5500_socket_send(modbus_tx_buf,5);
			 #endif
		 }
	 }
 }
    400e:	df 91       	pop	r29
    4010:	cf 91       	pop	r28
    4012:	1f 91       	pop	r17
    4014:	0f 91       	pop	r16
    4016:	ff 90       	pop	r15
		 modbus_tx_buf[4] = crc16.mc[1];
		 modbus_tx_buf[5] = 0xaa;
		 modbus_tx_buf[6] = 0xaa;
		 if(PORT_USART == port_type)
		 {
			 send_uart1_to_computer(modbus_tx_buf,5+2);
    4018:	0c 94 20 2b 	jmp	0x5640	; 0x5640 <send_uart1_to_computer>
		 }
		 else if(PORT_ENET == port_type)
    401c:	99 e5       	ldi	r25, 0x59	; 89
    401e:	f9 12       	cpse	r15, r25
    4020:	0a c0       	rjmp	.+20     	; 0x4036 <modbus_read_maintain_reg_frame_response+0x244>
		 {
			 #if USED_W5500 == TRUE
			 W5500_socket_send(modbus_tx_buf,5);
    4022:	65 e0       	ldi	r22, 0x05	; 5
    4024:	82 e0       	ldi	r24, 0x02	; 2
    4026:	9c e0       	ldi	r25, 0x0C	; 12
			 #endif
		 }
	 }
 }
    4028:	df 91       	pop	r29
    402a:	cf 91       	pop	r28
    402c:	1f 91       	pop	r17
    402e:	0f 91       	pop	r16
    4030:	ff 90       	pop	r15
			 send_uart1_to_computer(modbus_tx_buf,5+2);
		 }
		 else if(PORT_ENET == port_type)
		 {
			 #if USED_W5500 == TRUE
			 W5500_socket_send(modbus_tx_buf,5);
    4032:	0c 94 46 34 	jmp	0x688c	; 0x688c <W5500_socket_send>
			 #endif
		 }
	 }
 }
    4036:	df 91       	pop	r29
    4038:	cf 91       	pop	r28
    403a:	1f 91       	pop	r17
    403c:	0f 91       	pop	r16
    403e:	ff 90       	pop	r15
    4040:	08 95       	ret

00004042 <modbus_read_maintain_reg_frame_handling>:
		 }		 
	 }
 }
 /////////////////////////////////////////////////////////////////
 void modbus_read_maintain_reg_frame_handling(U8 port_type)
 {
    4042:	ff 92       	push	r15
    4044:	0f 93       	push	r16
    4046:	1f 93       	push	r17
    4048:	cf 93       	push	r28
    404a:	df 93       	push	r29
    404c:	f8 2e       	mov	r15, r24
	 UCHAR2 modbus_crc16;
	 modbus_crc16.ms = modbus_cal_crc16(read_maintain_reg_frame_ok->buf,SIZE_READ_MAINTAIN_REG-2);
    404e:	c0 91 0c 0e 	lds	r28, 0x0E0C
    4052:	d0 91 0d 0e 	lds	r29, 0x0E0D
    4056:	66 e0       	ldi	r22, 0x06	; 6
    4058:	70 e0       	ldi	r23, 0x00	; 0
    405a:	ce 01       	movw	r24, r28
    405c:	0e 94 da 1d 	call	0x3bb4	; 0x3bb4 <modbus_cal_crc16>
    4060:	8c 01       	movw	r16, r24
	 if((modbus_crc16.mc[0] == read_maintain_reg_frame_ok->frame.crc_l) &&
    4062:	9e 81       	ldd	r25, Y+6	; 0x06
    4064:	90 13       	cpse	r25, r16
    4066:	0c c0       	rjmp	.+24     	; 0x4080 <modbus_read_maintain_reg_frame_handling+0x3e>
    4068:	9f 81       	ldd	r25, Y+7	; 0x07
    406a:	91 13       	cpse	r25, r17
    406c:	09 c0       	rjmp	.+18     	; 0x4080 <modbus_read_maintain_reg_frame_handling+0x3e>
		(modbus_crc16.mc[1] == read_maintain_reg_frame_ok->frame.crc_h))
	 {
		 //crc校验正确
		 modbus_read_maintain_reg_frame_response(port_type,read_maintain_reg_frame_ok);
    406e:	be 01       	movw	r22, r28
    4070:	8f 2d       	mov	r24, r15
			 #if USED_W5500 == TRUE
			 W5500_socket_send(modbus_tx_buf,5);
			 #endif
		 }
	 }
 }
    4072:	df 91       	pop	r29
    4074:	cf 91       	pop	r28
    4076:	1f 91       	pop	r17
    4078:	0f 91       	pop	r16
    407a:	ff 90       	pop	r15
	 modbus_crc16.ms = modbus_cal_crc16(read_maintain_reg_frame_ok->buf,SIZE_READ_MAINTAIN_REG-2);
	 if((modbus_crc16.mc[0] == read_maintain_reg_frame_ok->frame.crc_l) &&
		(modbus_crc16.mc[1] == read_maintain_reg_frame_ok->frame.crc_h))
	 {
		 //crc校验正确
		 modbus_read_maintain_reg_frame_response(port_type,read_maintain_reg_frame_ok);
    407c:	0c 94 f9 1e 	jmp	0x3df2	; 0x3df2 <modbus_read_maintain_reg_frame_response>
	 }
	 else
	 {
		 //crc校验错误
		 //
		 DEBUG_STRING("crc16 error, modbus_crc16.ms=\0");
    4080:	6d e1       	ldi	r22, 0x1D	; 29
    4082:	84 e3       	ldi	r24, 0x34	; 52
    4084:	92 e0       	ldi	r25, 0x02	; 2
    4086:	0e 94 20 2b 	call	0x5640	; 0x5640 <send_uart1_to_computer>
		 DEBUG_VALUE_TEXT(modbus_crc16.ms);
    408a:	b8 01       	movw	r22, r16
    408c:	80 e0       	ldi	r24, 0x00	; 0
    408e:	90 e0       	ldi	r25, 0x00	; 0
    4090:	41 e0       	ldi	r20, 0x01	; 1
    4092:	0e 94 21 2b 	call	0x5642	; 0x5642 <send_ulong_ascii>
		 //
		 read_maintain_reg_frame_id = 0;
    4096:	10 92 12 0d 	sts	0x0D12, r1
		 is_read_maintain_reg_frame = FALSE;
    409a:	10 92 66 08 	sts	0x0866, r1
		 //
		 modbus_tx_buf[0] = m_rPara.para.addr_modbus;
    409e:	80 91 72 0a 	lds	r24, 0x0A72
    40a2:	80 93 02 0c 	sts	0x0C02, r24
		 modbus_tx_buf[1] = CMD_READ_MAINTAIN_REG+0x80;
    40a6:	83 e8       	ldi	r24, 0x83	; 131
    40a8:	80 93 03 0c 	sts	0x0C03, r24
		 modbus_tx_buf[2] = ERR_DATA_VALUE;//数据内容错误
    40ac:	83 e0       	ldi	r24, 0x03	; 3
    40ae:	80 93 04 0c 	sts	0x0C04, r24
		 modbus_crc16.ms = modbus_cal_crc16(modbus_tx_buf,3);
    40b2:	63 e0       	ldi	r22, 0x03	; 3
    40b4:	70 e0       	ldi	r23, 0x00	; 0
    40b6:	82 e0       	ldi	r24, 0x02	; 2
    40b8:	9c e0       	ldi	r25, 0x0C	; 12
    40ba:	0e 94 da 1d 	call	0x3bb4	; 0x3bb4 <modbus_cal_crc16>
		 modbus_tx_buf[3] = modbus_crc16.mc[0];
    40be:	80 93 05 0c 	sts	0x0C05, r24
		 modbus_tx_buf[4] = modbus_crc16.mc[1];
    40c2:	90 93 06 0c 	sts	0x0C06, r25
		 modbus_tx_buf[5] = 0xaa;
    40c6:	8a ea       	ldi	r24, 0xAA	; 170
    40c8:	80 93 07 0c 	sts	0x0C07, r24
		 modbus_tx_buf[6] = 0xaa;
    40cc:	80 93 08 0c 	sts	0x0C08, r24
		 if(PORT_USART == port_type)
    40d0:	85 e3       	ldi	r24, 0x35	; 53
    40d2:	f8 12       	cpse	r15, r24
    40d4:	0a c0       	rjmp	.+20     	; 0x40ea <modbus_read_maintain_reg_frame_handling+0xa8>
		 {
			 send_uart1_to_computer(modbus_tx_buf,5+2);
    40d6:	67 e0       	ldi	r22, 0x07	; 7
    40d8:	82 e0       	ldi	r24, 0x02	; 2
    40da:	9c e0       	ldi	r25, 0x0C	; 12
			 #if USED_W5500 == TRUE
			 W5500_socket_send(modbus_tx_buf,5);
			 #endif
		 }
	 }
 }
    40dc:	df 91       	pop	r29
    40de:	cf 91       	pop	r28
    40e0:	1f 91       	pop	r17
    40e2:	0f 91       	pop	r16
    40e4:	ff 90       	pop	r15
		 modbus_tx_buf[4] = modbus_crc16.mc[1];
		 modbus_tx_buf[5] = 0xaa;
		 modbus_tx_buf[6] = 0xaa;
		 if(PORT_USART == port_type)
		 {
			 send_uart1_to_computer(modbus_tx_buf,5+2);
    40e6:	0c 94 20 2b 	jmp	0x5640	; 0x5640 <send_uart1_to_computer>
		 }
		 else if(PORT_ENET == port_type)
    40ea:	89 e5       	ldi	r24, 0x59	; 89
    40ec:	f8 12       	cpse	r15, r24
    40ee:	0a c0       	rjmp	.+20     	; 0x4104 <modbus_read_maintain_reg_frame_handling+0xc2>
		 {
			 #if USED_W5500 == TRUE
			 W5500_socket_send(modbus_tx_buf,5);
    40f0:	65 e0       	ldi	r22, 0x05	; 5
    40f2:	82 e0       	ldi	r24, 0x02	; 2
    40f4:	9c e0       	ldi	r25, 0x0C	; 12
			 #endif
		 }
	 }
 }
    40f6:	df 91       	pop	r29
    40f8:	cf 91       	pop	r28
    40fa:	1f 91       	pop	r17
    40fc:	0f 91       	pop	r16
    40fe:	ff 90       	pop	r15
			 send_uart1_to_computer(modbus_tx_buf,5+2);
		 }
		 else if(PORT_ENET == port_type)
		 {
			 #if USED_W5500 == TRUE
			 W5500_socket_send(modbus_tx_buf,5);
    4100:	0c 94 46 34 	jmp	0x688c	; 0x688c <W5500_socket_send>
			 #endif
		 }
	 }
 }
    4104:	df 91       	pop	r29
    4106:	cf 91       	pop	r28
    4108:	1f 91       	pop	r17
    410a:	0f 91       	pop	r16
    410c:	ff 90       	pop	r15
    410e:	08 95       	ret

00004110 <modbus_task>:
 unsigned char is_read_maintain_reg_frame_ok=FALSE,is_write_multi_reg_frame_ok=FALSE;
 unsigned char modbus_tx_buf[254];
 /////////////////////////////////////////////////////////////////
 void modbus_task(void)
 {
	 modbus_status_update();
    4110:	0e 94 89 1d 	call	0x3b12	; 0x3b12 <modbus_status_update>
	 //
	 if(TRUE == is_read_maintain_reg_frame_ok)
    4114:	80 91 64 08 	lds	r24, 0x0864
    4118:	81 30       	cpi	r24, 0x01	; 1
    411a:	29 f4       	brne	.+10     	; 0x4126 <modbus_task+0x16>
	 {
		 //读维护寄存器
		 is_read_maintain_reg_frame_ok = FALSE;
    411c:	10 92 64 08 	sts	0x0864, r1
		 modbus_read_maintain_reg_frame_handling(PORT_USART);
    4120:	85 e3       	ldi	r24, 0x35	; 53
    4122:	0e 94 21 20 	call	0x4042	; 0x4042 <modbus_read_maintain_reg_frame_handling>
	 }
	 //
	 if(TRUE == is_write_multi_reg_frame_ok)
    4126:	80 91 63 08 	lds	r24, 0x0863
    412a:	81 30       	cpi	r24, 0x01	; 1
    412c:	29 f4       	brne	.+10     	; 0x4138 <modbus_task+0x28>
	 {
		 //写多个寄存器
		 is_write_multi_reg_frame_ok = FALSE;
    412e:	10 92 63 08 	sts	0x0863, r1
		 modbus_write_multi_reg_frame_handling(PORT_USART);
    4132:	85 e3       	ldi	r24, 0x35	; 53
    4134:	0c 94 af 1e 	jmp	0x3d5e	; 0x3d5e <modbus_write_multi_reg_frame_handling>
    4138:	08 95       	ret

0000413a <modbus_rtu_rx_frame>:
	 //
	 return crc16.ms;
 }
 /////////////////////////////////////////////////////////////////
 void modbus_rtu_rx_frame(unsigned char val)
 {
    413a:	cf 93       	push	r28
    413c:	df 93       	push	r29
    413e:	c8 2f       	mov	r28, r24
	 static unsigned char uart_rx_tmp=0;
	 //
	 if(TRUE == is_read_maintain_reg_frame)
    4140:	d0 91 66 08 	lds	r29, 0x0866
    4144:	d1 30       	cpi	r29, 0x01	; 1
    4146:	69 f5       	brne	.+90     	; 0x41a2 <modbus_rtu_rx_frame+0x68>
	 {
		 //读寄存器
		 read_maintain_reg_frame_tmp->buf[read_maintain_reg_frame_id++] = val;
    4148:	e0 91 0e 0e 	lds	r30, 0x0E0E
    414c:	f0 91 0f 0e 	lds	r31, 0x0E0F
    4150:	80 91 12 0d 	lds	r24, 0x0D12
    4154:	91 e0       	ldi	r25, 0x01	; 1
    4156:	98 0f       	add	r25, r24
    4158:	90 93 12 0d 	sts	0x0D12, r25
    415c:	e8 0f       	add	r30, r24
    415e:	f1 1d       	adc	r31, r1
    4160:	c0 83       	st	Z, r28
		 if(read_maintain_reg_frame_id >= SIZE_READ_MAINTAIN_REG)
    4162:	80 91 12 0d 	lds	r24, 0x0D12
    4166:	88 30       	cpi	r24, 0x08	; 8
    4168:	08 f4       	brcc	.+2      	; 0x416c <modbus_rtu_rx_frame+0x32>
    416a:	8c c0       	rjmp	.+280    	; 0x4284 <modbus_rtu_rx_frame+0x14a>
		 {
			 //帧接收完成
			 read_maintain_reg_frame_id = 0;
    416c:	10 92 12 0d 	sts	0x0D12, r1
			 is_read_maintain_reg_frame = FALSE;
    4170:	10 92 66 08 	sts	0x0866, r1
			 KillTimer(MT_CLEAN_MODBUS_RX_FLAG);
    4174:	82 e9       	ldi	r24, 0x92	; 146
    4176:	93 e1       	ldi	r25, 0x13	; 19
    4178:	0e 94 b1 29 	call	0x5362	; 0x5362 <KillTimer>
			 //
			 READ_MAINTAIN_REG_FRAME *pt = read_maintain_reg_frame_tmp;
    417c:	80 91 0e 0e 	lds	r24, 0x0E0E
    4180:	90 91 0f 0e 	lds	r25, 0x0E0F
			 read_maintain_reg_frame_tmp = read_maintain_reg_frame_ok;
    4184:	20 91 0c 0e 	lds	r18, 0x0E0C
    4188:	30 91 0d 0e 	lds	r19, 0x0E0D
    418c:	30 93 0f 0e 	sts	0x0E0F, r19
    4190:	20 93 0e 0e 	sts	0x0E0E, r18
			 read_maintain_reg_frame_ok = pt;
    4194:	90 93 0d 0e 	sts	0x0E0D, r25
    4198:	80 93 0c 0e 	sts	0x0E0C, r24
			 //
			 is_read_maintain_reg_frame_ok = TRUE;
    419c:	d0 93 64 08 	sts	0x0864, r29
    41a0:	71 c0       	rjmp	.+226    	; 0x4284 <modbus_rtu_rx_frame+0x14a>
		 }
	 }
	 else if(TRUE == is_write_multi_reg_frame)
    41a2:	d0 91 65 08 	lds	r29, 0x0865
    41a6:	d1 30       	cpi	r29, 0x01	; 1
    41a8:	69 f5       	brne	.+90     	; 0x4204 <modbus_rtu_rx_frame+0xca>
	 {
		 //写多个寄存器
		 write_multi_reg_frame_tmp->buf[write_multi_reg_frame_id++] = val;
    41aa:	e0 91 00 0d 	lds	r30, 0x0D00
    41ae:	f0 91 01 0d 	lds	r31, 0x0D01
    41b2:	80 91 0b 0e 	lds	r24, 0x0E0B
    41b6:	91 e0       	ldi	r25, 0x01	; 1
    41b8:	98 0f       	add	r25, r24
    41ba:	90 93 0b 0e 	sts	0x0E0B, r25
    41be:	e8 0f       	add	r30, r24
    41c0:	f1 1d       	adc	r31, r1
    41c2:	c0 83       	st	Z, r28
		 if(write_multi_reg_frame_id >= SIZE_WRITE_MULTI_REG)
    41c4:	80 91 0b 0e 	lds	r24, 0x0E0B
    41c8:	84 36       	cpi	r24, 0x64	; 100
    41ca:	08 f4       	brcc	.+2      	; 0x41ce <modbus_rtu_rx_frame+0x94>
    41cc:	5b c0       	rjmp	.+182    	; 0x4284 <modbus_rtu_rx_frame+0x14a>
		 {
			 //帧接收完成
			 write_multi_reg_frame_id = 0;
    41ce:	10 92 0b 0e 	sts	0x0E0B, r1
			 is_write_multi_reg_frame = FALSE;
    41d2:	10 92 65 08 	sts	0x0865, r1
			 KillTimer(MT_CLEAN_MODBUS_RX_FLAG);
    41d6:	82 e9       	ldi	r24, 0x92	; 146
    41d8:	93 e1       	ldi	r25, 0x13	; 19
    41da:	0e 94 b1 29 	call	0x5362	; 0x5362 <KillTimer>
			 //
			 WRITE_MULTI_REG_FRAME *pt = write_multi_reg_frame_tmp;
    41de:	80 91 00 0d 	lds	r24, 0x0D00
    41e2:	90 91 01 0d 	lds	r25, 0x0D01
			 write_multi_reg_frame_tmp = write_multi_reg_frame_ok;
    41e6:	20 91 00 0c 	lds	r18, 0x0C00
    41ea:	30 91 01 0c 	lds	r19, 0x0C01
    41ee:	30 93 01 0d 	sts	0x0D01, r19
    41f2:	20 93 00 0d 	sts	0x0D00, r18
			 write_multi_reg_frame_ok = pt;
    41f6:	90 93 01 0c 	sts	0x0C01, r25
    41fa:	80 93 00 0c 	sts	0x0C00, r24
			 //
			 is_write_multi_reg_frame_ok = TRUE;
    41fe:	d0 93 63 08 	sts	0x0863, r29
    4202:	40 c0       	rjmp	.+128    	; 0x4284 <modbus_rtu_rx_frame+0x14a>
		 }
	 }
	 else //if((FALSE==is_read_maintain_reg_frame) && (FALSE==is_write_multi_reg_frame))
	 {
		 if(m_rPara.para.addr_modbus == uart_rx_tmp)
    4204:	90 91 72 0a 	lds	r25, 0x0A72
    4208:	80 91 62 08 	lds	r24, 0x0862
    420c:	98 13       	cpse	r25, r24
    420e:	38 c0       	rjmp	.+112    	; 0x4280 <modbus_rtu_rx_frame+0x146>
		 {
			 //地址匹配
			 if(CMD_READ_MAINTAIN_REG == val)
    4210:	c3 30       	cpi	r28, 0x03	; 3
    4212:	d1 f4       	brne	.+52     	; 0x4248 <modbus_rtu_rx_frame+0x10e>
			 {
				 //功能码匹配（暂时只实现了读保持寄存器功能）
				 is_read_maintain_reg_frame = TRUE;
    4214:	81 e0       	ldi	r24, 0x01	; 1
    4216:	80 93 66 08 	sts	0x0866, r24
				 uart_rx_tmp = 0;
    421a:	10 92 62 08 	sts	0x0862, r1
				 SetTimer(MT_CLEAN_MODBUS_RX_FLAG,50,0);
    421e:	20 e0       	ldi	r18, 0x00	; 0
    4220:	42 e3       	ldi	r20, 0x32	; 50
    4222:	50 e0       	ldi	r21, 0x00	; 0
    4224:	60 e0       	ldi	r22, 0x00	; 0
    4226:	70 e0       	ldi	r23, 0x00	; 0
    4228:	82 e9       	ldi	r24, 0x92	; 146
    422a:	93 e1       	ldi	r25, 0x13	; 19
    422c:	0e 94 3a 29 	call	0x5274	; 0x5274 <SetTimer>
				 //
				 read_maintain_reg_frame_tmp->buf[0] = m_rPara.para.addr_modbus;//便于计算crc16
    4230:	e0 91 0e 0e 	lds	r30, 0x0E0E
    4234:	f0 91 0f 0e 	lds	r31, 0x0E0F
    4238:	80 91 72 0a 	lds	r24, 0x0A72
    423c:	80 83       	st	Z, r24
				 read_maintain_reg_frame_tmp->buf[1] = CMD_READ_MAINTAIN_REG;
    423e:	c1 83       	std	Z+1, r28	; 0x01
				 read_maintain_reg_frame_id = 2;
    4240:	82 e0       	ldi	r24, 0x02	; 2
    4242:	80 93 12 0d 	sts	0x0D12, r24
    4246:	1e c0       	rjmp	.+60     	; 0x4284 <modbus_rtu_rx_frame+0x14a>
			 }
			 else if(CMD_WRITE_MULTI_REG == val)
    4248:	c0 31       	cpi	r28, 0x10	; 16
    424a:	e1 f4       	brne	.+56     	; 0x4284 <modbus_rtu_rx_frame+0x14a>
			 {
				 //写多个寄存器
				 is_write_multi_reg_frame = TRUE;
    424c:	81 e0       	ldi	r24, 0x01	; 1
    424e:	80 93 65 08 	sts	0x0865, r24
				 uart_rx_tmp = 0;
    4252:	10 92 62 08 	sts	0x0862, r1
				 SetTimer(MT_CLEAN_MODBUS_RX_FLAG,150,0);
    4256:	20 e0       	ldi	r18, 0x00	; 0
    4258:	46 e9       	ldi	r20, 0x96	; 150
    425a:	50 e0       	ldi	r21, 0x00	; 0
    425c:	60 e0       	ldi	r22, 0x00	; 0
    425e:	70 e0       	ldi	r23, 0x00	; 0
    4260:	82 e9       	ldi	r24, 0x92	; 146
    4262:	93 e1       	ldi	r25, 0x13	; 19
    4264:	0e 94 3a 29 	call	0x5274	; 0x5274 <SetTimer>
				 //
				 write_multi_reg_frame_tmp->buf[0] = m_rPara.para.addr_modbus;//便于计算crc16
    4268:	e0 91 00 0d 	lds	r30, 0x0D00
    426c:	f0 91 01 0d 	lds	r31, 0x0D01
    4270:	80 91 72 0a 	lds	r24, 0x0A72
    4274:	80 83       	st	Z, r24
				 write_multi_reg_frame_tmp->buf[1] = CMD_WRITE_MULTI_REG;
    4276:	c1 83       	std	Z+1, r28	; 0x01
				 write_multi_reg_frame_id = 2;
    4278:	82 e0       	ldi	r24, 0x02	; 2
    427a:	80 93 0b 0e 	sts	0x0E0B, r24
    427e:	02 c0       	rjmp	.+4      	; 0x4284 <modbus_rtu_rx_frame+0x14a>
			 }
		 }
		 else
		 {
			 uart_rx_tmp = val;
    4280:	c0 93 62 08 	sts	0x0862, r28
		 }
	 }
 }
    4284:	df 91       	pop	r29
    4286:	cf 91       	pop	r28
    4288:	08 95       	ret

0000428a <modbus_clean_rx_flag>:
 /////////////////////////////////////////////////////////////////
 void modbus_clean_rx_flag(void)
 {
	 read_maintain_reg_frame_id = 0;
    428a:	10 92 12 0d 	sts	0x0D12, r1
	 is_read_maintain_reg_frame = FALSE;
    428e:	10 92 66 08 	sts	0x0866, r1
	 //
	 write_multi_reg_frame_id = 0;
    4292:	10 92 0b 0e 	sts	0x0E0B, r1
	 is_write_multi_reg_frame = FALSE;
    4296:	10 92 65 08 	sts	0x0865, r1
    429a:	08 95       	ret

0000429c <key_csqr_handling>:
	}
}
/////////////////////////////////////////////////////////////////
void key_csqr_handling(void)
{
	if(1 == bit_setmode)
    429c:	80 91 c5 0a 	lds	r24, 0x0AC5
    42a0:	81 30       	cpi	r24, 0x01	; 1
    42a2:	71 f4       	brne	.+28     	; 0x42c0 <key_csqr_handling+0x24>
	{
		//参数设置模式下
		if(0 == bit_setmode_password)
    42a4:	80 91 cb 0a 	lds	r24, 0x0ACB
    42a8:	81 11       	cpse	r24, r1
    42aa:	02 c0       	rjmp	.+4      	; 0x42b0 <key_csqr_handling+0x14>
		{
			//保持参数
			save_para();
    42ac:	0e 94 7a 16 	call	0x2cf4	; 0x2cf4 <save_para>
		}
		//
		set_idle_wait=0;
    42b0:	10 92 de 0a 	sts	0x0ADE, r1
		pagenumber++;//下一页设置，在显示的时候判断是否退出设置模式
    42b4:	80 91 b8 0a 	lds	r24, 0x0AB8
    42b8:	8f 5f       	subi	r24, 0xFF	; 255
    42ba:	80 93 b8 0a 	sts	0x0AB8, r24
    42be:	17 c0       	rjmp	.+46     	; 0x42ee <key_csqr_handling+0x52>
	}
	else if(1 == bit_monitor_mode)
    42c0:	80 91 f2 0a 	lds	r24, 0x0AF2
    42c4:	81 30       	cpi	r24, 0x01	; 1
    42c6:	39 f4       	brne	.+14     	; 0x42d6 <key_csqr_handling+0x3a>
	{
		//监控数据模式下，按下CSQR键，退出监控模式进入告警数据模式
		bit_monitor_mode = 0;
    42c8:	10 92 f2 0a 	sts	0x0AF2, r1
		bit_alarm_mode = 1;
    42cc:	80 93 df 0a 	sts	0x0ADF, r24
		monitor_mode_page = 0;
    42d0:	10 92 13 0e 	sts	0x0E13, r1
    42d4:	0a c0       	rjmp	.+20     	; 0x42ea <key_csqr_handling+0x4e>
		set_idle_wait=0;
	}
	else if(1 == bit_alarm_mode)
    42d6:	80 91 df 0a 	lds	r24, 0x0ADF
    42da:	81 30       	cpi	r24, 0x01	; 1
    42dc:	41 f4       	brne	.+16     	; 0x42ee <key_csqr_handling+0x52>
	{
		//告警信息模式下，按下CSQR键，退出告警模式
		bit_monitor_mode = 0;
    42de:	10 92 f2 0a 	sts	0x0AF2, r1
		bit_alarm_mode = 0;
    42e2:	10 92 df 0a 	sts	0x0ADF, r1
		alarm_mode_page = 0;
    42e6:	10 92 10 0e 	sts	0x0E10, r1
		set_idle_wait=0;
    42ea:	10 92 de 0a 	sts	0x0ADE, r1
	}
	//
	long_pressed_csqr_delay = boot_time;
    42ee:	80 91 58 0b 	lds	r24, 0x0B58
    42f2:	90 91 59 0b 	lds	r25, 0x0B59
    42f6:	a0 91 5a 0b 	lds	r26, 0x0B5A
    42fa:	b0 91 5b 0b 	lds	r27, 0x0B5B
    42fe:	80 93 49 0b 	sts	0x0B49, r24
    4302:	90 93 4a 0b 	sts	0x0B4A, r25
    4306:	a0 93 4b 0b 	sts	0x0B4B, r26
    430a:	b0 93 4c 0b 	sts	0x0B4C, r27
    430e:	08 95       	ret

00004310 <key_up_handling>:
/////////////////////////////////////////////////////////////////
void key_up_handling(void)
{
	//向上按键在工作模式和设置模式下都需要用到，因此需要分别处理
	//
	if(1 == bit_monitor_mode)
    4310:	80 91 f2 0a 	lds	r24, 0x0AF2
    4314:	81 30       	cpi	r24, 0x01	; 1
    4316:	69 f4       	brne	.+26     	; 0x4332 <key_up_handling+0x22>
	{
		//监控数据显示模式
		set_idle_wait=0;
    4318:	10 92 de 0a 	sts	0x0ADE, r1
		if(monitor_mode_page < 5)
    431c:	80 91 13 0e 	lds	r24, 0x0E13
    4320:	85 30       	cpi	r24, 0x05	; 5
    4322:	20 f4       	brcc	.+8      	; 0x432c <key_up_handling+0x1c>
		{
			monitor_mode_page++;
    4324:	8f 5f       	subi	r24, 0xFF	; 255
    4326:	80 93 13 0e 	sts	0x0E13, r24
    432a:	08 95       	ret
		}
		else
		{
			monitor_mode_page = 0;
    432c:	10 92 13 0e 	sts	0x0E13, r1
    4330:	08 95       	ret
		}
	}
	else if(1 == bit_alarm_mode)
    4332:	80 91 df 0a 	lds	r24, 0x0ADF
    4336:	81 30       	cpi	r24, 0x01	; 1
    4338:	69 f4       	brne	.+26     	; 0x4354 <key_up_handling+0x44>
	{
		//告警数据显示模式
		set_idle_wait=0;
    433a:	10 92 de 0a 	sts	0x0ADE, r1
		if(alarm_mode_page < 6)
    433e:	80 91 10 0e 	lds	r24, 0x0E10
    4342:	86 30       	cpi	r24, 0x06	; 6
    4344:	20 f4       	brcc	.+8      	; 0x434e <key_up_handling+0x3e>
		{
			alarm_mode_page++;
    4346:	8f 5f       	subi	r24, 0xFF	; 255
    4348:	80 93 10 0e 	sts	0x0E10, r24
    434c:	08 95       	ret
		}
		else
		{
			alarm_mode_page = 0;
    434e:	10 92 10 0e 	sts	0x0E10, r1
    4352:	08 95       	ret
		}
	}
	else if(0 == bit_setmode)
    4354:	80 91 c5 0a 	lds	r24, 0x0AC5
    4358:	81 11       	cpse	r24, r1
    435a:	21 c0       	rjmp	.+66     	; 0x439e <key_up_handling+0x8e>
	{
		if(1==bit_manual)
    435c:	80 91 fe 0a 	lds	r24, 0x0AFE
    4360:	81 30       	cpi	r24, 0x01	; 1
    4362:	09 f0       	breq	.+2      	; 0x4366 <key_up_handling+0x56>
    4364:	52 c1       	rjmp	.+676    	; 0x460a <key_up_handling+0x2fa>
		{
			m_rPara.para.manual_vel++;
    4366:	80 91 68 0a 	lds	r24, 0x0A68
    436a:	90 91 69 0a 	lds	r25, 0x0A69
    436e:	01 96       	adiw	r24, 0x01	; 1
    4370:	90 93 69 0a 	sts	0x0A69, r25
    4374:	80 93 68 0a 	sts	0x0A68, r24
			if(m_rPara.para.manual_vel > m_rPara.para.max_vel)
    4378:	20 91 5c 0a 	lds	r18, 0x0A5C
    437c:	30 91 5d 0a 	lds	r19, 0x0A5D
    4380:	28 17       	cp	r18, r24
    4382:	39 07       	cpc	r19, r25
    4384:	20 f4       	brcc	.+8      	; 0x438e <key_up_handling+0x7e>
			{
				m_rPara.para.manual_vel=m_rPara.para.max_vel;
    4386:	30 93 69 0a 	sts	0x0A69, r19
    438a:	20 93 68 0a 	sts	0x0A68, r18
			}
			eeprom_write_word_user((uint16_t *)&m_ePara[0].para.manual_vel,m_rPara.para.manual_vel);
    438e:	60 91 68 0a 	lds	r22, 0x0A68
    4392:	70 91 69 0a 	lds	r23, 0x0A69
    4396:	80 e1       	ldi	r24, 0x10	; 16
    4398:	91 e0       	ldi	r25, 0x01	; 1
    439a:	0c 94 d3 10 	jmp	0x21a6	; 0x21a6 <eeprom_write_word_user>
		#endif
	}
	else
	{
		//设置模式下
		set_idle_wait=0;
    439e:	10 92 de 0a 	sts	0x0ADE, r1
		if(1 == bit_setmode_2)
    43a2:	90 91 c9 0a 	lds	r25, 0x0AC9
    43a6:	80 91 b8 0a 	lds	r24, 0x0AB8
    43aa:	91 30       	cpi	r25, 0x01	; 1
    43ac:	09 f0       	breq	.+2      	; 0x43b0 <key_up_handling+0xa0>
    43ae:	50 c0       	rjmp	.+160    	; 0x4450 <key_up_handling+0x140>
		{
			//内部参数
			switch(pagenumber)
    43b0:	90 e0       	ldi	r25, 0x00	; 0
    43b2:	88 30       	cpi	r24, 0x08	; 8
    43b4:	91 05       	cpc	r25, r1
    43b6:	08 f0       	brcs	.+2      	; 0x43ba <key_up_handling+0xaa>
    43b8:	28 c1       	rjmp	.+592    	; 0x460a <key_up_handling+0x2fa>
    43ba:	fc 01       	movw	r30, r24
    43bc:	e8 59       	subi	r30, 0x98	; 152
    43be:	ff 4f       	sbci	r31, 0xFF	; 255
    43c0:	0c 94 6c 37 	jmp	0x6ed8	; 0x6ed8 <__tablejump2__>
			{
				case 0://料位传感器满量程输出(50%-100%)
				{
						m_rPara.para.material_full=100;
    43c4:	84 e6       	ldi	r24, 0x64	; 100
    43c6:	80 93 62 0a 	sts	0x0A62, r24
				}
				break;
    43ca:	08 95       	ret
				case 1://上电远控与上电键盘控制选择. 1:上电远控  2:上电键盘控制
				{
					if(1==m_rPara.para.is_remote)
    43cc:	80 91 63 0a 	lds	r24, 0x0A63
    43d0:	81 30       	cpi	r24, 0x01	; 1
    43d2:	11 f4       	brne	.+4      	; 0x43d8 <key_up_handling+0xc8>
					{
						m_rPara.para.is_remote=2;
    43d4:	82 e0       	ldi	r24, 0x02	; 2
    43d6:	01 c0       	rjmp	.+2      	; 0x43da <key_up_handling+0xca>
					}
					else
					{
						m_rPara.para.is_remote=1;
    43d8:	81 e0       	ldi	r24, 0x01	; 1
    43da:	80 93 63 0a 	sts	0x0A63, r24
    43de:	08 95       	ret
					}
				}
				break;
				case 2://主电机过载保护停机电流 (额定电流的100%-200%)
				{
					m_rPara.para.mm_cur_overflow++;
    43e0:	80 91 64 0a 	lds	r24, 0x0A64
    43e4:	8f 5f       	subi	r24, 0xFF	; 255
    43e6:	80 93 64 0a 	sts	0x0A64, r24
					if(m_rPara.para.mm_cur_overflow > 200)
    43ea:	89 3c       	cpi	r24, 0xC9	; 201
    43ec:	08 f4       	brcc	.+2      	; 0x43f0 <key_up_handling+0xe0>
    43ee:	0d c1       	rjmp	.+538    	; 0x460a <key_up_handling+0x2fa>
					{
						m_rPara.para.mm_cur_overflow=200;
    43f0:	88 ec       	ldi	r24, 0xC8	; 200
    43f2:	80 93 64 0a 	sts	0x0A64, r24
    43f6:	08 95       	ret
					}
				}
				break;
				case 3://是否根据主电机电流进行连锁控制   0:连锁控制  1:不连锁控制
				{
					if(0==m_rPara.para.mm_control)
    43f8:	80 91 65 0a 	lds	r24, 0x0A65
    43fc:	81 11       	cpse	r24, r1
    43fe:	05 c1       	rjmp	.+522    	; 0x460a <key_up_handling+0x2fa>
					{
						m_rPara.para.mm_control=1;
    4400:	81 e0       	ldi	r24, 0x01	; 1
    4402:	80 93 65 0a 	sts	0x0A65, r24
    4406:	08 95       	ret
					}
				}
				break;
				case 4://电流传感器量程(10-100A),主电机电流
				{
					m_rPara.para.cur1_full++;
    4408:	80 91 66 0a 	lds	r24, 0x0A66
    440c:	8f 5f       	subi	r24, 0xFF	; 255
    440e:	80 93 66 0a 	sts	0x0A66, r24
					if(m_rPara.para.cur1_full > FULL_CURRENT)
    4412:	85 36       	cpi	r24, 0x65	; 101
    4414:	08 f4       	brcc	.+2      	; 0x4418 <key_up_handling+0x108>
    4416:	f9 c0       	rjmp	.+498    	; 0x460a <key_up_handling+0x2fa>
					{
						m_rPara.para.cur1_full=FULL_CURRENT;
    4418:	84 e6       	ldi	r24, 0x64	; 100
    441a:	80 93 66 0a 	sts	0x0A66, r24
    441e:	08 95       	ret
					}
				}
				break;
				case 5://高料位
				{
					m_cgq_cmd = GAOLIAOWEI;
    4420:	84 e3       	ldi	r24, 0x34	; 52
    4422:	80 93 48 0b 	sts	0x0B48, r24
				}
				break;
    4426:	08 95       	ret
				case 6://选择料位采集信号    1：485+AD 2:485 3：LC（集成传感器） 4:AD
				{
					if(m_rPara.para.material_port < MATERIAL_PORT_ONLY_AD)
    4428:	80 91 67 0a 	lds	r24, 0x0A67
    442c:	83 30       	cpi	r24, 0x03	; 3
    442e:	10 f4       	brcc	.+4      	; 0x4434 <key_up_handling+0x124>
					{
						m_rPara.para.material_port++;
    4430:	8f 5f       	subi	r24, 0xFF	; 255
    4432:	01 c0       	rjmp	.+2      	; 0x4436 <key_up_handling+0x126>
					}
					else
					{
						m_rPara.para.material_port = MATERIAL_PORT_RS485_AD;
    4434:	81 e0       	ldi	r24, 0x01	; 1
    4436:	80 93 67 0a 	sts	0x0A67, r24
    443a:	08 95       	ret
					}
				}
				break;
				case 7://MB与转速之间的关系
				{
					if(m_rPara.para.mb_div < 99)
    443c:	80 91 76 0a 	lds	r24, 0x0A76
    4440:	83 36       	cpi	r24, 0x63	; 99
    4442:	10 f4       	brcc	.+4      	; 0x4448 <key_up_handling+0x138>
					{
						m_rPara.para.mb_div++;
    4444:	8f 5f       	subi	r24, 0xFF	; 255
    4446:	01 c0       	rjmp	.+2      	; 0x444a <key_up_handling+0x13a>
					}
					else
					{
						m_rPara.para.mb_div = 1;
    4448:	81 e0       	ldi	r24, 0x01	; 1
    444a:	80 93 76 0a 	sts	0x0A76, r24
    444e:	08 95       	ret
				}
				break;
				#endif
			}
		}
		else if(1==bit_setmode_password)
    4450:	90 91 cb 0a 	lds	r25, 0x0ACB
    4454:	91 30       	cpi	r25, 0x01	; 1
    4456:	69 f4       	brne	.+26     	; 0x4472 <key_up_handling+0x162>
		{
			//输入密码
			password[pagenumber]++;
    4458:	e8 2f       	mov	r30, r24
    445a:	f0 e0       	ldi	r31, 0x00	; 0
    445c:	e1 5b       	subi	r30, 0xB1	; 177
    445e:	f5 4f       	sbci	r31, 0xF5	; 245
    4460:	20 81       	ld	r18, Z
    4462:	2f 5f       	subi	r18, 0xFF	; 255
    4464:	20 83       	st	Z, r18
			if(password[pagenumber] > 9)
    4466:	2a 30       	cpi	r18, 0x0A	; 10
    4468:	08 f4       	brcc	.+2      	; 0x446c <key_up_handling+0x15c>
    446a:	cf c0       	rjmp	.+414    	; 0x460a <key_up_handling+0x2fa>
			{
				password[pagenumber]=9;
    446c:	29 e0       	ldi	r18, 0x09	; 9
    446e:	20 83       	st	Z, r18
    4470:	08 95       	ret
			}
		}
		else if(1==bit_setmode_delay)
    4472:	90 91 c4 0a 	lds	r25, 0x0AC4
    4476:	91 30       	cpi	r25, 0x01	; 1
    4478:	d1 f4       	brne	.+52     	; 0x44ae <key_up_handling+0x19e>
		{
			switch(pagenumber)
    447a:	81 11       	cpse	r24, r1
    447c:	c6 c0       	rjmp	.+396    	; 0x460a <key_up_handling+0x2fa>
			{
				case 0:
				{
					//限时参数
					//限时时间,天
					limited_days++;
    447e:	80 91 65 0b 	lds	r24, 0x0B65
    4482:	90 91 66 0b 	lds	r25, 0x0B66
    4486:	01 96       	adiw	r24, 0x01	; 1
    4488:	90 93 66 0b 	sts	0x0B66, r25
    448c:	80 93 65 0b 	sts	0x0B65, r24
					if(limited_days > LIMITED_DAYS_MAX)
    4490:	80 91 65 0b 	lds	r24, 0x0B65
    4494:	90 91 66 0b 	lds	r25, 0x0B66
    4498:	8d 38       	cpi	r24, 0x8D	; 141
    449a:	9a 40       	sbci	r25, 0x0A	; 10
    449c:	08 f4       	brcc	.+2      	; 0x44a0 <key_up_handling+0x190>
    449e:	b5 c0       	rjmp	.+362    	; 0x460a <key_up_handling+0x2fa>
					{
						limited_days = LIMITED_DAYS_MAX;
    44a0:	8c e8       	ldi	r24, 0x8C	; 140
    44a2:	9a e0       	ldi	r25, 0x0A	; 10
    44a4:	90 93 66 0b 	sts	0x0B66, r25
    44a8:	80 93 65 0b 	sts	0x0B65, r24
    44ac:	08 95       	ret
					}
				}
				break;
			}
		}
		else if(1==bit_setmode_3)
    44ae:	90 91 aa 0a 	lds	r25, 0x0AAA
    44b2:	91 30       	cpi	r25, 0x01	; 1
    44b4:	09 f0       	breq	.+2      	; 0x44b8 <key_up_handling+0x1a8>
    44b6:	55 c0       	rjmp	.+170    	; 0x4562 <key_up_handling+0x252>
		{
			//密码保护的参数
			switch(pagenumber)
    44b8:	90 e0       	ldi	r25, 0x00	; 0
    44ba:	87 30       	cpi	r24, 0x07	; 7
    44bc:	91 05       	cpc	r25, r1
    44be:	08 f0       	brcs	.+2      	; 0x44c2 <key_up_handling+0x1b2>
    44c0:	a4 c0       	rjmp	.+328    	; 0x460a <key_up_handling+0x2fa>
    44c2:	fc 01       	movw	r30, r24
    44c4:	e0 59       	subi	r30, 0x90	; 144
    44c6:	ff 4f       	sbci	r31, 0xFF	; 255
    44c8:	0c 94 6c 37 	jmp	0x6ed8	; 0x6ed8 <__tablejump2__>
			{
				case 0://启动料位值
				{
					m_rPara.para.material_start++;
    44cc:	80 91 6d 0a 	lds	r24, 0x0A6D
    44d0:	8f 5f       	subi	r24, 0xFF	; 255
    44d2:	80 93 6d 0a 	sts	0x0A6D, r24
					if(m_rPara.para.material_start > 100)
    44d6:	85 36       	cpi	r24, 0x65	; 101
    44d8:	08 f4       	brcc	.+2      	; 0x44dc <key_up_handling+0x1cc>
    44da:	97 c0       	rjmp	.+302    	; 0x460a <key_up_handling+0x2fa>
					{
						m_rPara.para.material_start=100;
    44dc:	84 e6       	ldi	r24, 0x64	; 100
    44de:	80 93 6d 0a 	sts	0x0A6D, r24
    44e2:	08 95       	ret
					}
				}
				break;
				case 1://停机料位值
				{
					m_rPara.para.material_stop++;
    44e4:	80 91 6e 0a 	lds	r24, 0x0A6E
    44e8:	8f 5f       	subi	r24, 0xFF	; 255
    44ea:	80 93 6e 0a 	sts	0x0A6E, r24
					if(m_rPara.para.material_stop > 150)
    44ee:	87 39       	cpi	r24, 0x97	; 151
    44f0:	08 f4       	brcc	.+2      	; 0x44f4 <key_up_handling+0x1e4>
    44f2:	8b c0       	rjmp	.+278    	; 0x460a <key_up_handling+0x2fa>
					{
						m_rPara.para.material_stop=150;
    44f4:	86 e9       	ldi	r24, 0x96	; 150
    44f6:	80 93 6e 0a 	sts	0x0A6E, r24
    44fa:	08 95       	ret
					}
				}
				break;
				case 2://电流修正值
				{
					m_rPara.para.current1_modify++;
    44fc:	80 91 6f 0a 	lds	r24, 0x0A6F
    4500:	8f 5f       	subi	r24, 0xFF	; 255
    4502:	80 93 6f 0a 	sts	0x0A6F, r24
					if(m_rPara.para.current1_modify > 130)
    4506:	83 38       	cpi	r24, 0x83	; 131
    4508:	08 f4       	brcc	.+2      	; 0x450c <key_up_handling+0x1fc>
    450a:	7f c0       	rjmp	.+254    	; 0x460a <key_up_handling+0x2fa>
					{
						m_rPara.para.current1_modify=130;
    450c:	82 e8       	ldi	r24, 0x82	; 130
    450e:	80 93 6f 0a 	sts	0x0A6F, r24
    4512:	08 95       	ret
					}
				}
				break;
				case 3://MODBUS从机地址
				{
					if(m_rPara.para.addr_modbus < 254)
    4514:	80 91 72 0a 	lds	r24, 0x0A72
    4518:	8e 3f       	cpi	r24, 0xFE	; 254
    451a:	08 f0       	brcs	.+2      	; 0x451e <key_up_handling+0x20e>
    451c:	76 c0       	rjmp	.+236    	; 0x460a <key_up_handling+0x2fa>
					{
						m_rPara.para.addr_modbus++;
    451e:	8f 5f       	subi	r24, 0xFF	; 255
    4520:	80 93 72 0a 	sts	0x0A72, r24
    4524:	08 95       	ret
					}
				}
				break;
				case 4://MODBUS通信波特率
				{
					if(m_rPara.para.baud_modbus < MODBUS_BAUD_38400)
    4526:	80 91 73 0a 	lds	r24, 0x0A73
    452a:	83 30       	cpi	r24, 0x03	; 3
    452c:	10 f4       	brcc	.+4      	; 0x4532 <key_up_handling+0x222>
					{
						m_rPara.para.baud_modbus++;
    452e:	8f 5f       	subi	r24, 0xFF	; 255
    4530:	01 c0       	rjmp	.+2      	; 0x4534 <key_up_handling+0x224>
					}
					else
					{
						m_rPara.para.baud_modbus = MODBUS_BAUD_9600;
    4532:	81 e0       	ldi	r24, 0x01	; 1
    4534:	80 93 73 0a 	sts	0x0A73, r24
    4538:	08 95       	ret
				}
				break;
				case 5:
				{
					//MB输入选择（1：电平，2：脉冲）
					if(MB_LEVEL == m_rPara.para.mb_level_pulse)
    453a:	80 91 74 0a 	lds	r24, 0x0A74
    453e:	81 30       	cpi	r24, 0x01	; 1
    4540:	11 f4       	brne	.+4      	; 0x4546 <key_up_handling+0x236>
					{
						m_rPara.para.mb_level_pulse = MB_PULSE;
    4542:	82 e0       	ldi	r24, 0x02	; 2
    4544:	01 c0       	rjmp	.+2      	; 0x4548 <key_up_handling+0x238>
					}
					else
					{
						m_rPara.para.mb_level_pulse = MB_LEVEL;
    4546:	81 e0       	ldi	r24, 0x01	; 1
    4548:	80 93 74 0a 	sts	0x0A74, r24
    454c:	08 95       	ret
				}
				break;
				case 6:
				{
					//DW输入选择（1：电平，2：脉冲）
					if(DW_LEVEL == m_rPara.para.dw_level_pulse)
    454e:	80 91 75 0a 	lds	r24, 0x0A75
    4552:	81 30       	cpi	r24, 0x01	; 1
    4554:	11 f4       	brne	.+4      	; 0x455a <key_up_handling+0x24a>
					{
						m_rPara.para.dw_level_pulse = DW_PULSE;
    4556:	82 e0       	ldi	r24, 0x02	; 2
    4558:	01 c0       	rjmp	.+2      	; 0x455c <key_up_handling+0x24c>
					}
					else
					{
						m_rPara.para.dw_level_pulse = DW_LEVEL;
    455a:	81 e0       	ldi	r24, 0x01	; 1
    455c:	80 93 75 0a 	sts	0x0A75, r24
    4560:	08 95       	ret
			}
		}
		else
		{
			//外部参数
			switch(pagenumber)
    4562:	82 30       	cpi	r24, 0x02	; 2
    4564:	89 f1       	breq	.+98     	; 0x45c8 <key_up_handling+0x2b8>
    4566:	28 f4       	brcc	.+10     	; 0x4572 <key_up_handling+0x262>
    4568:	88 23       	and	r24, r24
    456a:	41 f0       	breq	.+16     	; 0x457c <key_up_handling+0x26c>
    456c:	81 30       	cpi	r24, 0x01	; 1
    456e:	c9 f0       	breq	.+50     	; 0x45a2 <key_up_handling+0x292>
    4570:	08 95       	ret
    4572:	83 30       	cpi	r24, 0x03	; 3
    4574:	a1 f1       	breq	.+104    	; 0x45de <key_up_handling+0x2ce>
    4576:	85 30       	cpi	r24, 0x05	; 5
    4578:	e9 f1       	breq	.+122    	; 0x45f4 <key_up_handling+0x2e4>
    457a:	08 95       	ret
			{
				case 0://最高转速(40-300)
				{
					m_rPara.para.max_vel++;
    457c:	80 91 5c 0a 	lds	r24, 0x0A5C
    4580:	90 91 5d 0a 	lds	r25, 0x0A5D
    4584:	01 96       	adiw	r24, 0x01	; 1
    4586:	90 93 5d 0a 	sts	0x0A5D, r25
    458a:	80 93 5c 0a 	sts	0x0A5C, r24
					if(m_rPara.para.max_vel > MAX_VEL)
    458e:	8d 32       	cpi	r24, 0x2D	; 45
    4590:	91 40       	sbci	r25, 0x01	; 1
    4592:	d8 f1       	brcs	.+118    	; 0x460a <key_up_handling+0x2fa>
					{
						m_rPara.para.max_vel=MAX_VEL;
    4594:	8c e2       	ldi	r24, 0x2C	; 44
    4596:	91 e0       	ldi	r25, 0x01	; 1
    4598:	90 93 5d 0a 	sts	0x0A5D, r25
    459c:	80 93 5c 0a 	sts	0x0A5C, r24
    45a0:	08 95       	ret
					}
				}
				break;
				case 1://最低转速(40-300)
				{
					m_rPara.para.min_vel++;
    45a2:	80 91 5e 0a 	lds	r24, 0x0A5E
    45a6:	90 91 5f 0a 	lds	r25, 0x0A5F
    45aa:	01 96       	adiw	r24, 0x01	; 1
    45ac:	90 93 5f 0a 	sts	0x0A5F, r25
    45b0:	80 93 5e 0a 	sts	0x0A5E, r24
					if(m_rPara.para.min_vel > MAX_VEL)
    45b4:	8d 32       	cpi	r24, 0x2D	; 45
    45b6:	91 40       	sbci	r25, 0x01	; 1
    45b8:	40 f1       	brcs	.+80     	; 0x460a <key_up_handling+0x2fa>
					{
						m_rPara.para.min_vel=MAX_VEL;
    45ba:	8c e2       	ldi	r24, 0x2C	; 44
    45bc:	91 e0       	ldi	r25, 0x01	; 1
    45be:	90 93 5f 0a 	sts	0x0A5F, r25
    45c2:	80 93 5e 0a 	sts	0x0A5E, r24
    45c6:	08 95       	ret
					}
				}
				break;
				case 2://主电机额定电流(10-100A)
				{
					m_rPara.para.mmotor_cur1++;
    45c8:	80 91 60 0a 	lds	r24, 0x0A60
    45cc:	8f 5f       	subi	r24, 0xFF	; 255
    45ce:	80 93 60 0a 	sts	0x0A60, r24
					if(m_rPara.para.mmotor_cur1 > 100)
    45d2:	85 36       	cpi	r24, 0x65	; 101
    45d4:	d0 f0       	brcs	.+52     	; 0x460a <key_up_handling+0x2fa>
					{
						m_rPara.para.mmotor_cur1=100;
    45d6:	84 e6       	ldi	r24, 0x64	; 100
    45d8:	80 93 60 0a 	sts	0x0A60, r24
    45dc:	08 95       	ret
					}
				}
				break;
				case 3://合轧延时时间(0.2-20s)
				{
					m_rPara.para.rollin_delay++;
    45de:	80 91 61 0a 	lds	r24, 0x0A61
    45e2:	8f 5f       	subi	r24, 0xFF	; 255
    45e4:	80 93 61 0a 	sts	0x0A61, r24
					if(m_rPara.para.rollin_delay > 200)
    45e8:	89 3c       	cpi	r24, 0xC9	; 201
    45ea:	78 f0       	brcs	.+30     	; 0x460a <key_up_handling+0x2fa>
					{
						m_rPara.para.rollin_delay=200;
    45ec:	88 ec       	ldi	r24, 0xC8	; 200
    45ee:	80 93 61 0a 	sts	0x0A61, r24
    45f2:	08 95       	ret
					//总停机日志数据
				}
				break;
				case 5://恢复默认参数
				{
					if(set_default < 99)
    45f4:	80 91 a8 0a 	lds	r24, 0x0AA8
    45f8:	83 36       	cpi	r24, 0x63	; 99
    45fa:	20 f4       	brcc	.+8      	; 0x4604 <key_up_handling+0x2f4>
					{
						set_default++;
    45fc:	80 91 a8 0a 	lds	r24, 0x0AA8
    4600:	8f 5f       	subi	r24, 0xFF	; 255
    4602:	01 c0       	rjmp	.+2      	; 0x4606 <key_up_handling+0x2f6>
					}
					else
					{
						set_default = 1;
    4604:	81 e0       	ldi	r24, 0x01	; 1
    4606:	80 93 a8 0a 	sts	0x0AA8, r24
    460a:	08 95       	ret

0000460c <key_down_handling>:
/////////////////////////////////////////////////////////////////
void key_down_handling(void)
{
	//向下按键在工作模式和设置模式下都需要用到，因此需要分别处理
	//
	if(1 == bit_monitor_mode)
    460c:	80 91 f2 0a 	lds	r24, 0x0AF2
    4610:	81 30       	cpi	r24, 0x01	; 1
    4612:	61 f4       	brne	.+24     	; 0x462c <key_down_handling+0x20>
	{
		//监控数据显示模式
		set_idle_wait=0;
    4614:	10 92 de 0a 	sts	0x0ADE, r1
		if(monitor_mode_page > 0)
    4618:	80 91 13 0e 	lds	r24, 0x0E13
    461c:	88 23       	and	r24, r24
    461e:	11 f0       	breq	.+4      	; 0x4624 <key_down_handling+0x18>
		{
			monitor_mode_page--;
    4620:	81 50       	subi	r24, 0x01	; 1
    4622:	01 c0       	rjmp	.+2      	; 0x4626 <key_down_handling+0x1a>
		}
		else
		{
			monitor_mode_page = 5;
    4624:	85 e0       	ldi	r24, 0x05	; 5
    4626:	80 93 13 0e 	sts	0x0E13, r24
    462a:	08 95       	ret
		}
	}
	else if(1 == bit_alarm_mode)
    462c:	80 91 df 0a 	lds	r24, 0x0ADF
    4630:	81 30       	cpi	r24, 0x01	; 1
    4632:	61 f4       	brne	.+24     	; 0x464c <key_down_handling+0x40>
	{
		//告警数据显示模式
		set_idle_wait=0;
    4634:	10 92 de 0a 	sts	0x0ADE, r1
		if(alarm_mode_page > 0)
    4638:	80 91 10 0e 	lds	r24, 0x0E10
    463c:	88 23       	and	r24, r24
    463e:	11 f0       	breq	.+4      	; 0x4644 <key_down_handling+0x38>
		{
			alarm_mode_page--;
    4640:	81 50       	subi	r24, 0x01	; 1
    4642:	01 c0       	rjmp	.+2      	; 0x4646 <key_down_handling+0x3a>
		}
		else
		{
			alarm_mode_page = 6;
    4644:	86 e0       	ldi	r24, 0x06	; 6
    4646:	80 93 10 0e 	sts	0x0E10, r24
    464a:	08 95       	ret
		}
	}
	else if(0 == bit_setmode)
    464c:	80 91 c5 0a 	lds	r24, 0x0AC5
    4650:	81 11       	cpse	r24, r1
    4652:	21 c0       	rjmp	.+66     	; 0x4696 <key_down_handling+0x8a>
	{
		//工作模式
		if(1==bit_manual)
    4654:	80 91 fe 0a 	lds	r24, 0x0AFE
    4658:	81 30       	cpi	r24, 0x01	; 1
    465a:	09 f0       	breq	.+2      	; 0x465e <key_down_handling+0x52>
    465c:	4a c1       	rjmp	.+660    	; 0x48f2 <key_down_handling+0x2e6>
		{
			m_rPara.para.manual_vel--;
    465e:	80 91 68 0a 	lds	r24, 0x0A68
    4662:	90 91 69 0a 	lds	r25, 0x0A69
    4666:	01 97       	sbiw	r24, 0x01	; 1
    4668:	90 93 69 0a 	sts	0x0A69, r25
    466c:	80 93 68 0a 	sts	0x0A68, r24
			if(m_rPara.para.manual_vel < m_rPara.para.min_vel)
    4670:	20 91 5e 0a 	lds	r18, 0x0A5E
    4674:	30 91 5f 0a 	lds	r19, 0x0A5F
    4678:	82 17       	cp	r24, r18
    467a:	93 07       	cpc	r25, r19
    467c:	20 f4       	brcc	.+8      	; 0x4686 <key_down_handling+0x7a>
			{
				m_rPara.para.manual_vel=m_rPara.para.min_vel;
    467e:	30 93 69 0a 	sts	0x0A69, r19
    4682:	20 93 68 0a 	sts	0x0A68, r18
			}
			//记录转速值
			eeprom_write_word_user((uint16_t *)&m_ePara[0].para.manual_vel,m_rPara.para.manual_vel);
    4686:	60 91 68 0a 	lds	r22, 0x0A68
    468a:	70 91 69 0a 	lds	r23, 0x0A69
    468e:	80 e1       	ldi	r24, 0x10	; 16
    4690:	91 e0       	ldi	r25, 0x01	; 1
    4692:	0c 94 d3 10 	jmp	0x21a6	; 0x21a6 <eeprom_write_word_user>
		#endif
	}
	else
	{
		//参数设置模式
		set_idle_wait=0;
    4696:	10 92 de 0a 	sts	0x0ADE, r1
		if(1 == bit_setmode_2)
    469a:	90 91 c9 0a 	lds	r25, 0x0AC9
    469e:	80 91 b8 0a 	lds	r24, 0x0AB8
    46a2:	91 30       	cpi	r25, 0x01	; 1
    46a4:	09 f0       	breq	.+2      	; 0x46a8 <key_down_handling+0x9c>
    46a6:	4d c0       	rjmp	.+154    	; 0x4742 <key_down_handling+0x136>
		{
			//内部参数
			switch(pagenumber)
    46a8:	90 e0       	ldi	r25, 0x00	; 0
    46aa:	fc 01       	movw	r30, r24
    46ac:	31 97       	sbiw	r30, 0x01	; 1
    46ae:	e7 30       	cpi	r30, 0x07	; 7
    46b0:	f1 05       	cpc	r31, r1
    46b2:	08 f0       	brcs	.+2      	; 0x46b6 <key_down_handling+0xaa>
    46b4:	1e c1       	rjmp	.+572    	; 0x48f2 <key_down_handling+0x2e6>
    46b6:	e9 58       	subi	r30, 0x89	; 137
    46b8:	ff 4f       	sbci	r31, 0xFF	; 255
    46ba:	0c 94 6c 37 	jmp	0x6ed8	; 0x6ed8 <__tablejump2__>
					*/
				}
				break;
				case 1://上电远控与上电键盘控制选择. 1:上电远控  2:上电键盘控制
				{
					if(2==m_rPara.para.is_remote)
    46be:	80 91 63 0a 	lds	r24, 0x0A63
    46c2:	82 30       	cpi	r24, 0x02	; 2
    46c4:	11 f4       	brne	.+4      	; 0x46ca <key_down_handling+0xbe>
					{
						m_rPara.para.is_remote=1;
    46c6:	81 e0       	ldi	r24, 0x01	; 1
    46c8:	01 c0       	rjmp	.+2      	; 0x46cc <key_down_handling+0xc0>
					}
					else
					{
						m_rPara.para.is_remote=2;
    46ca:	82 e0       	ldi	r24, 0x02	; 2
    46cc:	80 93 63 0a 	sts	0x0A63, r24
    46d0:	08 95       	ret
					}
				}
				break;
				case 2://主电机过载保护停机电流 (额定电流的100%-200%)
				{
					m_rPara.para.mm_cur_overflow--;
    46d2:	80 91 64 0a 	lds	r24, 0x0A64
    46d6:	81 50       	subi	r24, 0x01	; 1
    46d8:	80 93 64 0a 	sts	0x0A64, r24
					if(m_rPara.para.mm_cur_overflow < 100)
    46dc:	84 36       	cpi	r24, 0x64	; 100
    46de:	08 f0       	brcs	.+2      	; 0x46e2 <key_down_handling+0xd6>
    46e0:	08 c1       	rjmp	.+528    	; 0x48f2 <key_down_handling+0x2e6>
					{
						m_rPara.para.mm_cur_overflow=100;
    46e2:	84 e6       	ldi	r24, 0x64	; 100
    46e4:	80 93 64 0a 	sts	0x0A64, r24
    46e8:	08 95       	ret
					}
				}
				break;
				case 3://是否根据主电机电流进行连锁控制   0:连锁控制  1:不连锁控制
				{
					if(1==m_rPara.para.mm_control)
    46ea:	80 91 65 0a 	lds	r24, 0x0A65
    46ee:	81 30       	cpi	r24, 0x01	; 1
    46f0:	09 f0       	breq	.+2      	; 0x46f4 <key_down_handling+0xe8>
    46f2:	ff c0       	rjmp	.+510    	; 0x48f2 <key_down_handling+0x2e6>
					{
						m_rPara.para.mm_control=0;
    46f4:	10 92 65 0a 	sts	0x0A65, r1
    46f8:	08 95       	ret
					}
				}
				break;
				case 4://电流传感器量程(10-90A),主电机电流
				{
					m_rPara.para.cur1_full--;
    46fa:	80 91 66 0a 	lds	r24, 0x0A66
    46fe:	81 50       	subi	r24, 0x01	; 1
    4700:	80 93 66 0a 	sts	0x0A66, r24
					if(m_rPara.para.cur1_full < 10)
    4704:	8a 30       	cpi	r24, 0x0A	; 10
    4706:	08 f0       	brcs	.+2      	; 0x470a <key_down_handling+0xfe>
    4708:	f4 c0       	rjmp	.+488    	; 0x48f2 <key_down_handling+0x2e6>
					{
						m_rPara.para.cur1_full=10;
    470a:	8a e0       	ldi	r24, 0x0A	; 10
    470c:	80 93 66 0a 	sts	0x0A66, r24
    4710:	08 95       	ret
					}
				}
				break;
				case 5://低料位
				{
					m_cgq_cmd=DILIAOWEI;
    4712:	85 e3       	ldi	r24, 0x35	; 53
    4714:	80 93 48 0b 	sts	0x0B48, r24
				}
				break;
    4718:	08 95       	ret
				case 6://选择料位采集信号	  1:485+AD 2:485 3:LC（集成传感器） 4:AD
				{
					if(m_rPara.para.material_port > MATERIAL_PORT_RS485_AD)
    471a:	80 91 67 0a 	lds	r24, 0x0A67
    471e:	82 30       	cpi	r24, 0x02	; 2
    4720:	10 f0       	brcs	.+4      	; 0x4726 <key_down_handling+0x11a>
					{
						m_rPara.para.material_port--;
    4722:	81 50       	subi	r24, 0x01	; 1
    4724:	01 c0       	rjmp	.+2      	; 0x4728 <key_down_handling+0x11c>
					}
					else
					{
						m_rPara.para.material_port = MATERIAL_PORT_ONLY_AD;
    4726:	83 e0       	ldi	r24, 0x03	; 3
    4728:	80 93 67 0a 	sts	0x0A67, r24
    472c:	08 95       	ret
					}
				}
				break;
				case 7://MB与转速之间的关系
				{
					if(m_rPara.para.mb_div > 1)
    472e:	80 91 76 0a 	lds	r24, 0x0A76
    4732:	82 30       	cpi	r24, 0x02	; 2
    4734:	10 f0       	brcs	.+4      	; 0x473a <key_down_handling+0x12e>
					{
						m_rPara.para.mb_div--;
    4736:	81 50       	subi	r24, 0x01	; 1
    4738:	01 c0       	rjmp	.+2      	; 0x473c <key_down_handling+0x130>
					}
					else
					{
						m_rPara.para.mb_div = 99;
    473a:	83 e6       	ldi	r24, 0x63	; 99
    473c:	80 93 76 0a 	sts	0x0A76, r24
    4740:	08 95       	ret
				}
				break;
				#endif 
			}
		}
		else if(1 == bit_setmode_password)
    4742:	30 91 cb 0a 	lds	r19, 0x0ACB
    4746:	31 30       	cpi	r19, 0x01	; 1
    4748:	59 f4       	brne	.+22     	; 0x4760 <key_down_handling+0x154>
		{
			//输入密码（密码设置阶段）
			password[pagenumber]--;
    474a:	e8 2f       	mov	r30, r24
    474c:	f0 e0       	ldi	r31, 0x00	; 0
    474e:	e1 5b       	subi	r30, 0xB1	; 177
    4750:	f5 4f       	sbci	r31, 0xF5	; 245
    4752:	20 81       	ld	r18, Z
    4754:	21 50       	subi	r18, 0x01	; 1
    4756:	20 83       	st	Z, r18
			if(password[pagenumber] < 1)
    4758:	21 11       	cpse	r18, r1
    475a:	cb c0       	rjmp	.+406    	; 0x48f2 <key_down_handling+0x2e6>
			{
				password[pagenumber]=1;
    475c:	30 83       	st	Z, r19
    475e:	08 95       	ret
			}
		}
		else if(1 == bit_setmode_delay)
    4760:	90 91 c4 0a 	lds	r25, 0x0AC4
    4764:	91 30       	cpi	r25, 0x01	; 1
    4766:	c9 f4       	brne	.+50     	; 0x479a <key_down_handling+0x18e>
		{
			switch(pagenumber)
    4768:	81 11       	cpse	r24, r1
    476a:	c3 c0       	rjmp	.+390    	; 0x48f2 <key_down_handling+0x2e6>
			{
				case 0:
				{
					//限时参数
					//限时时间,天
					limited_days--;
    476c:	80 91 65 0b 	lds	r24, 0x0B65
    4770:	90 91 66 0b 	lds	r25, 0x0B66
    4774:	01 97       	sbiw	r24, 0x01	; 1
    4776:	90 93 66 0b 	sts	0x0B66, r25
    477a:	80 93 65 0b 	sts	0x0B65, r24
					if(limited_days < 1)
    477e:	80 91 65 0b 	lds	r24, 0x0B65
    4782:	90 91 66 0b 	lds	r25, 0x0B66
    4786:	89 2b       	or	r24, r25
    4788:	09 f0       	breq	.+2      	; 0x478c <key_down_handling+0x180>
    478a:	b3 c0       	rjmp	.+358    	; 0x48f2 <key_down_handling+0x2e6>
					{
						limited_days=1;
    478c:	81 e0       	ldi	r24, 0x01	; 1
    478e:	90 e0       	ldi	r25, 0x00	; 0
    4790:	90 93 66 0b 	sts	0x0B66, r25
    4794:	80 93 65 0b 	sts	0x0B65, r24
    4798:	08 95       	ret
					}
				}
				break;
			}
		}
		else if(1 == bit_setmode_3)
    479a:	90 91 aa 0a 	lds	r25, 0x0AAA
    479e:	91 30       	cpi	r25, 0x01	; 1
    47a0:	09 f0       	breq	.+2      	; 0x47a4 <key_down_handling+0x198>
    47a2:	55 c0       	rjmp	.+170    	; 0x484e <key_down_handling+0x242>
		{
			//密码保护的参数
			switch(pagenumber)
    47a4:	90 e0       	ldi	r25, 0x00	; 0
    47a6:	87 30       	cpi	r24, 0x07	; 7
    47a8:	91 05       	cpc	r25, r1
    47aa:	08 f0       	brcs	.+2      	; 0x47ae <key_down_handling+0x1a2>
    47ac:	a2 c0       	rjmp	.+324    	; 0x48f2 <key_down_handling+0x2e6>
    47ae:	fc 01       	movw	r30, r24
    47b0:	e2 58       	subi	r30, 0x82	; 130
    47b2:	ff 4f       	sbci	r31, 0xFF	; 255
    47b4:	0c 94 6c 37 	jmp	0x6ed8	; 0x6ed8 <__tablejump2__>
			{
				case 0://启动料位值
				{
					m_rPara.para.material_start--;
    47b8:	80 91 6d 0a 	lds	r24, 0x0A6D
    47bc:	81 50       	subi	r24, 0x01	; 1
    47be:	80 93 6d 0a 	sts	0x0A6D, r24
					if(m_rPara.para.material_start < 30)
    47c2:	8e 31       	cpi	r24, 0x1E	; 30
    47c4:	08 f0       	brcs	.+2      	; 0x47c8 <key_down_handling+0x1bc>
    47c6:	95 c0       	rjmp	.+298    	; 0x48f2 <key_down_handling+0x2e6>
					{
						m_rPara.para.material_start=30;
    47c8:	8e e1       	ldi	r24, 0x1E	; 30
    47ca:	80 93 6d 0a 	sts	0x0A6D, r24
    47ce:	08 95       	ret
					}
				}
				break;
				case 1://停机料位值
				{
					m_rPara.para.material_stop--;
    47d0:	80 91 6e 0a 	lds	r24, 0x0A6E
    47d4:	81 50       	subi	r24, 0x01	; 1
    47d6:	80 93 6e 0a 	sts	0x0A6E, r24
					if(m_rPara.para.material_stop < 80)
    47da:	80 35       	cpi	r24, 0x50	; 80
    47dc:	08 f0       	brcs	.+2      	; 0x47e0 <key_down_handling+0x1d4>
    47de:	89 c0       	rjmp	.+274    	; 0x48f2 <key_down_handling+0x2e6>
					{
						m_rPara.para.material_stop=80;
    47e0:	80 e5       	ldi	r24, 0x50	; 80
    47e2:	80 93 6e 0a 	sts	0x0A6E, r24
    47e6:	08 95       	ret
					}
				}
				break;
				case 2://电流修正值
				{
					m_rPara.para.current1_modify--;
    47e8:	80 91 6f 0a 	lds	r24, 0x0A6F
    47ec:	81 50       	subi	r24, 0x01	; 1
    47ee:	80 93 6f 0a 	sts	0x0A6F, r24
					if(m_rPara.para.current1_modify < 70)
    47f2:	86 34       	cpi	r24, 0x46	; 70
    47f4:	08 f0       	brcs	.+2      	; 0x47f8 <key_down_handling+0x1ec>
    47f6:	7d c0       	rjmp	.+250    	; 0x48f2 <key_down_handling+0x2e6>
					{
						m_rPara.para.current1_modify=70;
    47f8:	86 e4       	ldi	r24, 0x46	; 70
    47fa:	80 93 6f 0a 	sts	0x0A6F, r24
    47fe:	08 95       	ret
					}
				}
				break;
				case 3://MODBUS通信从机地址
				{
					if(m_rPara.para.addr_modbus > 2)
    4800:	80 91 72 0a 	lds	r24, 0x0A72
    4804:	83 30       	cpi	r24, 0x03	; 3
    4806:	08 f4       	brcc	.+2      	; 0x480a <key_down_handling+0x1fe>
    4808:	74 c0       	rjmp	.+232    	; 0x48f2 <key_down_handling+0x2e6>
					{
						m_rPara.para.addr_modbus--;
    480a:	81 50       	subi	r24, 0x01	; 1
    480c:	80 93 72 0a 	sts	0x0A72, r24
    4810:	08 95       	ret
					}
				}
				break;
				case 4://MODBUS通信波特率
				{
					if(m_rPara.para.baud_modbus > MODBUS_BAUD_9600)
    4812:	80 91 73 0a 	lds	r24, 0x0A73
    4816:	82 30       	cpi	r24, 0x02	; 2
    4818:	10 f0       	brcs	.+4      	; 0x481e <key_down_handling+0x212>
					{
						m_rPara.para.baud_modbus--;
    481a:	81 50       	subi	r24, 0x01	; 1
    481c:	01 c0       	rjmp	.+2      	; 0x4820 <key_down_handling+0x214>
					}
					else
					{
						m_rPara.para.baud_modbus = MODBUS_BAUD_38400;
    481e:	83 e0       	ldi	r24, 0x03	; 3
    4820:	80 93 73 0a 	sts	0x0A73, r24
    4824:	08 95       	ret
				}
				break;
				case 5:
				{
					//MB输入选择（1：电平，2：脉冲）
					if(MB_LEVEL == m_rPara.para.mb_level_pulse)
    4826:	80 91 74 0a 	lds	r24, 0x0A74
    482a:	81 30       	cpi	r24, 0x01	; 1
    482c:	11 f4       	brne	.+4      	; 0x4832 <key_down_handling+0x226>
					{
						m_rPara.para.mb_level_pulse = MB_PULSE;
    482e:	82 e0       	ldi	r24, 0x02	; 2
    4830:	01 c0       	rjmp	.+2      	; 0x4834 <key_down_handling+0x228>
					}
					else
					{
						m_rPara.para.mb_level_pulse = MB_LEVEL;
    4832:	81 e0       	ldi	r24, 0x01	; 1
    4834:	80 93 74 0a 	sts	0x0A74, r24
    4838:	08 95       	ret
				}
				break;
				case 6:
				{
					//DW输入选择（1：电平，2：脉冲）
					if(DW_LEVEL == m_rPara.para.dw_level_pulse)
    483a:	80 91 75 0a 	lds	r24, 0x0A75
    483e:	81 30       	cpi	r24, 0x01	; 1
    4840:	11 f4       	brne	.+4      	; 0x4846 <key_down_handling+0x23a>
					{
						m_rPara.para.dw_level_pulse = DW_PULSE;
    4842:	82 e0       	ldi	r24, 0x02	; 2
    4844:	01 c0       	rjmp	.+2      	; 0x4848 <key_down_handling+0x23c>
					}
					else
					{
						m_rPara.para.dw_level_pulse = DW_LEVEL;
    4846:	81 e0       	ldi	r24, 0x01	; 1
    4848:	80 93 75 0a 	sts	0x0A75, r24
    484c:	08 95       	ret
			}
		}
		else
		{
			//外部参数
			switch(pagenumber)
    484e:	82 30       	cpi	r24, 0x02	; 2
    4850:	79 f1       	breq	.+94     	; 0x48b0 <key_down_handling+0x2a4>
    4852:	28 f4       	brcc	.+10     	; 0x485e <key_down_handling+0x252>
    4854:	88 23       	and	r24, r24
    4856:	41 f0       	breq	.+16     	; 0x4868 <key_down_handling+0x25c>
    4858:	81 30       	cpi	r24, 0x01	; 1
    485a:	c1 f0       	breq	.+48     	; 0x488c <key_down_handling+0x280>
    485c:	08 95       	ret
    485e:	83 30       	cpi	r24, 0x03	; 3
    4860:	91 f1       	breq	.+100    	; 0x48c6 <key_down_handling+0x2ba>
    4862:	85 30       	cpi	r24, 0x05	; 5
    4864:	d9 f1       	breq	.+118    	; 0x48dc <key_down_handling+0x2d0>
    4866:	08 95       	ret
			{
				case 0://最高转速(40-300)
				{
					m_rPara.para.max_vel--;
    4868:	80 91 5c 0a 	lds	r24, 0x0A5C
    486c:	90 91 5d 0a 	lds	r25, 0x0A5D
    4870:	01 97       	sbiw	r24, 0x01	; 1
    4872:	90 93 5d 0a 	sts	0x0A5D, r25
    4876:	80 93 5c 0a 	sts	0x0A5C, r24
					if(m_rPara.para.max_vel < MIN_VEL)
    487a:	88 97       	sbiw	r24, 0x28	; 40
    487c:	d0 f5       	brcc	.+116    	; 0x48f2 <key_down_handling+0x2e6>
					{
						m_rPara.para.max_vel=MIN_VEL;
    487e:	88 e2       	ldi	r24, 0x28	; 40
    4880:	90 e0       	ldi	r25, 0x00	; 0
    4882:	90 93 5d 0a 	sts	0x0A5D, r25
    4886:	80 93 5c 0a 	sts	0x0A5C, r24
    488a:	08 95       	ret
					}
				}
				break;
				case 1://最低转速(40-300)
				{
					m_rPara.para.min_vel--;
    488c:	80 91 5e 0a 	lds	r24, 0x0A5E
    4890:	90 91 5f 0a 	lds	r25, 0x0A5F
    4894:	01 97       	sbiw	r24, 0x01	; 1
    4896:	90 93 5f 0a 	sts	0x0A5F, r25
    489a:	80 93 5e 0a 	sts	0x0A5E, r24
					if(m_rPara.para.min_vel < MIN_VEL)
    489e:	88 97       	sbiw	r24, 0x28	; 40
    48a0:	40 f5       	brcc	.+80     	; 0x48f2 <key_down_handling+0x2e6>
					{
						m_rPara.para.min_vel=MIN_VEL;
    48a2:	88 e2       	ldi	r24, 0x28	; 40
    48a4:	90 e0       	ldi	r25, 0x00	; 0
    48a6:	90 93 5f 0a 	sts	0x0A5F, r25
    48aa:	80 93 5e 0a 	sts	0x0A5E, r24
    48ae:	08 95       	ret
					}
				}
				break;
				case 2://主电机额定电流(10-100A)
				{
					m_rPara.para.mmotor_cur1--;
    48b0:	80 91 60 0a 	lds	r24, 0x0A60
    48b4:	81 50       	subi	r24, 0x01	; 1
    48b6:	80 93 60 0a 	sts	0x0A60, r24
					if(m_rPara.para.mmotor_cur1 < 10)
    48ba:	8a 30       	cpi	r24, 0x0A	; 10
    48bc:	d0 f4       	brcc	.+52     	; 0x48f2 <key_down_handling+0x2e6>
					{
						m_rPara.para.mmotor_cur1=10;
    48be:	8a e0       	ldi	r24, 0x0A	; 10
    48c0:	80 93 60 0a 	sts	0x0A60, r24
    48c4:	08 95       	ret
					}
				}
				break;
				case 3://合轧延时时间(0.2-20s)
				{
					m_rPara.para.rollin_delay--;
    48c6:	80 91 61 0a 	lds	r24, 0x0A61
    48ca:	81 50       	subi	r24, 0x01	; 1
    48cc:	80 93 61 0a 	sts	0x0A61, r24
					if(m_rPara.para.rollin_delay < 2)
    48d0:	82 30       	cpi	r24, 0x02	; 2
    48d2:	78 f4       	brcc	.+30     	; 0x48f2 <key_down_handling+0x2e6>
					{
						m_rPara.para.rollin_delay=2;
    48d4:	82 e0       	ldi	r24, 0x02	; 2
    48d6:	80 93 61 0a 	sts	0x0A61, r24
    48da:	08 95       	ret
					//总停机日志数据
				}
				break;
				case 5://恢复默认参数
				{
					if(set_default > 0)
    48dc:	80 91 a8 0a 	lds	r24, 0x0AA8
    48e0:	88 23       	and	r24, r24
    48e2:	21 f0       	breq	.+8      	; 0x48ec <key_down_handling+0x2e0>
					{
						set_default--;
    48e4:	80 91 a8 0a 	lds	r24, 0x0AA8
    48e8:	81 50       	subi	r24, 0x01	; 1
    48ea:	01 c0       	rjmp	.+2      	; 0x48ee <key_down_handling+0x2e2>
					}
					else
					{
						set_default = 99;
    48ec:	83 e6       	ldi	r24, 0x63	; 99
    48ee:	80 93 a8 0a 	sts	0x0AA8, r24
    48f2:	08 95       	ret

000048f4 <deal_key>:
    }

}
unsigned char set_date= 0;
void deal_key(unsigned char key_value)
{
    48f4:	ff 92       	push	r15
    48f6:	0f 93       	push	r16
    48f8:	1f 93       	push	r17
    48fa:	cf 93       	push	r28
    48fc:	df 93       	push	r29
		}
		//
		memset(key_status,KEY_OFF,20);
	*/
		//
		if(1 == bit_remote)
    48fe:	90 91 40 0b 	lds	r25, 0x0B40
    4902:	91 30       	cpi	r25, 0x01	; 1
    4904:	09 f0       	breq	.+2      	; 0x4908 <deal_key+0x14>
    4906:	44 c0       	rjmp	.+136    	; 0x4990 <deal_key+0x9c>
		{
			//远控模式
			switch(key_value)
    4908:	8e 32       	cpi	r24, 0x2E	; 46
    490a:	99 f1       	breq	.+102    	; 0x4972 <deal_key+0x7e>
    490c:	90 f4       	brcc	.+36     	; 0x4932 <deal_key+0x3e>
    490e:	89 32       	cpi	r24, 0x29	; 41
    4910:	d1 f0       	breq	.+52     	; 0x4946 <deal_key+0x52>
    4912:	8c 32       	cpi	r24, 0x2C	; 44
    4914:	09 f0       	breq	.+2      	; 0x4918 <deal_key+0x24>
    4916:	a8 c4       	rjmp	.+2384   	; 0x5268 <deal_key+0x974>
					modbus_status.status.m_yk = STATUS_OFF;
				}
				break;
				case KEY_JS://磨辊离轧2014.6.6修改为解锁键
				{
					key_status[STATUS_JS_POS] = KEY_ON;
    4918:	90 93 25 0e 	sts	0x0E25, r25
					//

						bit_lock=1;
    491c:	90 93 08 0b 	sts	0x0B08, r25
					    brolllock = 1;
    4920:	44 9a       	sbi	0x08, 4	; 8
 						//
						roll_lock();
    4922:	0e 94 15 0b 	call	0x162a	; 0x162a <roll_lock>
						bit_led_lz = 1;
    4926:	80 91 70 0b 	lds	r24, 0x0B70
    492a:	80 64       	ori	r24, 0x40	; 64
    492c:	80 93 70 0b 	sts	0x0B70, r24


				}
				break;
    4930:	9b c4       	rjmp	.+2358   	; 0x5268 <deal_key+0x974>
	*/
		//
		if(1 == bit_remote)
		{
			//远控模式
			switch(key_value)
    4932:	80 39       	cpi	r24, 0x90	; 144
    4934:	91 f0       	breq	.+36     	; 0x495a <deal_key+0x66>
    4936:	8b 3c       	cpi	r24, 0xCB	; 203
    4938:	09 f0       	breq	.+2      	; 0x493c <deal_key+0x48>
    493a:	96 c4       	rjmp	.+2348   	; 0x5268 <deal_key+0x974>
					//eeprom_write_byte_user(&m_ePara[0].para.all_stop_id, m_rPara.para.all_stop_id);
				}
				break;
				case KEY_CJ_TEMP://停机
				{
					key_status[STATUS_TJ_POS] = KEY_ON;
    493c:	90 93 20 0e 	sts	0x0E20, r25
					tempe_flag = 1;
    4940:	90 93 0d 08 	sts	0x080D, r25
					//

				}
				break;
    4944:	91 c4       	rjmp	.+2338   	; 0x5268 <deal_key+0x974>
			//远控模式
			switch(key_value)
			{
				case KEY_TJ://停机
				{
					key_status[STATUS_TJ_POS] = KEY_ON;
    4946:	90 93 20 0e 	sts	0x0E20, r25
					//
					bit_remote=0;//退出远控模式,不改变磨辊运行状态
    494a:	10 92 40 0b 	sts	0x0B40, r1
					modbus_status.status.m_yk = STATUS_OFF;
    494e:	80 91 19 0d 	lds	r24, 0x0D19
    4952:	8e 7f       	andi	r24, 0xFE	; 254
    4954:	80 93 19 0d 	sts	0x0D19, r24
				}
				break;
    4958:	87 c4       	rjmp	.+2318   	; 0x5268 <deal_key+0x974>
				}
				break;

				case KEY_SJ://磨辊离轧2014.6.6修改为解锁键
				{
					key_status[STATUS_JS_POS] = KEY_ON;
    495a:	90 93 25 0e 	sts	0x0E25, r25
					//
						bit_lock=0;
    495e:	10 92 08 0b 	sts	0x0B08, r1
					    brolllock = 0;
    4962:	44 98       	cbi	0x08, 4	; 8
				bit_monitor_mode = 0;
				bit_alarm_mode = 0;
			}
		}
	}
}
    4964:	df 91       	pop	r29
    4966:	cf 91       	pop	r28
    4968:	1f 91       	pop	r17
    496a:	0f 91       	pop	r16
    496c:	ff 90       	pop	r15
					key_status[STATUS_JS_POS] = KEY_ON;
					//
						bit_lock=0;
					    brolllock = 0;
						//
						roll_unlock();
    496e:	0c 94 1b 0b 	jmp	0x1636	; 0x1636 <roll_unlock>
				}
				break;
				
				case KEY_ZTJ://总停机
				{
					key_status[STATUS_ZTJ_POS] = KEY_ON;
    4972:	90 93 26 0e 	sts	0x0E26, r25
					//
					bit_remote=0;//退出远控模式,并执行总停机
    4976:	10 92 40 0b 	sts	0x0B40, r1
					modbus_status.status.m_yk = STATUS_OFF;
    497a:	80 91 19 0d 	lds	r24, 0x0D19
    497e:	8e 7f       	andi	r24, 0xFE	; 254
    4980:	80 93 19 0d 	sts	0x0D19, r24
					all_stop();//远控模式下执行总停机
    4984:	0e 94 4d 0b 	call	0x169a	; 0x169a <all_stop>
					m_rPara.para.all_stop_id = 5;
    4988:	85 e0       	ldi	r24, 0x05	; 5
    498a:	80 93 6c 0a 	sts	0x0A6C, r24
					//eeprom_write_byte_user(&m_ePara[0].para.all_stop_id, m_rPara.para.all_stop_id);
				}
				break;
    498e:	6c c4       	rjmp	.+2264   	; 0x5268 <deal_key+0x974>
			}
		}
		else
		{
			//键盘模式,非设置状态
			switch(key_value)
    4990:	90 e0       	ldi	r25, 0x00	; 0
    4992:	fc 01       	movw	r30, r24
    4994:	b8 97       	sbiw	r30, 0x28	; 40
    4996:	e6 3a       	cpi	r30, 0xA6	; 166
    4998:	f1 05       	cpc	r31, r1
    499a:	08 f0       	brcs	.+2      	; 0x499e <deal_key+0xaa>
    499c:	56 c4       	rjmp	.+2220   	; 0x524a <deal_key+0x956>
    499e:	eb 57       	subi	r30, 0x7B	; 123
    49a0:	ff 4f       	sbci	r31, 0xFF	; 255
    49a2:	0c 94 6c 37 	jmp	0x6ed8	; 0x6ed8 <__tablejump2__>
					key_cssd_handling();
				}
				break;*/
				case KEY_ZDJQD://主电机启动
				{
					key_status[STATUS_ZDJQ_POS] = KEY_ON;
    49a6:	81 e0       	ldi	r24, 0x01	; 1
    49a8:	80 93 1b 0e 	sts	0x0E1B, r24
					//
					//li_he_zha = 0;

                    TRACE_STRING("set zhu dian ji qi dong ");
    49ac:	68 e1       	ldi	r22, 0x18	; 24
    49ae:	8b ef       	ldi	r24, 0xFB	; 251
    49b0:	96 e0       	ldi	r25, 0x06	; 6
    49b2:	0e 94 20 2b 	call	0x5640	; 0x5640 <send_uart1_to_computer>
					if(0==bit_mmotor)
    49b6:	80 91 43 0b 	lds	r24, 0x0B43
    49ba:	81 11       	cpse	r24, r1
    49bc:	46 c4       	rjmp	.+2188   	; 0x524a <deal_key+0x956>
					{
                         TRACE_STRING("set zhu dian ji qi dong2 ");
    49be:	69 e1       	ldi	r22, 0x19	; 25
    49c0:	84 e1       	ldi	r24, 0x14	; 20
    49c2:	97 e0       	ldi	r25, 0x07	; 7
    49c4:	0e 94 20 2b 	call	0x5640	; 0x5640 <send_uart1_to_computer>
                        roll_out();
    49c8:	0e 94 00 0b 	call	0x1600	; 0x1600 <roll_out>
						mmotor_start();
    49cc:	0e 94 d6 0a 	call	0x15ac	; 0x15ac <mmotor_start>
    49d0:	3c c4       	rjmp	.+2168   	; 0x524a <deal_key+0x956>
					}
				}
				break;
				case KEY_JS://磨辊离轧2014.6.6修改为解锁键
				{
					key_status[STATUS_JS_POS] = KEY_ON;
    49d2:	81 e0       	ldi	r24, 0x01	; 1
    49d4:	80 93 25 0e 	sts	0x0E25, r24
					//

					//li_he_zha = 0;

					bit_lock=1;
    49d8:	80 93 08 0b 	sts	0x0B08, r24
					brolllock = 1;
    49dc:	44 9a       	sbi	0x08, 4	; 8
					//
					roll_lock();
    49de:	0e 94 15 0b 	call	0x162a	; 0x162a <roll_lock>
					bit_led_lz = 1;
    49e2:	80 91 70 0b 	lds	r24, 0x0B70
    49e6:	80 64       	ori	r24, 0x40	; 64
    49e8:	0b c0       	rjmp	.+22     	; 0x4a00 <deal_key+0x10c>
				}
				break;

				case KEY_SJ://磨辊离轧2014.6.6修改为解锁键
				{
					key_status[STATUS_JS_POS] = KEY_ON;
    49ea:	81 e0       	ldi	r24, 0x01	; 1
    49ec:	80 93 25 0e 	sts	0x0E25, r24
					//
	
					bit_lock=0;
    49f0:	10 92 08 0b 	sts	0x0B08, r1
					brolllock = 0;
    49f4:	44 98       	cbi	0x08, 4	; 8
					//
					roll_unlock();
    49f6:	0e 94 1b 0b 	call	0x1636	; 0x1636 <roll_unlock>
					bit_led_lz = 0;
    49fa:	80 91 70 0b 	lds	r24, 0x0B70
    49fe:	8f 7b       	andi	r24, 0xBF	; 191
    4a00:	80 93 70 0b 	sts	0x0B70, r24


				}
				break;
    4a04:	22 c4       	rjmp	.+2116   	; 0x524a <deal_key+0x956>
				case KEY_ZDYX://自动运行
				{
					key_status[STATUS_ZD_POS] = KEY_ON;
    4a06:	81 e0       	ldi	r24, 0x01	; 1
    4a08:	80 93 1c 0e 	sts	0x0E1C, r24
					//
					  
					if(1==bit_mmotor)
    4a0c:	80 91 43 0b 	lds	r24, 0x0B43
    4a10:	81 30       	cpi	r24, 0x01	; 1
    4a12:	09 f0       	breq	.+2      	; 0x4a16 <deal_key+0x122>
    4a14:	1a c4       	rjmp	.+2100   	; 0x524a <deal_key+0x956>
					{
						key_auto_run();
    4a16:	0e 94 50 15 	call	0x2aa0	; 0x2aa0 <key_auto_run>
    4a1a:	17 c4       	rjmp	.+2094   	; 0x524a <deal_key+0x956>
					}
				}
				break;
				case KEY_MGLZHZ://磨辊合轧2014.6.6修改为离合闸复用
				{
					key_status[STATUS_LHZ_POS] = KEY_ON;
    4a1c:	81 e0       	ldi	r24, 0x01	; 1
    4a1e:	80 93 1f 0e 	sts	0x0E1F, r24
					//
					if((0==bit_mmotor)||(1==bit_manual))
    4a22:	80 91 43 0b 	lds	r24, 0x0B43
    4a26:	88 23       	and	r24, r24
    4a28:	29 f0       	breq	.+10     	; 0x4a34 <deal_key+0x140>
    4a2a:	80 91 fe 0a 	lds	r24, 0x0AFE
    4a2e:	81 30       	cpi	r24, 0x01	; 1
    4a30:	09 f0       	breq	.+2      	; 0x4a34 <deal_key+0x140>
    4a32:	0b c4       	rjmp	.+2070   	; 0x524a <deal_key+0x956>
					{
						li_he_zha = 0;
    4a34:	10 92 6a 08 	sts	0x086A, r1
    4a38:	10 92 69 08 	sts	0x0869, r1
						if(0==bit_roll_in)
    4a3c:	80 91 b7 0a 	lds	r24, 0x0AB7
    4a40:	81 11       	cpse	r24, r1
    4a42:	06 c0       	rjmp	.+12     	; 0x4a50 <deal_key+0x15c>
						{
							bit_roll_in=1;
    4a44:	81 e0       	ldi	r24, 0x01	; 1
    4a46:	80 93 b7 0a 	sts	0x0AB7, r24
							roll_in();
    4a4a:	0e 94 eb 0a 	call	0x15d6	; 0x15d6 <roll_in>
    4a4e:	fd c3       	rjmp	.+2042   	; 0x524a <deal_key+0x956>
						}
						else
						{
							bit_roll_in=0;
    4a50:	10 92 b7 0a 	sts	0x0AB7, r1
							roll_out();
    4a54:	0e 94 00 0b 	call	0x1600	; 0x1600 <roll_out>
    4a58:	f8 c3       	rjmp	.+2032   	; 0x524a <deal_key+0x956>
				}
				break;
                // add by zan
                case KEY_ZUO_WEI_JIA://磨辊合轧2014.6.6修改为离合闸复用
				{
					key_status[STATUS_LHZ_POS] = KEY_ON;
    4a5a:	81 e0       	ldi	r24, 0x01	; 1
    4a5c:	80 93 1f 0e 	sts	0x0E1F, r24
					//
					//set_idle_wait = 0;
					zan_count  =0;
    4a60:	10 92 6c 08 	sts	0x086C, r1
    4a64:	10 92 6b 08 	sts	0x086B, r1
                        //while (zan_count < zan_count_max);

                        delay(zan_count_max);
                        brollin = 0;
                        */
                        if (li_he_zha == 0)
    4a68:	80 91 69 08 	lds	r24, 0x0869
    4a6c:	90 91 6a 08 	lds	r25, 0x086A
    4a70:	89 2b       	or	r24, r25
    4a72:	81 f4       	brne	.+32     	; 0x4a94 <deal_key+0x1a0>
                        {
                            zuo_di +=zengliang;
    4a74:	80 91 14 0e 	lds	r24, 0x0E14
    4a78:	90 91 15 0e 	lds	r25, 0x0E15
    4a7c:	05 96       	adiw	r24, 0x05	; 5
    4a7e:	90 93 15 0e 	sts	0x0E15, r25
    4a82:	80 93 14 0e 	sts	0x0E14, r24
                            if (zuo_di >1024)
    4a86:	81 30       	cpi	r24, 0x01	; 1
    4a88:	94 40       	sbci	r25, 0x04	; 4
    4a8a:	08 f4       	brcc	.+2      	; 0x4a8e <deal_key+0x19a>
    4a8c:	de c3       	rjmp	.+1980   	; 0x524a <deal_key+0x956>
                            {
                                zuo_di = 1024;
    4a8e:	80 e0       	ldi	r24, 0x00	; 0
    4a90:	94 e0       	ldi	r25, 0x04	; 4
    4a92:	2b c0       	rjmp	.+86     	; 0x4aea <deal_key+0x1f6>
                            }
                        }
                        else
                        {
                            zuo_gao +=zengliang;
    4a94:	80 91 11 0e 	lds	r24, 0x0E11
    4a98:	90 91 12 0e 	lds	r25, 0x0E12
    4a9c:	05 96       	adiw	r24, 0x05	; 5
    4a9e:	90 93 12 0e 	sts	0x0E12, r25
    4aa2:	80 93 11 0e 	sts	0x0E11, r24
                            if (zuo_gao >1024)
    4aa6:	81 30       	cpi	r24, 0x01	; 1
    4aa8:	94 40       	sbci	r25, 0x04	; 4
    4aaa:	08 f4       	brcc	.+2      	; 0x4aae <deal_key+0x1ba>
    4aac:	ce c3       	rjmp	.+1948   	; 0x524a <deal_key+0x956>
                            {
                                zuo_gao = 1024;
    4aae:	80 e0       	ldi	r24, 0x00	; 0
    4ab0:	94 e0       	ldi	r25, 0x04	; 4
    4ab2:	2e c0       	rjmp	.+92     	; 0x4b10 <deal_key+0x21c>
					}
				}
				break;
                case KEY_ZUO_WEI_JIAN://磨辊合轧2014.6.6修改为离合闸复用
				{
					key_status[STATUS_LHZ_POS] = KEY_ON;
    4ab4:	81 e0       	ldi	r24, 0x01	; 1
    4ab6:	80 93 1f 0e 	sts	0x0E1F, r24
					//
					zan_count  =0;
    4aba:	10 92 6c 08 	sts	0x086C, r1
    4abe:	10 92 6b 08 	sts	0x086B, r1
                        /*
                        brolllock = 1;
                        //while (zan_count < zan_count_max)
                        delay(zan_count_max);
                        brolllock = 0;*/
                        if (li_he_zha == 0)
    4ac2:	80 91 69 08 	lds	r24, 0x0869
    4ac6:	90 91 6a 08 	lds	r25, 0x086A
    4aca:	89 2b       	or	r24, r25
    4acc:	99 f4       	brne	.+38     	; 0x4af4 <deal_key+0x200>
                        {
                            zuo_di -=zengliang;
    4ace:	80 91 14 0e 	lds	r24, 0x0E14
    4ad2:	90 91 15 0e 	lds	r25, 0x0E15
    4ad6:	05 97       	sbiw	r24, 0x05	; 5
    4ad8:	90 93 15 0e 	sts	0x0E15, r25
    4adc:	80 93 14 0e 	sts	0x0E14, r24
                            if (zuo_di < 20)
    4ae0:	44 97       	sbiw	r24, 0x14	; 20
    4ae2:	08 f0       	brcs	.+2      	; 0x4ae6 <deal_key+0x1f2>
    4ae4:	b2 c3       	rjmp	.+1892   	; 0x524a <deal_key+0x956>
                            {
                                zuo_di = 20;
    4ae6:	84 e1       	ldi	r24, 0x14	; 20
    4ae8:	90 e0       	ldi	r25, 0x00	; 0
    4aea:	90 93 15 0e 	sts	0x0E15, r25
    4aee:	80 93 14 0e 	sts	0x0E14, r24
    4af2:	ab c3       	rjmp	.+1878   	; 0x524a <deal_key+0x956>
                            }
                        }
                        else
                        {
                            zuo_gao -=zengliang;
    4af4:	80 91 11 0e 	lds	r24, 0x0E11
    4af8:	90 91 12 0e 	lds	r25, 0x0E12
    4afc:	05 97       	sbiw	r24, 0x05	; 5
    4afe:	90 93 12 0e 	sts	0x0E12, r25
    4b02:	80 93 11 0e 	sts	0x0E11, r24
                            if (zuo_gao  < 20)
    4b06:	44 97       	sbiw	r24, 0x14	; 20
    4b08:	08 f0       	brcs	.+2      	; 0x4b0c <deal_key+0x218>
    4b0a:	9f c3       	rjmp	.+1854   	; 0x524a <deal_key+0x956>
                            {
                                zuo_gao = 20;
    4b0c:	84 e1       	ldi	r24, 0x14	; 20
    4b0e:	90 e0       	ldi	r25, 0x00	; 0
    4b10:	90 93 12 0e 	sts	0x0E12, r25
    4b14:	80 93 11 0e 	sts	0x0E11, r24
    4b18:	98 c3       	rjmp	.+1840   	; 0x524a <deal_key+0x956>
					}
				}
				break;
                case KEY_YOU_WEI_JIA://磨辊合轧2014.6.6修改为离合闸复用
				{
                    zan_count  =0;
    4b1a:	10 92 6c 08 	sts	0x086C, r1
    4b1e:	10 92 6b 08 	sts	0x086B, r1
                    key_status[STATUS_LHZ_POS] = KEY_ON;
    4b22:	81 e0       	ldi	r24, 0x01	; 1
    4b24:	80 93 1f 0e 	sts	0x0E1F, r24
					    /*bmbby = 1;
                        //while (zan_count < zan_count_max)
              
                        delay(zan_count_max);
                        bmbby = 0;*/
                        if (li_he_zha == 0)
    4b28:	80 91 69 08 	lds	r24, 0x0869
    4b2c:	90 91 6a 08 	lds	r25, 0x086A
    4b30:	89 2b       	or	r24, r25
    4b32:	81 f4       	brne	.+32     	; 0x4b54 <deal_key+0x260>
                        {
                            you_di +=zengliang;
    4b34:	80 91 18 0e 	lds	r24, 0x0E18
    4b38:	90 91 19 0e 	lds	r25, 0x0E19
    4b3c:	05 96       	adiw	r24, 0x05	; 5
    4b3e:	90 93 19 0e 	sts	0x0E19, r25
    4b42:	80 93 18 0e 	sts	0x0E18, r24
                            if (you_di >1024)
    4b46:	81 30       	cpi	r24, 0x01	; 1
    4b48:	94 40       	sbci	r25, 0x04	; 4
    4b4a:	08 f4       	brcc	.+2      	; 0x4b4e <deal_key+0x25a>
    4b4c:	7e c3       	rjmp	.+1788   	; 0x524a <deal_key+0x956>
                            {
                                you_di = 1024;
    4b4e:	80 e0       	ldi	r24, 0x00	; 0
    4b50:	94 e0       	ldi	r25, 0x04	; 4
    4b52:	2b c0       	rjmp	.+86     	; 0x4baa <deal_key+0x2b6>
                            }
                        }
                        else
                        {
                            you_gao +=zengliang;
    4b54:	80 91 16 0e 	lds	r24, 0x0E16
    4b58:	90 91 17 0e 	lds	r25, 0x0E17
    4b5c:	05 96       	adiw	r24, 0x05	; 5
    4b5e:	90 93 17 0e 	sts	0x0E17, r25
    4b62:	80 93 16 0e 	sts	0x0E16, r24
                            if (you_gao >1024)
    4b66:	81 30       	cpi	r24, 0x01	; 1
    4b68:	94 40       	sbci	r25, 0x04	; 4
    4b6a:	08 f4       	brcc	.+2      	; 0x4b6e <deal_key+0x27a>
    4b6c:	6e c3       	rjmp	.+1756   	; 0x524a <deal_key+0x956>
                            {
                                you_gao = 1024;
    4b6e:	80 e0       	ldi	r24, 0x00	; 0
    4b70:	94 e0       	ldi	r25, 0x04	; 4
    4b72:	2e c0       	rjmp	.+92     	; 0x4bd0 <deal_key+0x2dc>
					}
				}
				break;
                case KEY_YOU_WEI_JIAN://磨辊合轧2014.6.6修改为离合闸复用
				{
					key_status[STATUS_LHZ_POS] = KEY_ON;
    4b74:	81 e0       	ldi	r24, 0x01	; 1
    4b76:	80 93 1f 0e 	sts	0x0E1F, r24
					//
					zan_count  =0;
    4b7a:	10 92 6c 08 	sts	0x086C, r1
    4b7e:	10 92 6b 08 	sts	0x086B, r1
                        /*bmmstop = 1;
                        //while (zan_count < zan_count_max)
                                               
                        delay(zan_count_max);
                        bmmstop = 0;*/
                        if (li_he_zha == 0)
    4b82:	80 91 69 08 	lds	r24, 0x0869
    4b86:	90 91 6a 08 	lds	r25, 0x086A
    4b8a:	89 2b       	or	r24, r25
    4b8c:	99 f4       	brne	.+38     	; 0x4bb4 <deal_key+0x2c0>
                        {
                            you_di -=zengliang;
    4b8e:	80 91 18 0e 	lds	r24, 0x0E18
    4b92:	90 91 19 0e 	lds	r25, 0x0E19
    4b96:	05 97       	sbiw	r24, 0x05	; 5
    4b98:	90 93 19 0e 	sts	0x0E19, r25
    4b9c:	80 93 18 0e 	sts	0x0E18, r24
                            if (you_di < 20)
    4ba0:	44 97       	sbiw	r24, 0x14	; 20
    4ba2:	08 f0       	brcs	.+2      	; 0x4ba6 <deal_key+0x2b2>
    4ba4:	52 c3       	rjmp	.+1700   	; 0x524a <deal_key+0x956>
                            {
                                you_di = 20;
    4ba6:	84 e1       	ldi	r24, 0x14	; 20
    4ba8:	90 e0       	ldi	r25, 0x00	; 0
    4baa:	90 93 19 0e 	sts	0x0E19, r25
    4bae:	80 93 18 0e 	sts	0x0E18, r24
    4bb2:	4b c3       	rjmp	.+1686   	; 0x524a <deal_key+0x956>
                            }
                        }
                        else
                        {
                            you_gao -=zengliang;
    4bb4:	80 91 16 0e 	lds	r24, 0x0E16
    4bb8:	90 91 17 0e 	lds	r25, 0x0E17
    4bbc:	05 97       	sbiw	r24, 0x05	; 5
    4bbe:	90 93 17 0e 	sts	0x0E17, r25
    4bc2:	80 93 16 0e 	sts	0x0E16, r24
                            if (you_gao  < 20)
    4bc6:	44 97       	sbiw	r24, 0x14	; 20
    4bc8:	08 f0       	brcs	.+2      	; 0x4bcc <deal_key+0x2d8>
    4bca:	3f c3       	rjmp	.+1662   	; 0x524a <deal_key+0x956>
                            {
                                you_gao = 20;
    4bcc:	84 e1       	ldi	r24, 0x14	; 20
    4bce:	90 e0       	ldi	r25, 0x00	; 0
    4bd0:	90 93 17 0e 	sts	0x0E17, r25
    4bd4:	80 93 16 0e 	sts	0x0E16, r24
    4bd8:	38 c3       	rjmp	.+1648   	; 0x524a <deal_key+0x956>
				break;


                case KEY_ZUO_LING://磨辊合轧2014.6.6修改为离合闸复用
				{
					key_status[STATUS_LHZ_POS] = KEY_ON;
    4bda:	81 e0       	ldi	r24, 0x01	; 1
    4bdc:	80 93 1f 0e 	sts	0x0E1F, r24
					//set_idle_wait = 0;
					//

                    m_rPara.para.zuo_ling = zuo_di;//得到采样值
    4be0:	60 91 14 0e 	lds	r22, 0x0E14
    4be4:	70 91 15 0e 	lds	r23, 0x0E15
    4be8:	70 93 91 0a 	sts	0x0A91, r23
    4bec:	60 93 90 0a 	sts	0x0A90, r22
                    //zuo_di = bD2_weiyi;
					eeprom_write_word_user((uint16_t *)&m_ePara[0].para.zuo_ling,m_rPara.para.zuo_ling);
    4bf0:	88 e3       	ldi	r24, 0x38	; 56
    4bf2:	91 e0       	ldi	r25, 0x01	; 1
    4bf4:	0e 94 d3 10 	call	0x21a6	; 0x21a6 <eeprom_write_word_user>

                   TRACE_STRING("set zuoling  =");
    4bf8:	6e e0       	ldi	r22, 0x0E	; 14
    4bfa:	8e e2       	ldi	r24, 0x2E	; 46
    4bfc:	97 e0       	ldi	r25, 0x07	; 7
    4bfe:	0e 94 20 2b 	call	0x5640	; 0x5640 <send_uart1_to_computer>
                   send_ulong_ascii(m_rPara.para.zuo_ling  ,TRUE);
    4c02:	60 91 90 0a 	lds	r22, 0x0A90
    4c06:	70 91 91 0a 	lds	r23, 0x0A91
    4c0a:	18 c0       	rjmp	.+48     	; 0x4c3c <deal_key+0x348>
				break;


                case KEY_ZUO_QI://磨辊合轧2014.6.6修改为离合闸复用
				{
					key_status[STATUS_LHZ_POS] = KEY_ON;
    4c0c:	81 e0       	ldi	r24, 0x01	; 1
    4c0e:	80 93 1f 0e 	sts	0x0E1F, r24
					//
					//set_idle_wait = 0;

                    m_rPara.para.zuo_qi =  zuo_gao;//得到采样值
    4c12:	60 91 11 0e 	lds	r22, 0x0E11
    4c16:	70 91 12 0e 	lds	r23, 0x0E12
    4c1a:	70 93 93 0a 	sts	0x0A93, r23
    4c1e:	60 93 92 0a 	sts	0x0A92, r22
                    //zuo_gao = bD2_weiyi;
					eeprom_write_word_user((uint16_t *)&m_ePara[0].para.zuo_qi,m_rPara.para.zuo_qi);
    4c22:	8a e3       	ldi	r24, 0x3A	; 58
    4c24:	91 e0       	ldi	r25, 0x01	; 1
    4c26:	0e 94 d3 10 	call	0x21a6	; 0x21a6 <eeprom_write_word_user>

                   TRACE_STRING("set zuoqi  =");
    4c2a:	6c e0       	ldi	r22, 0x0C	; 12
    4c2c:	8d e3       	ldi	r24, 0x3D	; 61
    4c2e:	97 e0       	ldi	r25, 0x07	; 7
    4c30:	0e 94 20 2b 	call	0x5640	; 0x5640 <send_uart1_to_computer>
                   send_ulong_ascii(m_rPara.para.zuo_qi ,TRUE);
    4c34:	60 91 92 0a 	lds	r22, 0x0A92
    4c38:	70 91 93 0a 	lds	r23, 0x0A93
    4c3c:	80 e0       	ldi	r24, 0x00	; 0
    4c3e:	90 e0       	ldi	r25, 0x00	; 0
    4c40:	41 e0       	ldi	r20, 0x01	; 1
    4c42:	0e 94 21 2b 	call	0x5642	; 0x5642 <send_ulong_ascii>

				}
				break;
    4c46:	01 c3       	rjmp	.+1538   	; 0x524a <deal_key+0x956>

                 case KEY_YOU_LING://磨辊合轧2014.6.6修改为离合闸复用
				{
					key_status[STATUS_LHZ_POS] = KEY_ON;
    4c48:	81 e0       	ldi	r24, 0x01	; 1
    4c4a:	80 93 1f 0e 	sts	0x0E1F, r24
					//
					//set_idle_wait = 0;

                    m_rPara.para.you_ling =  you_di;//得到采样值
    4c4e:	60 91 18 0e 	lds	r22, 0x0E18
    4c52:	70 91 19 0e 	lds	r23, 0x0E19
    4c56:	70 93 95 0a 	sts	0x0A95, r23
    4c5a:	60 93 94 0a 	sts	0x0A94, r22
                    //you_di = bD3_weiyi;
					eeprom_write_word_user((uint16_t *)&m_ePara[0].para.you_ling,m_rPara.para.you_ling);
    4c5e:	8c e3       	ldi	r24, 0x3C	; 60
    4c60:	91 e0       	ldi	r25, 0x01	; 1
    4c62:	0e 94 d3 10 	call	0x21a6	; 0x21a6 <eeprom_write_word_user>

                   TRACE_STRING("set youling  =");
    4c66:	6e e0       	ldi	r22, 0x0E	; 14
    4c68:	8a e4       	ldi	r24, 0x4A	; 74
    4c6a:	97 e0       	ldi	r25, 0x07	; 7
    4c6c:	0e 94 20 2b 	call	0x5640	; 0x5640 <send_uart1_to_computer>
                   send_ulong_ascii(m_rPara.para.you_ling ,TRUE);
    4c70:	60 91 94 0a 	lds	r22, 0x0A94
    4c74:	70 91 95 0a 	lds	r23, 0x0A95
    4c78:	e1 cf       	rjmp	.-62     	; 0x4c3c <deal_key+0x348>
				break;


                case KEY_YOU_QI://磨辊合轧2014.6.6修改为离合闸复用
				{
					key_status[STATUS_LHZ_POS] = KEY_ON;
    4c7a:	81 e0       	ldi	r24, 0x01	; 1
    4c7c:	80 93 1f 0e 	sts	0x0E1F, r24
					//
					
					//set_idle_wait = 0;

                    m_rPara.para.you_qi = you_gao;//得到采样值
    4c80:	60 91 16 0e 	lds	r22, 0x0E16
    4c84:	70 91 17 0e 	lds	r23, 0x0E17
    4c88:	70 93 97 0a 	sts	0x0A97, r23
    4c8c:	60 93 96 0a 	sts	0x0A96, r22
                    //you_gao = bD3_weiyi;
					eeprom_write_word_user((uint16_t *)&m_ePara[0].para.you_qi,m_rPara.para.you_qi);
    4c90:	8e e3       	ldi	r24, 0x3E	; 62
    4c92:	91 e0       	ldi	r25, 0x01	; 1
    4c94:	0e 94 d3 10 	call	0x21a6	; 0x21a6 <eeprom_write_word_user>

                   TRACE_STRING("set youqi  =");
    4c98:	6c e0       	ldi	r22, 0x0C	; 12
    4c9a:	89 e5       	ldi	r24, 0x59	; 89
    4c9c:	97 e0       	ldi	r25, 0x07	; 7
    4c9e:	0e 94 20 2b 	call	0x5640	; 0x5640 <send_uart1_to_computer>
                   send_ulong_ascii(m_rPara.para.you_qi ,TRUE);
    4ca2:	60 91 96 0a 	lds	r22, 0x0A96
    4ca6:	70 91 97 0a 	lds	r23, 0x0A97
    4caa:	c8 cf       	rjmp	.-112    	; 0x4c3c <deal_key+0x348>
				break;  

                
                case KEY_HE_ZHA://磨辊合轧2014.6.6修改为离合闸复用
				{
					key_status[STATUS_LHZ_POS] = KEY_ON;
    4cac:	81 e0       	ldi	r24, 0x01	; 1
    4cae:	80 93 1f 0e 	sts	0x0E1F, r24
                    //

                    li_he_zha = 1;
    4cb2:	81 e0       	ldi	r24, 0x01	; 1
    4cb4:	90 e0       	ldi	r25, 0x00	; 0
    4cb6:	90 93 6a 08 	sts	0x086A, r25
    4cba:	80 93 69 08 	sts	0x0869, r24
					bit_led_hz = 1;
    4cbe:	80 91 70 0b 	lds	r24, 0x0B70
    4cc2:	80 62       	ori	r24, 0x20	; 32
    4cc4:	9d ce       	rjmp	.-710    	; 0x4a00 <deal_key+0x10c>
				}
				break; 

                case KEY_LI_ZHA://磨辊合轧2014.6.6修改为离合闸复用
				{
					key_status[STATUS_LHZ_POS] = KEY_ON;
    4cc6:	81 e0       	ldi	r24, 0x01	; 1
    4cc8:	80 93 1f 0e 	sts	0x0E1F, r24
					//
                    li_he_zha = 0;
    4ccc:	10 92 6a 08 	sts	0x086A, r1
    4cd0:	10 92 69 08 	sts	0x0869, r1
					bit_led_hz = 0;
    4cd4:	80 91 70 0b 	lds	r24, 0x0B70
    4cd8:	8f 7d       	andi	r24, 0xDF	; 223
    4cda:	92 ce       	rjmp	.-732    	; 0x4a00 <deal_key+0x10c>
				}
				break; 

                case TEST_BUTTON://磨辊合轧2014.6.6修改为离合闸复用
				{
					key_status[STATUS_LHZ_POS] = KEY_ON;
    4cdc:	81 e0       	ldi	r24, 0x01	; 1
    4cde:	80 93 1f 0e 	sts	0x0E1F, r24
    4ce2:	1c c0       	rjmp	.+56     	; 0x4d1c <deal_key+0x428>

                //eeprom_write_word_user((uint16_t *)&m_ePara[0].para.max_vel,m_rPara.para.max_vel);
//SET DATE
                case SET_MAX_ZHUANSU://磨辊合轧2014.6.6修改为离合闸复用
				{
					key_status[STATUS_LHZ_POS] = KEY_ON;
    4ce4:	81 e0       	ldi	r24, 0x01	; 1
    4ce6:	80 93 1f 0e 	sts	0x0E1F, r24
					//
					//set_idle_wait = 0;
							if ( (uart_rx_buf[4]*256 + uart_rx_buf[5])  > m_rPara.para.min_vel)
    4cea:	60 91 38 0b 	lds	r22, 0x0B38
    4cee:	70 e0       	ldi	r23, 0x00	; 0
    4cf0:	76 2f       	mov	r23, r22
    4cf2:	66 27       	eor	r22, r22
    4cf4:	80 91 39 0b 	lds	r24, 0x0B39
    4cf8:	68 0f       	add	r22, r24
    4cfa:	71 1d       	adc	r23, r1
    4cfc:	80 91 5e 0a 	lds	r24, 0x0A5E
    4d00:	90 91 5f 0a 	lds	r25, 0x0A5F
    4d04:	86 17       	cp	r24, r22
    4d06:	97 07       	cpc	r25, r23
    4d08:	08 f0       	brcs	.+2      	; 0x4d0c <deal_key+0x418>
    4d0a:	9f c2       	rjmp	.+1342   	; 0x524a <deal_key+0x956>

							{
	                            m_rPara.para.max_vel = uart_rx_buf[4]*256 + uart_rx_buf[5];
    4d0c:	70 93 5d 0a 	sts	0x0A5D, r23
    4d10:	60 93 5c 0a 	sts	0x0A5C, r22
	                            eeprom_write_word_user((uint16_t *)&m_ePara[0].para.max_vel,m_rPara.para.max_vel);
    4d14:	84 e0       	ldi	r24, 0x04	; 4
    4d16:	91 e0       	ldi	r25, 0x01	; 1
    4d18:	0e 94 d3 10 	call	0x21a6	; 0x21a6 <eeprom_write_word_user>
	                            uart_tx_buf[0] = 0xaa;
    4d1c:	8a ea       	ldi	r24, 0xAA	; 170
    4d1e:	80 93 ac 0a 	sts	0x0AAC, r24
	                    		uart_tx_buf[1] = 5;
    4d22:	85 e0       	ldi	r24, 0x05	; 5
    4d24:	80 93 ad 0a 	sts	0x0AAD, r24
	                    		uart_tx_buf[2] = uart_rx_buf[4];
    4d28:	80 91 38 0b 	lds	r24, 0x0B38
    4d2c:	80 93 ae 0a 	sts	0x0AAE, r24
	                    		uart_tx_buf[3] = uart_rx_buf[5];
    4d30:	80 91 39 0b 	lds	r24, 0x0B39
    4d34:	80 93 af 0a 	sts	0x0AAF, r24
	                    		uart_tx_buf[4] = 0;
    4d38:	10 92 b0 0a 	sts	0x0AB0, r1
	                    		uart_tx_buf[5] = 0;
    4d3c:	10 92 b1 0a 	sts	0x0AB1, r1
	                    		uart_tx_buf[6] = 0;
    4d40:	10 92 b2 0a 	sts	0x0AB2, r1
	                            set_date = 0;
    4d44:	10 92 67 08 	sts	0x0867, r1
    4d48:	80 c2       	rjmp	.+1280   	; 0x524a <deal_key+0x956>
							}
				}
				break;
                case SET_MIN_ZHUANSU://磨辊合轧2014.6.6修改为离合闸复用
				{
					key_status[STATUS_LHZ_POS] = KEY_ON;
    4d4a:	81 e0       	ldi	r24, 0x01	; 1
    4d4c:	80 93 1f 0e 	sts	0x0E1F, r24
					//
					//set_idle_wait = 0;
							if ( (uart_rx_buf[4]*256 + uart_rx_buf[5])   <  m_rPara.para.max_vel)
    4d50:	60 91 38 0b 	lds	r22, 0x0B38
    4d54:	70 e0       	ldi	r23, 0x00	; 0
    4d56:	76 2f       	mov	r23, r22
    4d58:	66 27       	eor	r22, r22
    4d5a:	80 91 39 0b 	lds	r24, 0x0B39
    4d5e:	68 0f       	add	r22, r24
    4d60:	71 1d       	adc	r23, r1
    4d62:	80 91 5c 0a 	lds	r24, 0x0A5C
    4d66:	90 91 5d 0a 	lds	r25, 0x0A5D
    4d6a:	68 17       	cp	r22, r24
    4d6c:	79 07       	cpc	r23, r25
    4d6e:	08 f0       	brcs	.+2      	; 0x4d72 <deal_key+0x47e>
    4d70:	6c c2       	rjmp	.+1240   	; 0x524a <deal_key+0x956>
							{
								
                            m_rPara.para.min_vel = uart_rx_buf[4]*256 + uart_rx_buf[5];
    4d72:	70 93 5f 0a 	sts	0x0A5F, r23
    4d76:	60 93 5e 0a 	sts	0x0A5E, r22
                            eeprom_write_word_user((uint16_t *)&m_ePara[0].para.min_vel,m_rPara.para.min_vel);
    4d7a:	86 e0       	ldi	r24, 0x06	; 6
    4d7c:	91 e0       	ldi	r25, 0x01	; 1
    4d7e:	cc cf       	rjmp	.-104    	; 0x4d18 <deal_key+0x424>
				}
				break;
                
                case SET_ZHUDIANJI_DIANLIU://磨辊合轧2014.6.6修改为离合闸复用
				{
					key_status[STATUS_LHZ_POS] = KEY_ON;
    4d80:	81 e0       	ldi	r24, 0x01	; 1
    4d82:	80 93 1f 0e 	sts	0x0E1F, r24
					//
					//set_idle_wait = 0;
	

                            m_rPara.para.mmotor_cur1 = uart_rx_buf[4] *256 + uart_rx_buf[5];
    4d86:	60 91 39 0b 	lds	r22, 0x0B39
    4d8a:	60 93 60 0a 	sts	0x0A60, r22
                            eeprom_write_byte_user(&m_ePara[0].para.mmotor_cur1,m_rPara.para.mmotor_cur1);
    4d8e:	88 e0       	ldi	r24, 0x08	; 8
    4d90:	91 e0       	ldi	r25, 0x01	; 1
    4d92:	09 c0       	rjmp	.+18     	; 0x4da6 <deal_key+0x4b2>
				}
				break;

                case HZ_YANCHISHIJIAN://磨辊合轧2014.6.6修改为离合闸复用
				{
					key_status[STATUS_LHZ_POS] = KEY_ON;
    4d94:	81 e0       	ldi	r24, 0x01	; 1
    4d96:	80 93 1f 0e 	sts	0x0E1F, r24
					//
					//set_idle_wait = 0;

                            m_rPara.para.rollin_delay = uart_rx_buf[4] *256 + uart_rx_buf[5];
    4d9a:	60 91 39 0b 	lds	r22, 0x0B39
    4d9e:	60 93 61 0a 	sts	0x0A61, r22
                            eeprom_write_byte_user(&m_ePara[0].para.rollin_delay,m_rPara.para.rollin_delay);
    4da2:	89 e0       	ldi	r24, 0x09	; 9
    4da4:	91 e0       	ldi	r25, 0x01	; 1
    4da6:	0e 94 a8 0f 	call	0x1f50	; 0x1f50 <eeprom_write_byte_user>
    4daa:	b8 cf       	rjmp	.-144    	; 0x4d1c <deal_key+0x428>
				}
				break;

                case SET_QD_LIAOWEI://磨辊合轧2014.6.6修改为离合闸复用
				{
					key_status[STATUS_LHZ_POS] = KEY_ON;
    4dac:	81 e0       	ldi	r24, 0x01	; 1
    4dae:	80 93 1f 0e 	sts	0x0E1F, r24
					//
					//set_idle_wait = 0;

                            m_rPara.para.material_start = uart_rx_buf[4] *256 + uart_rx_buf[5];
    4db2:	60 91 39 0b 	lds	r22, 0x0B39
    4db6:	60 93 6d 0a 	sts	0x0A6D, r22
                            eeprom_write_byte_user(&m_ePara[0].para.material_start,m_rPara.para.material_start);
    4dba:	85 e1       	ldi	r24, 0x15	; 21
    4dbc:	91 e0       	ldi	r25, 0x01	; 1
    4dbe:	f3 cf       	rjmp	.-26     	; 0x4da6 <deal_key+0x4b2>
				}
				break;

                case SET_TJ_LIAOWEI://磨辊合轧2014.6.6修改为离合闸复用
				{
					key_status[STATUS_LHZ_POS] = KEY_ON;
    4dc0:	81 e0       	ldi	r24, 0x01	; 1
    4dc2:	80 93 1f 0e 	sts	0x0E1F, r24
					//
					//set_idle_wait = 0;

                            m_rPara.para.material_stop = uart_rx_buf[4] *256 + uart_rx_buf[5];
    4dc6:	60 91 39 0b 	lds	r22, 0x0B39
    4dca:	60 93 6e 0a 	sts	0x0A6E, r22
                            eeprom_write_byte_user(&m_ePara[0].para.material_stop,m_rPara.para.material_stop);
    4dce:	86 e1       	ldi	r24, 0x16	; 22
    4dd0:	91 e0       	ldi	r25, 0x01	; 1
    4dd2:	e9 cf       	rjmp	.-46     	; 0x4da6 <deal_key+0x4b2>



                case SET_MB_XINHAO://磨辊合轧2014.6.6修改为离合闸复用
				{
					key_status[STATUS_LHZ_POS] = KEY_ON;
    4dd4:	81 e0       	ldi	r24, 0x01	; 1
    4dd6:	80 93 1f 0e 	sts	0x0E1F, r24
					//
					//set_idle_wait = 0;

                            m_rPara.para.mb_level_pulse = uart_rx_buf[4] *256 + uart_rx_buf[5];
    4dda:	60 91 39 0b 	lds	r22, 0x0B39
    4dde:	60 93 74 0a 	sts	0x0A74, r22
                            eeprom_write_byte_user(&m_ePara[0].para.mb_level_pulse,m_rPara.para.mb_level_pulse);
    4de2:	8c e1       	ldi	r24, 0x1C	; 28
    4de4:	91 e0       	ldi	r25, 0x01	; 1
    4de6:	df cf       	rjmp	.-66     	; 0x4da6 <deal_key+0x4b2>
				}
				break;
				//TEMP_CHANGE_TEMP
				case TEMP_CHANGE_TEMP://温度切换
				{
					key_status[STATUS_LHZ_POS] = KEY_ON;
    4de8:	81 e0       	ldi	r24, 0x01	; 1
    4dea:	80 93 1f 0e 	sts	0x0E1F, r24
					
					if (uart_rx_buf[4] == 0x1)
    4dee:	80 91 38 0b 	lds	r24, 0x0B38
    4df2:	81 30       	cpi	r24, 0x01	; 1
    4df4:	19 f0       	breq	.+6      	; 0x4dfc <deal_key+0x508>
					{
						//第一个温度
						set_date =1;
					}else if (uart_rx_buf[4] == 0x2) 
    4df6:	82 30       	cpi	r24, 0x02	; 2
    4df8:	09 f0       	breq	.+2      	; 0x4dfc <deal_key+0x508>
    4dfa:	a4 cf       	rjmp	.-184    	; 0x4d44 <deal_key+0x450>
					{
						//第二个温度
						set_date= 2;
    4dfc:	80 93 67 08 	sts	0x0867, r24
    4e00:	24 c2       	rjmp	.+1096   	; 0x524a <deal_key+0x956>
				}
				break;
				
				case SET_DIV://磨辊合轧2014.6.6修改为离合闸复用
				{
					key_status[STATUS_LHZ_POS] = KEY_ON;
    4e02:	81 e0       	ldi	r24, 0x01	; 1
    4e04:	80 93 1f 0e 	sts	0x0E1F, r24
					//
					//set_idle_wait = 0;

                            m_rPara.para.mb_div = uart_rx_buf[4] *256 + uart_rx_buf[5];
    4e08:	60 91 39 0b 	lds	r22, 0x0B39
    4e0c:	60 93 76 0a 	sts	0x0A76, r22
                            eeprom_write_byte_user(&m_ePara[0].para.mb_div,m_rPara.para.mb_div);
    4e10:	8e e1       	ldi	r24, 0x1E	; 30
    4e12:	91 e0       	ldi	r25, 0x01	; 1
    4e14:	c8 cf       	rjmp	.-112    	; 0x4da6 <deal_key+0x4b2>
                            set_date = 0;
				}
				break;
				case SET_DW_XINHAO://磨辊合轧2014.6.6修改为离合闸复用
				{
					key_status[STATUS_LHZ_POS] = KEY_ON;
    4e16:	81 e0       	ldi	r24, 0x01	; 1
    4e18:	80 93 1f 0e 	sts	0x0E1F, r24
					//
					//set_idle_wait = 0;

                            m_rPara.para.dw_level_pulse = uart_rx_buf[4] *256 + uart_rx_buf[5];
    4e1c:	60 91 39 0b 	lds	r22, 0x0B39
    4e20:	60 93 75 0a 	sts	0x0A75, r22
                            eeprom_write_byte_user(&m_ePara[0].para.dw_level_pulse,m_rPara.para.dw_level_pulse);
    4e24:	8d e1       	ldi	r24, 0x1D	; 29
    4e26:	91 e0       	ldi	r25, 0x01	; 1
    4e28:	be cf       	rjmp	.-132    	; 0x4da6 <deal_key+0x4b2>
				}
				break;

                case SET_DIANLIU_XIUZHENG://磨辊合轧2014.6.6修改为离合闸复用
				{
					key_status[STATUS_LHZ_POS] = KEY_ON;
    4e2a:	81 e0       	ldi	r24, 0x01	; 1
    4e2c:	80 93 1f 0e 	sts	0x0E1F, r24
					//
					//set_idle_wait = 0;
					TRACE_STRING("dianliu xiuzheng1");
    4e30:	61 e1       	ldi	r22, 0x11	; 17
    4e32:	86 e6       	ldi	r24, 0x66	; 102
    4e34:	97 e0       	ldi	r25, 0x07	; 7
    4e36:	0e 94 20 2b 	call	0x5640	; 0x5640 <send_uart1_to_computer>


					m_rPara.para.current1_modify = uart_rx_buf[4] *256 + uart_rx_buf[5];
    4e3a:	60 91 39 0b 	lds	r22, 0x0B39
    4e3e:	60 93 6f 0a 	sts	0x0A6F, r22
					eeprom_write_byte_user(&m_ePara[0].para.current1_modify,m_rPara.para.current1_modify);
    4e42:	87 e1       	ldi	r24, 0x17	; 23
    4e44:	91 e0       	ldi	r25, 0x01	; 1
    4e46:	0e c0       	rjmp	.+28     	; 0x4e64 <deal_key+0x570>
				}
				break;

			    case SET_DIANLIU_XIUZHENG1://磨辊合轧2014.6.6修改为离合闸复用
				{
					key_status[STATUS_LHZ_POS] = KEY_ON;
    4e48:	81 e0       	ldi	r24, 0x01	; 1
    4e4a:	80 93 1f 0e 	sts	0x0E1F, r24
					//
					//set_idle_wait = 0;
					TRACE_STRING("dianliu xiuzheng1");
    4e4e:	61 e1       	ldi	r22, 0x11	; 17
    4e50:	86 e6       	ldi	r24, 0x66	; 102
    4e52:	97 e0       	ldi	r25, 0x07	; 7
    4e54:	0e 94 20 2b 	call	0x5640	; 0x5640 <send_uart1_to_computer>


					m_rPara.para.current2_modify = uart_rx_buf[4] *256 + uart_rx_buf[5];
    4e58:	60 91 39 0b 	lds	r22, 0x0B39
    4e5c:	60 93 77 0a 	sts	0x0A77, r22
					eeprom_write_byte_user(&m_ePara[0].para.current2_modify,m_rPara.para.current2_modify);
    4e60:	8f e1       	ldi	r24, 0x1F	; 31
    4e62:	91 e0       	ldi	r25, 0x01	; 1
    4e64:	0e 94 a8 0f 	call	0x1f50	; 0x1f50 <eeprom_write_byte_user>


                           
                            uart_tx_buf[0] = 0xaa;
    4e68:	8a ea       	ldi	r24, 0xAA	; 170
    4e6a:	80 93 ac 0a 	sts	0x0AAC, r24
                    		uart_tx_buf[1] = 5;
    4e6e:	85 e0       	ldi	r24, 0x05	; 5
    4e70:	80 93 ad 0a 	sts	0x0AAD, r24
                    		uart_tx_buf[2] = uart_rx_buf[4];
    4e74:	80 91 38 0b 	lds	r24, 0x0B38
    4e78:	80 93 ae 0a 	sts	0x0AAE, r24
                    		uart_tx_buf[3] = uart_rx_buf[5];
    4e7c:	80 91 39 0b 	lds	r24, 0x0B39
    4e80:	80 93 af 0a 	sts	0x0AAF, r24
                    		uart_tx_buf[4] = 0;
    4e84:	10 92 b0 0a 	sts	0x0AB0, r1
                    		uart_tx_buf[5] = 0;
    4e88:	10 92 b1 0a 	sts	0x0AB1, r1
                    		uart_tx_buf[6] = 0;
    4e8c:	10 92 b2 0a 	sts	0x0AB2, r1
                            set_date = 0;
    4e90:	10 92 67 08 	sts	0x0867, r1
					TRACE_STRING("dianliu xiuzheng2");
    4e94:	61 e1       	ldi	r22, 0x11	; 17
    4e96:	88 e7       	ldi	r24, 0x78	; 120
    4e98:	97 e0       	ldi	r25, 0x07	; 7
    4e9a:	0e 94 20 2b 	call	0x5640	; 0x5640 <send_uart1_to_computer>
				}
				break;
    4e9e:	d5 c1       	rjmp	.+938    	; 0x524a <deal_key+0x956>
				}
				break;

                case SET_SHAGNDIAN_ZHUANGTAI://磨辊合轧2014.6.6修改为离合闸复用
				{
					key_status[STATUS_LHZ_POS] = KEY_ON;
    4ea0:	81 e0       	ldi	r24, 0x01	; 1
    4ea2:	80 93 1f 0e 	sts	0x0E1F, r24
					//
					//set_idle_wait = 0;

                            m_rPara.para.is_remote = uart_rx_buf[4] *256 + uart_rx_buf[5];
    4ea6:	60 91 39 0b 	lds	r22, 0x0B39
    4eaa:	60 93 63 0a 	sts	0x0A63, r22
                            eeprom_write_byte_user(&m_ePara[0].para.is_remote,m_rPara.para.is_remote);
    4eae:	8b e0       	ldi	r24, 0x0B	; 11
    4eb0:	91 e0       	ldi	r25, 0x01	; 1
    4eb2:	79 cf       	rjmp	.-270    	; 0x4da6 <deal_key+0x4b2>
				}
				break;

			    case SET_DIANLIU_GUOZAI_TINGJI1://磨辊合轧2014.6.6修改为离合闸复用
				{
					key_status[STATUS_LHZ_POS] = KEY_ON;
    4eb4:	81 e0       	ldi	r24, 0x01	; 1
    4eb6:	80 93 1f 0e 	sts	0x0E1F, r24
					//
					//set_idle_wait = 0;

                            m_rPara.para.mm_cur_overflow = uart_rx_buf[4] *256 + uart_rx_buf[5];
    4eba:	60 91 39 0b 	lds	r22, 0x0B39
    4ebe:	60 93 64 0a 	sts	0x0A64, r22
                            eeprom_write_byte_user(&m_ePara[0].para.mm_cur_overflow,m_rPara.para.mm_cur_overflow);
    4ec2:	8c e0       	ldi	r24, 0x0C	; 12
    4ec4:	91 e0       	ldi	r25, 0x01	; 1
    4ec6:	6f cf       	rjmp	.-290    	; 0x4da6 <deal_key+0x4b2>
				}
				break;

                 case SET_DIANLIU_LIANSUO://磨辊合轧2014.6.6修改为离合闸复用
				{
					key_status[STATUS_LHZ_POS] = KEY_ON;
    4ec8:	81 e0       	ldi	r24, 0x01	; 1
    4eca:	80 93 1f 0e 	sts	0x0E1F, r24
					//
					//set_idle_wait = 0;

                            m_rPara.para.mm_control = uart_rx_buf[4] *256 + uart_rx_buf[5];
    4ece:	60 91 39 0b 	lds	r22, 0x0B39
    4ed2:	60 93 65 0a 	sts	0x0A65, r22
                            eeprom_write_byte_user(&m_ePara[0].para.mm_control,m_rPara.para.mm_control);
    4ed6:	8d e0       	ldi	r24, 0x0D	; 13
    4ed8:	91 e0       	ldi	r25, 0x01	; 1
    4eda:	0e 94 a8 0f 	call	0x1f50	; 0x1f50 <eeprom_write_byte_user>
    4ede:	32 cf       	rjmp	.-412    	; 0x4d44 <deal_key+0x450>
				}
				break;

                case SET_DIANLIU_LIANGCHENG://磨辊合轧2014.6.6修改为离合闸复用
				{
					key_status[STATUS_LHZ_POS] = KEY_ON;
    4ee0:	81 e0       	ldi	r24, 0x01	; 1
    4ee2:	80 93 1f 0e 	sts	0x0E1F, r24
					//
					//set_idle_wait = 0;

                            m_rPara.para.cur1_full = uart_rx_buf[4] *256 + uart_rx_buf[5];
    4ee6:	60 91 39 0b 	lds	r22, 0x0B39
    4eea:	60 93 66 0a 	sts	0x0A66, r22
                            eeprom_write_byte_user(&m_ePara[0].para.cur1_full,m_rPara.para.cur1_full);
    4eee:	8e e0       	ldi	r24, 0x0E	; 14
    4ef0:	91 e0       	ldi	r25, 0x01	; 1
    4ef2:	59 cf       	rjmp	.-334    	; 0x4da6 <deal_key+0x4b2>
				}
				break;

				case SET_DIANLIU_LIANGCHENG1://磨辊合轧2014.6.6修改为离合闸复用
				{
					key_status[STATUS_LHZ_POS] = KEY_ON;
    4ef4:	81 e0       	ldi	r24, 0x01	; 1
    4ef6:	80 93 1f 0e 	sts	0x0E1F, r24
					//
					//set_idle_wait = 0;

                            m_rPara.para.cur2_full = uart_rx_buf[4] *256 + uart_rx_buf[5];
    4efa:	60 91 39 0b 	lds	r22, 0x0B39
    4efe:	60 93 7b 0a 	sts	0x0A7B, r22
                            eeprom_write_byte_user(&m_ePara[0].para.cur2_full,m_rPara.para.cur2_full);
    4f02:	83 e2       	ldi	r24, 0x23	; 35
    4f04:	91 e0       	ldi	r25, 0x01	; 1
    4f06:	4f cf       	rjmp	.-354    	; 0x4da6 <deal_key+0x4b2>
				}
				break;

                case SET_DIANLIU_BIAODING://磨辊合轧2014.6.6修改为离合闸复用
				{
					key_status[STATUS_LHZ_POS] = KEY_ON;
    4f08:	81 e0       	ldi	r24, 0x01	; 1
    4f0a:	80 93 1f 0e 	sts	0x0E1F, r24
    4f0e:	1a cf       	rjmp	.-460    	; 0x4d44 <deal_key+0x450>
				}
				break;
                case HZ_SET_ZHANJU://磨辊合轧2014.6.6修改为离合闸复用
				{
					unsigned short  zhaju;
					key_status[STATUS_LHZ_POS] = KEY_ON;
    4f10:	81 e0       	ldi	r24, 0x01	; 1
    4f12:	80 93 1f 0e 	sts	0x0E1F, r24

                    zhaju = uart_rx_buf[4] *256 + uart_rx_buf[5];
    4f16:	c0 91 38 0b 	lds	r28, 0x0B38
    4f1a:	d0 e0       	ldi	r29, 0x00	; 0
    4f1c:	dc 2f       	mov	r29, r28
    4f1e:	cc 27       	eor	r28, r28
    4f20:	80 91 39 0b 	lds	r24, 0x0B39
    4f24:	c8 0f       	add	r28, r24
    4f26:	d1 1d       	adc	r29, r1

					if (uart_rx_buf[6] == 0)
    4f28:	80 91 3a 0b 	lds	r24, 0x0B3A
    4f2c:	81 11       	cpse	r24, r1
    4f2e:	08 c0       	rjmp	.+16     	; 0x4f40 <deal_key+0x64c>
					{
						zuo_di = zhaju;
    4f30:	d0 93 15 0e 	sts	0x0E15, r29
    4f34:	c0 93 14 0e 	sts	0x0E14, r28
						
                   		TRACE_STRING("set zuolingzhi");
    4f38:	6e e0       	ldi	r22, 0x0E	; 14
    4f3a:	8a e8       	ldi	r24, 0x8A	; 138
    4f3c:	97 e0       	ldi	r25, 0x07	; 7
    4f3e:	1d c0       	rjmp	.+58     	; 0x4f7a <deal_key+0x686>
                  
					}
					else if (uart_rx_buf[6] == 1)
    4f40:	81 30       	cpi	r24, 0x01	; 1
    4f42:	41 f4       	brne	.+16     	; 0x4f54 <deal_key+0x660>
					{
						zuo_gao= zhaju;
    4f44:	d0 93 12 0e 	sts	0x0E12, r29
    4f48:	c0 93 11 0e 	sts	0x0E11, r28
						TRACE_STRING("set zuoqizhi");
    4f4c:	6c e0       	ldi	r22, 0x0C	; 12
    4f4e:	89 e9       	ldi	r24, 0x99	; 153
    4f50:	97 e0       	ldi	r25, 0x07	; 7
    4f52:	13 c0       	rjmp	.+38     	; 0x4f7a <deal_key+0x686>
					}
					else if(uart_rx_buf[6] == 2)
    4f54:	82 30       	cpi	r24, 0x02	; 2
    4f56:	41 f4       	brne	.+16     	; 0x4f68 <deal_key+0x674>
					{
						you_di = zhaju;
    4f58:	d0 93 19 0e 	sts	0x0E19, r29
    4f5c:	c0 93 18 0e 	sts	0x0E18, r28
						TRACE_STRING("set youklingzhi");
    4f60:	6f e0       	ldi	r22, 0x0F	; 15
    4f62:	86 ea       	ldi	r24, 0xA6	; 166
    4f64:	97 e0       	ldi	r25, 0x07	; 7
    4f66:	09 c0       	rjmp	.+18     	; 0x4f7a <deal_key+0x686>
					}
					else if(uart_rx_buf[6] == 3)
    4f68:	83 30       	cpi	r24, 0x03	; 3
    4f6a:	49 f4       	brne	.+18     	; 0x4f7e <deal_key+0x68a>
					{
						you_gao = zhaju;
    4f6c:	d0 93 17 0e 	sts	0x0E17, r29
    4f70:	c0 93 16 0e 	sts	0x0E16, r28
						TRACE_STRING("set youkqizhi");
    4f74:	6d e0       	ldi	r22, 0x0D	; 13
    4f76:	86 eb       	ldi	r24, 0xB6	; 182
    4f78:	97 e0       	ldi	r25, 0x07	; 7
    4f7a:	0e 94 20 2b 	call	0x5640	; 0x5640 <send_uart1_to_computer>
					}	


					send_ulong_ascii(zhaju ,TRUE);
    4f7e:	be 01       	movw	r22, r28
    4f80:	88 27       	eor	r24, r24
    4f82:	77 fd       	sbrc	r23, 7
    4f84:	80 95       	com	r24
    4f86:	98 2f       	mov	r25, r24
    4f88:	41 e0       	ldi	r20, 0x01	; 1
    4f8a:	0e 94 21 2b 	call	0x5642	; 0x5642 <send_ulong_ascii>
    4f8e:	c6 ce       	rjmp	.-628    	; 0x4d1c <deal_key+0x428>
				break;


                case SET_ZHUANSU_JIA://磨辊合轧2014.6.6修改为离合闸复用
				{
					key_status[STATUS_LHZ_POS] = KEY_ON;
    4f90:	81 e0       	ldi	r24, 0x01	; 1
    4f92:	80 93 1f 0e 	sts	0x0E1F, r24
					//
					//set_idle_wait = 0;

                            m_rPara.para.manual_vel += 5;
    4f96:	60 91 68 0a 	lds	r22, 0x0A68
    4f9a:	70 91 69 0a 	lds	r23, 0x0A69
    4f9e:	6b 5f       	subi	r22, 0xFB	; 251
    4fa0:	7f 4f       	sbci	r23, 0xFF	; 255
    4fa2:	09 c0       	rjmp	.+18     	; 0x4fb6 <deal_key+0x6c2>
 				}
				break;

                case SET_ZHUANSU_JIAN://磨辊合轧2014.6.6修改为离合闸复用
				{
					key_status[STATUS_LHZ_POS] = KEY_ON;
    4fa4:	81 e0       	ldi	r24, 0x01	; 1
    4fa6:	80 93 1f 0e 	sts	0x0E1F, r24
					//
					//set_idle_wait = 0;

                            m_rPara.para.manual_vel -= 5;
    4faa:	60 91 68 0a 	lds	r22, 0x0A68
    4fae:	70 91 69 0a 	lds	r23, 0x0A69
    4fb2:	65 50       	subi	r22, 0x05	; 5
    4fb4:	71 09       	sbc	r23, r1
    4fb6:	70 93 69 0a 	sts	0x0A69, r23
    4fba:	60 93 68 0a 	sts	0x0A68, r22
							set_date = 0;
    4fbe:	10 92 67 08 	sts	0x0867, r1
                           
                            eeprom_write_word_user((uint16_t *)&m_ePara[0].para.manual_vel,m_rPara.para.manual_vel);
    4fc2:	80 e1       	ldi	r24, 0x10	; 16
    4fc4:	91 e0       	ldi	r25, 0x01	; 1
    4fc6:	0e 94 d3 10 	call	0x21a6	; 0x21a6 <eeprom_write_word_user>
 				}
				break;
    4fca:	3f c1       	rjmp	.+638    	; 0x524a <deal_key+0x956>


                case SET_RIQI://磨辊合轧2014.6.6修改为离合闸复用
				{
					key_status[STATUS_LHZ_POS] = KEY_ON;
    4fcc:	81 e0       	ldi	r24, 0x01	; 1
    4fce:	80 93 1f 0e 	sts	0x0E1F, r24
					//
					//set_idle_wait = 0;


                            if ((uart_rx_buf[4] == 0) && (uart_rx_buf[5] == 8) )
    4fd2:	80 91 38 0b 	lds	r24, 0x0B38
    4fd6:	81 11       	cpse	r24, r1
    4fd8:	a1 ce       	rjmp	.-702    	; 0x4d1c <deal_key+0x428>
    4fda:	80 91 39 0b 	lds	r24, 0x0B39
    4fde:	88 30       	cpi	r24, 0x08	; 8
    4fe0:	09 f0       	breq	.+2      	; 0x4fe4 <deal_key+0x6f0>
    4fe2:	9c ce       	rjmp	.-712    	; 0x4d1c <deal_key+0x428>
                            {
                                set_default_para();
    4fe4:	0e 94 2d 12 	call	0x245a	; 0x245a <set_default_para>
    4fe8:	99 ce       	rjmp	.-718    	; 0x4d1c <deal_key+0x428>



				case SET_CANSHU_DISP://磨辊合轧2014.6.6修改为离合闸复用
				{
					key_status[STATUS_LHZ_POS] = KEY_ON;
    4fea:	81 e0       	ldi	r24, 0x01	; 1
    4fec:	80 93 1f 0e 	sts	0x0E1F, r24
					//
					//set_idle_wait = 0;


					canshu_peizhi = 0;
    4ff0:	10 92 68 08 	sts	0x0868, r1
    4ff4:	a7 ce       	rjmp	.-690    	; 0x4d44 <deal_key+0x450>
				}
				break;

				case SET_IP_ADDR://磨辊合轧2014.6.6修改为离合闸复用
				{
					key_status[STATUS_LHZ_POS] = KEY_ON;
    4ff6:	81 e0       	ldi	r24, 0x01	; 1
    4ff8:	80 93 1f 0e 	sts	0x0E1F, r24
					//
					//set_idle_wait = 0;

                    //m_rPara.para.set_yuzhi = uart_rx_buf[4] *256 + uart_rx_buf[5];
                    //eeprom_write_byte_user(&m_ePara[0].para.set_yuzhi,m_rPara.para.set_yuzhi);
                    uart_tx_buf[0] = 0xaa;
    4ffc:	8a ea       	ldi	r24, 0xAA	; 170
    4ffe:	80 93 ac 0a 	sts	0x0AAC, r24
            		uart_tx_buf[1] = 5;
    5002:	85 e0       	ldi	r24, 0x05	; 5
    5004:	80 93 ad 0a 	sts	0x0AAD, r24
            		uart_tx_buf[2] = uart_rx_buf[3];  //ip_addrs
    5008:	80 91 37 0b 	lds	r24, 0x0B37
    500c:	80 93 ae 0a 	sts	0x0AAE, r24
            		uart_tx_buf[3] = uart_rx_buf[4];
    5010:	80 91 38 0b 	lds	r24, 0x0B38
    5014:	80 93 af 0a 	sts	0x0AAF, r24
            		uart_tx_buf[4] = uart_rx_buf[5];
    5018:	80 91 39 0b 	lds	r24, 0x0B39
    501c:	80 93 b0 0a 	sts	0x0AB0, r24
            		uart_tx_buf[5] = uart_rx_buf[6];
    5020:	80 91 3a 0b 	lds	r24, 0x0B3A
    5024:	80 93 b1 0a 	sts	0x0AB1, r24
            		uart_tx_buf[6] = 0;
    5028:	10 92 b2 0a 	sts	0x0AB2, r1
                    set_date = 0;
    502c:	10 92 67 08 	sts	0x0867, r1
    5030:	0e ea       	ldi	r16, 0xAE	; 174
    5032:	1a e0       	ldi	r17, 0x0A	; 10
    5034:	c4 e3       	ldi	r28, 0x34	; 52
    5036:	d1 e0       	ldi	r29, 0x01	; 1



					unsigned char i;
					for(i=0; i<4; i++)
    5038:	f1 2c       	mov	r15, r1
					{
						//IP地址写入EEPROM
						eeprom_write_byte_user(&m_ePara[0].para.w5500_net_para.ip_para.ip_addr[i],uart_tx_buf[2 + i]);
    503a:	f8 01       	movw	r30, r16
    503c:	60 81       	ld	r22, Z
    503e:	ce 01       	movw	r24, r28
    5040:	08 97       	sbiw	r24, 0x08	; 8
    5042:	0e 94 a8 0f 	call	0x1f50	; 0x1f50 <eeprom_write_byte_user>
						if (i == 3)
    5046:	f3 e0       	ldi	r31, 0x03	; 3
    5048:	ff 12       	cpse	r15, r31
    504a:	02 c0       	rjmp	.+4      	; 0x5050 <deal_key+0x75c>
						{
								eeprom_write_byte_user(&m_ePara[0].para.w5500_net_para.ip_para.gateway[i],1);
    504c:	61 e0       	ldi	r22, 0x01	; 1
    504e:	02 c0       	rjmp	.+4      	; 0x5054 <deal_key+0x760>
						}
						else
						{
								eeprom_write_byte_user(&m_ePara[0].para.w5500_net_para.ip_para.gateway[i],uart_tx_buf[2 + i]);
    5050:	f8 01       	movw	r30, r16
    5052:	60 81       	ld	r22, Z
    5054:	ce 01       	movw	r24, r28
    5056:	0e 94 a8 0f 	call	0x1f50	; 0x1f50 <eeprom_write_byte_user>
                    set_date = 0;



					unsigned char i;
					for(i=0; i<4; i++)
    505a:	f3 94       	inc	r15
    505c:	0f 5f       	subi	r16, 0xFF	; 255
    505e:	1f 4f       	sbci	r17, 0xFF	; 255
    5060:	21 96       	adiw	r28, 0x01	; 1
    5062:	f4 e0       	ldi	r31, 0x04	; 4
    5064:	ff 12       	cpse	r15, r31
    5066:	e9 cf       	rjmp	.-46     	; 0x503a <deal_key+0x746>
					}
					//TRACE_STRING("para.w5500_net_para.ip_para.ip_addr");

					#if USED_W5500 == TRUE
					{
						wdt_reset();//程序主循环中喂狗
    5068:	a8 95       	wdr
						//初始化网络芯片，指定延时时间(ms)		
						w5500_read_para();
    506a:	0e 94 61 33 	call	0x66c2	; 0x66c2 <w5500_read_para>
						if(TRUE == init_w5500(10)) //100
    506e:	6a e0       	ldi	r22, 0x0A	; 10
    5070:	70 e0       	ldi	r23, 0x00	; 0
    5072:	80 e0       	ldi	r24, 0x00	; 0
    5074:	90 e0       	ldi	r25, 0x00	; 0
    5076:	0e 94 fb 31 	call	0x63f6	; 0x63f6 <init_w5500>
    507a:	81 30       	cpi	r24, 0x01	; 1
    507c:	21 f4       	brne	.+8      	; 0x5086 <deal_key+0x792>
						{
							TRACE_STRING("w5500 set ok\r\n\0");
    507e:	6e e0       	ldi	r22, 0x0E	; 14
    5080:	83 e5       	ldi	r24, 0x53	; 83
    5082:	92 e0       	ldi	r25, 0x02	; 2
    5084:	0a cf       	rjmp	.-492    	; 0x4e9a <deal_key+0x5a6>
						}
						else
						{
							TRACE_STRING("w5500 set fail\r\n\0");
    5086:	60 e1       	ldi	r22, 0x10	; 16
    5088:	83 e6       	ldi	r24, 0x63	; 99
    508a:	92 e0       	ldi	r25, 0x02	; 2
    508c:	06 cf       	rjmp	.-500    	; 0x4e9a <deal_key+0x5a6>
				}
				break;

				case SET_SLAVE_USART_ADDR://磨辊合轧2014.6.6修改为离合闸复用
				{
					key_status[STATUS_LHZ_POS] = KEY_ON;
    508e:	81 e0       	ldi	r24, 0x01	; 1
    5090:	80 93 1f 0e 	sts	0x0E1F, r24
					//
					//set_idle_wait = 0;

                    m_rPara.para.addr_modbus = uart_rx_buf[5];
    5094:	60 91 39 0b 	lds	r22, 0x0B39
    5098:	60 93 72 0a 	sts	0x0A72, r22
                    eeprom_write_byte_user(&m_ePara[0].para.addr_modbus,m_rPara.para.addr_modbus);
    509c:	8a e1       	ldi	r24, 0x1A	; 26
    509e:	91 e0       	ldi	r25, 0x01	; 1
    50a0:	82 ce       	rjmp	.-764    	; 0x4da6 <deal_key+0x4b2>
				break;

				
				case SET_SLAVE_USART_COMM://磨辊合轧2014.6.6修改为离合闸复用
				{
					key_status[STATUS_LHZ_POS] = KEY_ON;
    50a2:	81 e0       	ldi	r24, 0x01	; 1
    50a4:	80 93 1f 0e 	sts	0x0E1F, r24
					//
					//set_idle_wait = 0;

                    m_rPara.para.set_yuzhi = uart_rx_buf[4] *256 + uart_rx_buf[5];
    50a8:	60 91 39 0b 	lds	r22, 0x0B39
    50ac:	60 93 98 0a 	sts	0x0A98, r22
                    eeprom_write_byte_user(&m_ePara[0].para.set_yuzhi,m_rPara.para.set_yuzhi);
    50b0:	80 e4       	ldi	r24, 0x40	; 64
    50b2:	91 e0       	ldi	r25, 0x01	; 1
    50b4:	78 ce       	rjmp	.-784    	; 0x4da6 <deal_key+0x4b2>
				}
				break;

                case SET_ZHUDIANJI_DIANLIU1://磨辊合轧2014.6.6修改为离合闸复用
				{
					key_status[STATUS_LHZ_POS] = KEY_ON;
    50b6:	81 e0       	ldi	r24, 0x01	; 1
    50b8:	80 93 1f 0e 	sts	0x0E1F, r24
					//
					//set_idle_wait = 0;
	

                            m_rPara.para.mmotor_cur2 = uart_rx_buf[4] *256 + uart_rx_buf[5];
    50bc:	60 91 39 0b 	lds	r22, 0x0B39
    50c0:	60 93 7a 0a 	sts	0x0A7A, r22
                            eeprom_write_byte_user(&m_ePara[0].para.mmotor_cur2,m_rPara.para.mmotor_cur2);
    50c4:	82 e2       	ldi	r24, 0x22	; 34
    50c6:	91 e0       	ldi	r25, 0x01	; 1
    50c8:	6e ce       	rjmp	.-804    	; 0x4da6 <deal_key+0x4b2>


                
				case KEY_TJ://停机
				{
					key_status[STATUS_TJ_POS] = KEY_ON;
    50ca:	81 e0       	ldi	r24, 0x01	; 1
    50cc:	80 93 20 0e 	sts	0x0E20, r24
					//
					if(0==bit_setmode)
    50d0:	80 91 c5 0a 	lds	r24, 0x0AC5
    50d4:	81 11       	cpse	r24, r1
    50d6:	06 c0       	rjmp	.+12     	; 0x50e4 <deal_key+0x7f0>
					{
						part_stop();
    50d8:	0e 94 39 0b 	call	0x1672	; 0x1672 <part_stop>
						li_he_zha = 0;
    50dc:	10 92 6a 08 	sts	0x086A, r1
    50e0:	10 92 69 08 	sts	0x0869, r1
					}
					bit_remote=0;//退出远控模式,不改变磨辊运行状态
    50e4:	10 92 40 0b 	sts	0x0B40, r1
    50e8:	2d ce       	rjmp	.-934    	; 0x4d44 <deal_key+0x450>
				}
				break;

				case KEY_CJ_TEMP://停机
				{
					key_status[STATUS_TJ_POS] = KEY_ON;
    50ea:	81 e0       	ldi	r24, 0x01	; 1
    50ec:	80 93 20 0e 	sts	0x0E20, r24
					tempe_flag = 1;
    50f0:	80 93 0d 08 	sts	0x080D, r24
					set_date = 0;
    50f4:	10 92 67 08 	sts	0x0867, r1
					bit_remote=0;
    50f8:	10 92 40 0b 	sts	0x0B40, r1
					//

				}
				break;
    50fc:	a6 c0       	rjmp	.+332    	; 0x524a <deal_key+0x956>
				
				case KEY_SDYX://手动运行
				{ 
					key_status[STATUS_SD_POS] = KEY_ON;
    50fe:	81 e0       	ldi	r24, 0x01	; 1
    5100:	80 93 1d 0e 	sts	0x0E1D, r24
					set_date = 0;
    5104:	10 92 67 08 	sts	0x0867, r1
					//
					if(1==bit_mmotor)
    5108:	80 91 43 0b 	lds	r24, 0x0B43
    510c:	81 30       	cpi	r24, 0x01	; 1
    510e:	09 f0       	breq	.+2      	; 0x5112 <deal_key+0x81e>
    5110:	19 ce       	rjmp	.-974    	; 0x4d44 <deal_key+0x450>
					{
						key_manual_run();
    5112:	0e 94 60 16 	call	0x2cc0	; 0x2cc0 <key_manual_run>
    5116:	16 ce       	rjmp	.-980    	; 0x4d44 <deal_key+0x450>
					set_date = 0;
				}
				break;
				case KEY_ZTJ://总停机
				{
					key_status[STATUS_ZTJ_POS] = KEY_ON;
    5118:	81 e0       	ldi	r24, 0x01	; 1
    511a:	80 93 26 0e 	sts	0x0E26, r24
					//
					li_he_zha = 0;
    511e:	10 92 6a 08 	sts	0x086A, r1
    5122:	10 92 69 08 	sts	0x0869, r1
					bit_remote=0;
    5126:	10 92 40 0b 	sts	0x0B40, r1
					all_stop();//键盘执行总停机
    512a:	0e 94 4d 0b 	call	0x169a	; 0x169a <all_stop>
					m_rPara.para.all_stop_id = 6;
    512e:	86 e0       	ldi	r24, 0x06	; 6
    5130:	80 93 6c 0a 	sts	0x0A6C, r24
    5134:	07 ce       	rjmp	.-1010   	; 0x4d44 <deal_key+0x450>
					set_date = 0;
				}
				break;
				case KEY_XL://卸料
				{
					key_status[STATUS_XL_POS] = KEY_ON;
    5136:	c1 e0       	ldi	r28, 0x01	; 1
    5138:	c0 93 1e 0e 	sts	0x0E1E, r28
					//
					//在自动和手动模式下不能切换到卸料
					if((0==bit_auto)&&(0==bit_manual))
    513c:	80 91 0d 0b 	lds	r24, 0x0B0D
    5140:	81 11       	cpse	r24, r1
    5142:	00 ce       	rjmp	.-1024   	; 0x4d44 <deal_key+0x450>
    5144:	80 91 fe 0a 	lds	r24, 0x0AFE
    5148:	81 11       	cpse	r24, r1
    514a:	fc cd       	rjmp	.-1032   	; 0x4d44 <deal_key+0x450>
					{
						fmotor_start();
    514c:	0e 94 20 0b 	call	0x1640	; 0x1640 <fmotor_start>
						bit_xieliao=1;
    5150:	c0 93 ed 0a 	sts	0x0AED, r28
    5154:	f7 cd       	rjmp	.-1042   	; 0x4d44 <deal_key+0x450>
					set_date = 0;
				}
				break;
				case KEY_YCKZ://远程控制
				{
					key_status[STATUS_YK_POS] = KEY_ON;
    5156:	81 e0       	ldi	r24, 0x01	; 1
    5158:	80 93 24 0e 	sts	0x0E24, r24
					//
					if (KEY_YCKZ == uart_rx_buf[3])
    515c:	90 91 37 0b 	lds	r25, 0x0B37
    5160:	92 33       	cpi	r25, 0x32	; 50
    5162:	09 f0       	breq	.+2      	; 0x5166 <deal_key+0x872>
    5164:	72 c0       	rjmp	.+228    	; 0x524a <deal_key+0x956>
					{
						bit_remote=1;
    5166:	80 93 40 0b 	sts	0x0B40, r24
						modbus_status.status.m_yk = STATUS_ON;
    516a:	80 91 19 0d 	lds	r24, 0x0D19
    516e:	81 60       	ori	r24, 0x01	; 1
    5170:	80 93 19 0d 	sts	0x0D19, r24
						bit_manual=0;
    5174:	10 92 fe 0a 	sts	0x0AFE, r1
						bit_xieliao=0;
    5178:	10 92 ed 0a 	sts	0x0AED, r1
						enable_mb_delay=0;
    517c:	10 92 ab 0a 	sts	0x0AAB, r1
    5180:	e1 cd       	rjmp	.-1086   	; 0x4d44 <deal_key+0x450>
					}
				}
				break;
				case KEY_DOWN:
				{
					key_status[STATUS_DOWN_POS] = KEY_ON;
    5182:	81 e0       	ldi	r24, 0x01	; 1
    5184:	80 93 23 0e 	sts	0x0E23, r24
					//
					key_down_handling();
    5188:	0e 94 06 23 	call	0x460c	; 0x460c <key_down_handling>
				}
				break;
    518c:	5e c0       	rjmp	.+188    	; 0x524a <deal_key+0x956>
				case KEY_UP:
				{
					key_status[STATUS_UP_POS] = KEY_ON;
    518e:	81 e0       	ldi	r24, 0x01	; 1
    5190:	80 93 22 0e 	sts	0x0E22, r24
					//
					key_up_handling();
    5194:	0e 94 88 21 	call	0x4310	; 0x4310 <key_up_handling>
				}
				break;
    5198:	58 c0       	rjmp	.+176    	; 0x524a <deal_key+0x956>
				case KEY_CSQR://参数确认
				{
					key_status[STATUS_QR_POS] = KEY_ON;
    519a:	81 e0       	ldi	r24, 0x01	; 1
    519c:	80 93 1a 0e 	sts	0x0E1A, r24
					//
					key_csqr_handling();
    51a0:	0e 94 4e 21 	call	0x429c	; 0x429c <key_csqr_handling>
				}
				break;
    51a4:	52 c0       	rjmp	.+164    	; 0x524a <deal_key+0x956>
				case SET_LIAOWEI_VALUE://料位参数模式设置
				{
					key_status[STATUS_LHZ_POS] = KEY_ON;
    51a6:	81 e0       	ldi	r24, 0x01	; 1
    51a8:	80 93 1f 0e 	sts	0x0E1F, r24


					*/

					
					if (uart_rx_buf[3] == 0x1)
    51ac:	80 91 37 0b 	lds	r24, 0x0B37
    51b0:	81 30       	cpi	r24, 0x01	; 1
    51b2:	c1 f4       	brne	.+48     	; 0x51e4 <deal_key+0x8f0>
					{
						//默认转速之间
						if (uart_rx_buf[5] > m_rPara.para.min_vel 
    51b4:	60 91 39 0b 	lds	r22, 0x0B39
    51b8:	86 2f       	mov	r24, r22
    51ba:	90 e0       	ldi	r25, 0x00	; 0
    51bc:	20 91 5e 0a 	lds	r18, 0x0A5E
    51c0:	30 91 5f 0a 	lds	r19, 0x0A5F
    51c4:	28 17       	cp	r18, r24
    51c6:	39 07       	cpc	r19, r25
    51c8:	08 f0       	brcs	.+2      	; 0x51cc <deal_key+0x8d8>
    51ca:	3f c0       	rjmp	.+126    	; 0x524a <deal_key+0x956>
							&&  uart_rx_buf[5] < m_rPara.para.max_vel)
    51cc:	20 91 5c 0a 	lds	r18, 0x0A5C
    51d0:	30 91 5d 0a 	lds	r19, 0x0A5D
    51d4:	82 17       	cp	r24, r18
    51d6:	93 07       	cpc	r25, r19
    51d8:	c0 f5       	brcc	.+112    	; 0x524a <deal_key+0x956>
						{
							m_rPara.para.set_default_zhuansu =  uart_rx_buf[5];
    51da:	60 93 99 0a 	sts	0x0A99, r22
							eeprom_write_byte_user(&m_ePara[0].para.set_default_zhuansu,m_rPara.para.set_default_zhuansu);	
    51de:	81 e4       	ldi	r24, 0x41	; 65
    51e0:	91 e0       	ldi	r25, 0x01	; 1
    51e2:	31 c0       	rjmp	.+98     	; 0x5246 <deal_key+0x952>

						}

						
					}else if (uart_rx_buf[3] == 0x2)
    51e4:	82 30       	cpi	r24, 0x02	; 2
    51e6:	49 f4       	brne	.+18     	; 0x51fa <deal_key+0x906>
					{
						//模式
						if (uart_rx_buf[5] == 0
    51e8:	60 91 39 0b 	lds	r22, 0x0B39
    51ec:	62 30       	cpi	r22, 0x02	; 2
    51ee:	68 f5       	brcc	.+90     	; 0x524a <deal_key+0x956>
							||  uart_rx_buf[5]  == 1)
						{
							m_rPara.para.set_model = uart_rx_buf[5];
    51f0:	60 93 9a 0a 	sts	0x0A9A, r22
							eeprom_write_byte_user(&m_ePara[0].para.set_model,m_rPara.para.set_model);	
    51f4:	82 e4       	ldi	r24, 0x42	; 66
    51f6:	91 e0       	ldi	r25, 0x01	; 1
    51f8:	26 c0       	rjmp	.+76     	; 0x5246 <deal_key+0x952>

						}

						
					}else if (uart_rx_buf[3] == 0x3)
    51fa:	83 30       	cpi	r24, 0x03	; 3
    51fc:	59 f4       	brne	.+22     	; 0x5214 <deal_key+0x920>
					{
						//比例参数
						if (uart_rx_buf[5]  > 0
    51fe:	60 91 39 0b 	lds	r22, 0x0B39
							&&  uart_rx_buf[5] < 80)
    5202:	8f ef       	ldi	r24, 0xFF	; 255
    5204:	86 0f       	add	r24, r22

						
					}else if (uart_rx_buf[3] == 0x3)
					{
						//比例参数
						if (uart_rx_buf[5]  > 0
    5206:	8f 34       	cpi	r24, 0x4F	; 79
    5208:	00 f5       	brcc	.+64     	; 0x524a <deal_key+0x956>
							&&  uart_rx_buf[5] < 80)
						{
							m_rPara.para.set_wuliao_PID_P = uart_rx_buf[5];
    520a:	60 93 9b 0a 	sts	0x0A9B, r22
							eeprom_write_byte_user(&m_ePara[0].para.set_wuliao_PID_P,m_rPara.para.set_wuliao_PID_P);	
    520e:	83 e4       	ldi	r24, 0x43	; 67
    5210:	91 e0       	ldi	r25, 0x01	; 1
    5212:	19 c0       	rjmp	.+50     	; 0x5246 <deal_key+0x952>

						}

						
					}else if (uart_rx_buf[3] == 0x4)
    5214:	84 30       	cpi	r24, 0x04	; 4
    5216:	59 f4       	brne	.+22     	; 0x522e <deal_key+0x93a>
					{
						if (uart_rx_buf[5]	> 4
    5218:	60 91 39 0b 	lds	r22, 0x0B39
							&&	uart_rx_buf[5] < 20)
    521c:	8b ef       	ldi	r24, 0xFB	; 251
    521e:	86 0f       	add	r24, r22
						}

						
					}else if (uart_rx_buf[3] == 0x4)
					{
						if (uart_rx_buf[5]	> 4
    5220:	8f 30       	cpi	r24, 0x0F	; 15
    5222:	98 f4       	brcc	.+38     	; 0x524a <deal_key+0x956>
							&&	uart_rx_buf[5] < 20)
						{
							m_rPara.para.set_qiwang_value = uart_rx_buf[5];
    5224:	60 93 9c 0a 	sts	0x0A9C, r22
							eeprom_write_byte_user(&m_ePara[0].para.set_qiwang_value,m_rPara.para.set_qiwang_value);	
    5228:	84 e4       	ldi	r24, 0x44	; 68
    522a:	91 e0       	ldi	r25, 0x01	; 1
    522c:	0c c0       	rjmp	.+24     	; 0x5246 <deal_key+0x952>
						
						}
						
					}else if (uart_rx_buf[3] == 0x5)
    522e:	85 30       	cpi	r24, 0x05	; 5
    5230:	61 f4       	brne	.+24     	; 0x524a <deal_key+0x956>
					{
						if (uart_rx_buf[5]	> 1
    5232:	60 91 39 0b 	lds	r22, 0x0B39
							&&	uart_rx_buf[5] < 30)
    5236:	8e ef       	ldi	r24, 0xFE	; 254
    5238:	86 0f       	add	r24, r22
						
						}
						
					}else if (uart_rx_buf[3] == 0x5)
					{
						if (uart_rx_buf[5]	> 1
    523a:	8c 31       	cpi	r24, 0x1C	; 28
    523c:	30 f4       	brcc	.+12     	; 0x524a <deal_key+0x956>
							&&	uart_rx_buf[5] < 30)
						{
							m_rPara.para.set_yuankong_auto_delay = uart_rx_buf[5];
    523e:	60 93 9d 0a 	sts	0x0A9D, r22
							eeprom_write_byte_user(&m_ePara[0].para.set_yuankong_auto_delay,m_rPara.para.set_yuankong_auto_delay);	
    5242:	85 e4       	ldi	r24, 0x45	; 69
    5244:	91 e0       	ldi	r25, 0x01	; 1
    5246:	0e 94 a8 0f 	call	0x1f50	; 0x1f50 <eeprom_write_byte_user>
					//set_date =1;
				}
				break;
			}
			//如果空闲时间超过1s了,说明刚才按的键肯定不会是设置模式下的按键
			if(set_idle_wait > 1)
    524a:	80 91 de 0a 	lds	r24, 0x0ADE
    524e:	82 30       	cpi	r24, 0x02	; 2
    5250:	58 f0       	brcs	.+22     	; 0x5268 <deal_key+0x974>
			{
				TRACE_STRING("jingruguozuomoshi8");
    5252:	62 e1       	ldi	r22, 0x12	; 18
    5254:	84 ec       	ldi	r24, 0xC4	; 196
    5256:	97 e0       	ldi	r25, 0x07	; 7
    5258:	0e 94 20 2b 	call	0x5640	; 0x5640 <send_uart1_to_computer>
				reset_set_status();
    525c:	0e 94 30 15 	call	0x2a60	; 0x2a60 <reset_set_status>
				//
				bit_monitor_mode = 0;
    5260:	10 92 f2 0a 	sts	0x0AF2, r1
				bit_alarm_mode = 0;
    5264:	10 92 df 0a 	sts	0x0ADF, r1
			}
		}
	}
}
    5268:	df 91       	pop	r29
    526a:	cf 91       	pop	r28
    526c:	1f 91       	pop	r17
    526e:	0f 91       	pop	r16
    5270:	ff 90       	pop	r15
    5272:	08 95       	ret

00005274 <SetTimer>:
volatile TIMER_PARA_PKT soft_timer[SOFT_TIMER_NUM];
volatile unsigned int soft_timer_id;
/////////////////////////////////////////////
//
unsigned short SetTimer(unsigned short id,unsigned long ms,signed char retry)
{	
    5274:	0f 93       	push	r16
    5276:	1f 93       	push	r17
    5278:	cf 93       	push	r28
    527a:	c2 2f       	mov	r28, r18
	//软件定时器细粒度由主时钟定时器细粒度决定，软件定时器定时时间大于
	//实际设置的时间，但一般不会多于一个主时钟定时器的细粒度。如本项目
	//中，软件定时器的定时时间一般不会比设置值多1ms。
	unsigned int i;
	//
	if(SOFT_TIMER_ERROR == id)
    527c:	00 97       	sbiw	r24, 0x00	; 0
    527e:	09 f4       	brne	.+2      	; 0x5282 <SetTimer+0xe>
    5280:	69 c0       	rjmp	.+210    	; 0x5354 <SetTimer+0xe0>
	{
		return SOFT_TIMER_ERROR;
	}
	if(0 == ms)
    5282:	41 15       	cp	r20, r1
    5284:	51 05       	cpc	r21, r1
    5286:	61 05       	cpc	r22, r1
    5288:	71 05       	cpc	r23, r1
    528a:	09 f4       	brne	.+2      	; 0x528e <SetTimer+0x1a>
    528c:	63 c0       	rjmp	.+198    	; 0x5354 <SetTimer+0xe0>
    528e:	20 e0       	ldi	r18, 0x00	; 0
    5290:	30 e0       	ldi	r19, 0x00	; 0
	}
	//
	//搜索id号匹配的软件定时器
	for(i=0; i<SOFT_TIMER_NUM; i++)
	{
		if(soft_timer[i].id == id)
    5292:	1c e0       	ldi	r17, 0x0C	; 12
    5294:	12 9f       	mul	r17, r18
    5296:	f0 01       	movw	r30, r0
    5298:	13 9f       	mul	r17, r19
    529a:	f0 0d       	add	r31, r0
    529c:	11 24       	eor	r1, r1
    529e:	e0 5d       	subi	r30, 0xD0	; 208
    52a0:	f1 4f       	sbci	r31, 0xF1	; 241
    52a2:	a0 81       	ld	r26, Z
    52a4:	b1 81       	ldd	r27, Z+1	; 0x01
    52a6:	a8 17       	cp	r26, r24
    52a8:	b9 07       	cpc	r27, r25
    52aa:	e1 f4       	brne	.+56     	; 0x52e4 <SetTimer+0x70>
		{
			soft_timer[i].enable = TRUE;
    52ac:	81 e0       	ldi	r24, 0x01	; 1
    52ae:	83 87       	std	Z+11, r24	; 0x0b
			soft_timer[i].ms = ms; //如果一个boot_time的值不是代表1ms，那么在该位置要将ms值转换为boot_time代表的值，比如boot_time一个值代表5ms，那么ms应该除以5
    52b0:	42 83       	std	Z+2, r20	; 0x02
    52b2:	53 83       	std	Z+3, r21	; 0x03
    52b4:	64 83       	std	Z+4, r22	; 0x04
    52b6:	75 83       	std	Z+5, r23	; 0x05
			soft_timer[i].overtime = soft_timer[i].ms + boot_time;
    52b8:	02 81       	ldd	r16, Z+2	; 0x02
    52ba:	13 81       	ldd	r17, Z+3	; 0x03
    52bc:	24 81       	ldd	r18, Z+4	; 0x04
    52be:	35 81       	ldd	r19, Z+5	; 0x05
    52c0:	40 91 58 0b 	lds	r20, 0x0B58
    52c4:	50 91 59 0b 	lds	r21, 0x0B59
    52c8:	60 91 5a 0b 	lds	r22, 0x0B5A
    52cc:	70 91 5b 0b 	lds	r23, 0x0B5B
    52d0:	40 0f       	add	r20, r16
    52d2:	51 1f       	adc	r21, r17
    52d4:	62 1f       	adc	r22, r18
    52d6:	73 1f       	adc	r23, r19
    52d8:	46 83       	std	Z+6, r20	; 0x06
    52da:	57 83       	std	Z+7, r21	; 0x07
    52dc:	60 87       	std	Z+8, r22	; 0x08
    52de:	71 87       	std	Z+9, r23	; 0x09
			soft_timer[i].retry = retry;
    52e0:	c2 87       	std	Z+10, r28	; 0x0a
			//
			return id;
    52e2:	3a c0       	rjmp	.+116    	; 0x5358 <SetTimer+0xe4>
	{
		return SOFT_TIMER_ERROR;
	}
	//
	//搜索id号匹配的软件定时器
	for(i=0; i<SOFT_TIMER_NUM; i++)
    52e4:	2f 5f       	subi	r18, 0xFF	; 255
    52e6:	3f 4f       	sbci	r19, 0xFF	; 255
    52e8:	28 30       	cpi	r18, 0x08	; 8
    52ea:	31 05       	cpc	r19, r1
    52ec:	99 f6       	brne	.-90     	; 0x5294 <SetTimer+0x20>
    52ee:	20 e0       	ldi	r18, 0x00	; 0
    52f0:	30 e0       	ldi	r19, 0x00	; 0
	}
	//
	//id号匹配的软件定时器没有找到，搜索空闲的软件定时器
	for(i=0; i<SOFT_TIMER_NUM; i++)
	{
		if(FALSE == soft_timer[i].enable)
    52f2:	1c e0       	ldi	r17, 0x0C	; 12
    52f4:	12 9f       	mul	r17, r18
    52f6:	f0 01       	movw	r30, r0
    52f8:	13 9f       	mul	r17, r19
    52fa:	f0 0d       	add	r31, r0
    52fc:	11 24       	eor	r1, r1
    52fe:	e0 5d       	subi	r30, 0xD0	; 208
    5300:	f1 4f       	sbci	r31, 0xF1	; 241
    5302:	df 01       	movw	r26, r30
    5304:	1b 96       	adiw	r26, 0x0b	; 11
    5306:	03 85       	ldd	r16, Z+11	; 0x0b
    5308:	01 11       	cpse	r16, r1
    530a:	1f c0       	rjmp	.+62     	; 0x534a <SetTimer+0xd6>
		{
			soft_timer[i].enable = TRUE;
    530c:	21 e0       	ldi	r18, 0x01	; 1
    530e:	2c 93       	st	X, r18
			soft_timer[i].id = id;
    5310:	91 83       	std	Z+1, r25	; 0x01
    5312:	80 83       	st	Z, r24
			soft_timer[i].ms = ms;
    5314:	42 83       	std	Z+2, r20	; 0x02
    5316:	53 83       	std	Z+3, r21	; 0x03
    5318:	64 83       	std	Z+4, r22	; 0x04
    531a:	75 83       	std	Z+5, r23	; 0x05
			soft_timer[i].overtime = soft_timer[i].ms + boot_time;
    531c:	02 81       	ldd	r16, Z+2	; 0x02
    531e:	13 81       	ldd	r17, Z+3	; 0x03
    5320:	24 81       	ldd	r18, Z+4	; 0x04
    5322:	35 81       	ldd	r19, Z+5	; 0x05
    5324:	40 91 58 0b 	lds	r20, 0x0B58
    5328:	50 91 59 0b 	lds	r21, 0x0B59
    532c:	60 91 5a 0b 	lds	r22, 0x0B5A
    5330:	70 91 5b 0b 	lds	r23, 0x0B5B
    5334:	40 0f       	add	r20, r16
    5336:	51 1f       	adc	r21, r17
    5338:	62 1f       	adc	r22, r18
    533a:	73 1f       	adc	r23, r19
    533c:	46 83       	std	Z+6, r20	; 0x06
    533e:	57 83       	std	Z+7, r21	; 0x07
    5340:	60 87       	std	Z+8, r22	; 0x08
    5342:	71 87       	std	Z+9, r23	; 0x09
			soft_timer[i].retry = retry;
    5344:	c2 87       	std	Z+10, r28	; 0x0a
			//
			return id;			
    5346:	dc 01       	movw	r26, r24
    5348:	07 c0       	rjmp	.+14     	; 0x5358 <SetTimer+0xe4>
			return id;
		}
	}
	//
	//id号匹配的软件定时器没有找到，搜索空闲的软件定时器
	for(i=0; i<SOFT_TIMER_NUM; i++)
    534a:	2f 5f       	subi	r18, 0xFF	; 255
    534c:	3f 4f       	sbci	r19, 0xFF	; 255
    534e:	28 30       	cpi	r18, 0x08	; 8
    5350:	31 05       	cpc	r19, r1
    5352:	81 f6       	brne	.-96     	; 0x52f4 <SetTimer+0x80>
	//中，软件定时器的定时时间一般不会比设置值多1ms。
	unsigned int i;
	//
	if(SOFT_TIMER_ERROR == id)
	{
		return SOFT_TIMER_ERROR;
    5354:	a0 e0       	ldi	r26, 0x00	; 0
    5356:	b0 e0       	ldi	r27, 0x00	; 0
			return id;			
		}
	}
	//
	return SOFT_TIMER_ERROR;
}
    5358:	cd 01       	movw	r24, r26
    535a:	cf 91       	pop	r28
    535c:	1f 91       	pop	r17
    535e:	0f 91       	pop	r16
    5360:	08 95       	ret

00005362 <KillTimer>:
/////////////////////////////////////////////
unsigned short KillTimer(unsigned short id)
{
    5362:	ac 01       	movw	r20, r24
	//关闭定时器
	//
	unsigned int i;
	//
	if(SOFT_TIMER_ERROR == id)
    5364:	00 97       	sbiw	r24, 0x00	; 0
    5366:	b1 f0       	breq	.+44     	; 0x5394 <KillTimer+0x32>
    5368:	20 e0       	ldi	r18, 0x00	; 0
    536a:	30 e0       	ldi	r19, 0x00	; 0
	}
	//
	for(i=0; i<SOFT_TIMER_NUM; i++)
	{
		//搜索指定的定时器并关闭它
		if(soft_timer[i].id == id)
    536c:	6c e0       	ldi	r22, 0x0C	; 12
    536e:	62 9f       	mul	r22, r18
    5370:	f0 01       	movw	r30, r0
    5372:	63 9f       	mul	r22, r19
    5374:	f0 0d       	add	r31, r0
    5376:	11 24       	eor	r1, r1
    5378:	e0 5d       	subi	r30, 0xD0	; 208
    537a:	f1 4f       	sbci	r31, 0xF1	; 241
    537c:	80 81       	ld	r24, Z
    537e:	91 81       	ldd	r25, Z+1	; 0x01
    5380:	84 17       	cp	r24, r20
    5382:	95 07       	cpc	r25, r21
    5384:	11 f4       	brne	.+4      	; 0x538a <KillTimer+0x28>
		{
			soft_timer[i].enable = FALSE;
    5386:	13 86       	std	Z+11, r1	; 0x0b
			return id;
    5388:	08 95       	ret
	if(SOFT_TIMER_ERROR == id)
	{
		return SOFT_TIMER_ERROR;
	}
	//
	for(i=0; i<SOFT_TIMER_NUM; i++)
    538a:	2f 5f       	subi	r18, 0xFF	; 255
    538c:	3f 4f       	sbci	r19, 0xFF	; 255
    538e:	28 30       	cpi	r18, 0x08	; 8
    5390:	31 05       	cpc	r19, r1
    5392:	69 f7       	brne	.-38     	; 0x536e <KillTimer+0xc>
	//
	unsigned int i;
	//
	if(SOFT_TIMER_ERROR == id)
	{
		return SOFT_TIMER_ERROR;
    5394:	80 e0       	ldi	r24, 0x00	; 0
    5396:	90 e0       	ldi	r25, 0x00	; 0
			return id;
		}
	}
	//
	return SOFT_TIMER_ERROR;
}
    5398:	08 95       	ret

0000539a <timer_run>:
/////////////////////////////////////////////
void timer_run(void)
{
    539a:	cf 93       	push	r28
    539c:	df 93       	push	r29
	//定时器允许的主体函数，放到主程序的主循环中
	//
	int id;
	//
	//避免初始化异常
	soft_timer_id %= SOFT_TIMER_NUM;
    539e:	80 91 2e 0e 	lds	r24, 0x0E2E
    53a2:	90 91 2f 0e 	lds	r25, 0x0E2F
    53a6:	87 70       	andi	r24, 0x07	; 7
    53a8:	99 27       	eor	r25, r25
    53aa:	90 93 2f 0e 	sts	0x0E2F, r25
    53ae:	80 93 2e 0e 	sts	0x0E2E, r24
    53b2:	28 e0       	ldi	r18, 0x08	; 8
    53b4:	30 e0       	ldi	r19, 0x00	; 0
	//
	for(id=0; id<SOFT_TIMER_NUM; id++)
	{
		if(TRUE == soft_timer[soft_timer_id].enable)
    53b6:	dc e0       	ldi	r29, 0x0C	; 12
    53b8:	80 91 2e 0e 	lds	r24, 0x0E2E
    53bc:	90 91 2f 0e 	lds	r25, 0x0E2F
    53c0:	cc e0       	ldi	r28, 0x0C	; 12
    53c2:	d8 9f       	mul	r29, r24
    53c4:	f0 01       	movw	r30, r0
    53c6:	d9 9f       	mul	r29, r25
    53c8:	f0 0d       	add	r31, r0
    53ca:	11 24       	eor	r1, r1
    53cc:	e0 5d       	subi	r30, 0xD0	; 208
    53ce:	f1 4f       	sbci	r31, 0xF1	; 241
    53d0:	83 85       	ldd	r24, Z+11	; 0x0b
    53d2:	81 30       	cpi	r24, 0x01	; 1
    53d4:	09 f0       	breq	.+2      	; 0x53d8 <timer_run+0x3e>
    53d6:	b0 c0       	rjmp	.+352    	; 0x5538 <timer_run+0x19e>
		{
			if(boot_time >= soft_timer[soft_timer_id].overtime)
    53d8:	40 91 58 0b 	lds	r20, 0x0B58
    53dc:	50 91 59 0b 	lds	r21, 0x0B59
    53e0:	60 91 5a 0b 	lds	r22, 0x0B5A
    53e4:	70 91 5b 0b 	lds	r23, 0x0B5B
    53e8:	80 91 2e 0e 	lds	r24, 0x0E2E
    53ec:	90 91 2f 0e 	lds	r25, 0x0E2F
    53f0:	d8 9f       	mul	r29, r24
    53f2:	f0 01       	movw	r30, r0
    53f4:	d9 9f       	mul	r29, r25
    53f6:	f0 0d       	add	r31, r0
    53f8:	11 24       	eor	r1, r1
    53fa:	e0 5d       	subi	r30, 0xD0	; 208
    53fc:	f1 4f       	sbci	r31, 0xF1	; 241
    53fe:	86 81       	ldd	r24, Z+6	; 0x06
    5400:	97 81       	ldd	r25, Z+7	; 0x07
    5402:	a0 85       	ldd	r26, Z+8	; 0x08
    5404:	b1 85       	ldd	r27, Z+9	; 0x09
    5406:	48 17       	cp	r20, r24
    5408:	59 07       	cpc	r21, r25
    540a:	6a 07       	cpc	r22, r26
    540c:	7b 07       	cpc	r23, r27
    540e:	08 f4       	brcc	.+2      	; 0x5412 <timer_run+0x78>
    5410:	93 c0       	rjmp	.+294    	; 0x5538 <timer_run+0x19e>
			{
				//根据重试参数判断是否关闭定时器
				if(-1 != soft_timer[soft_timer_id].retry)
    5412:	80 91 2e 0e 	lds	r24, 0x0E2E
    5416:	90 91 2f 0e 	lds	r25, 0x0E2F
    541a:	c8 9f       	mul	r28, r24
    541c:	f0 01       	movw	r30, r0
    541e:	c9 9f       	mul	r28, r25
    5420:	f0 0d       	add	r31, r0
    5422:	11 24       	eor	r1, r1
    5424:	e0 5d       	subi	r30, 0xD0	; 208
    5426:	f1 4f       	sbci	r31, 0xF1	; 241
    5428:	82 85       	ldd	r24, Z+10	; 0x0a
    542a:	8f 3f       	cpi	r24, 0xFF	; 255
    542c:	49 f1       	breq	.+82     	; 0x5480 <timer_run+0xe6>
				{
					//重试次数为-1代表一直运行
					if(soft_timer[soft_timer_id].retry > 0)
    542e:	80 91 2e 0e 	lds	r24, 0x0E2E
    5432:	90 91 2f 0e 	lds	r25, 0x0E2F
    5436:	c8 9f       	mul	r28, r24
    5438:	f0 01       	movw	r30, r0
    543a:	c9 9f       	mul	r28, r25
    543c:	f0 0d       	add	r31, r0
    543e:	11 24       	eor	r1, r1
    5440:	e0 5d       	subi	r30, 0xD0	; 208
    5442:	f1 4f       	sbci	r31, 0xF1	; 241
    5444:	82 85       	ldd	r24, Z+10	; 0x0a
    5446:	18 16       	cp	r1, r24
    5448:	7c f4       	brge	.+30     	; 0x5468 <timer_run+0xce>
					{
						//减重试次数
						soft_timer[soft_timer_id].retry--;
    544a:	80 91 2e 0e 	lds	r24, 0x0E2E
    544e:	90 91 2f 0e 	lds	r25, 0x0E2F
    5452:	c8 9f       	mul	r28, r24
    5454:	f0 01       	movw	r30, r0
    5456:	c9 9f       	mul	r28, r25
    5458:	f0 0d       	add	r31, r0
    545a:	11 24       	eor	r1, r1
    545c:	e0 5d       	subi	r30, 0xD0	; 208
    545e:	f1 4f       	sbci	r31, 0xF1	; 241
    5460:	82 85       	ldd	r24, Z+10	; 0x0a
    5462:	81 50       	subi	r24, 0x01	; 1
    5464:	82 87       	std	Z+10, r24	; 0x0a
    5466:	0c c0       	rjmp	.+24     	; 0x5480 <timer_run+0xe6>
					}
					else
					{
						//关闭定时器
						soft_timer[soft_timer_id].enable = FALSE;
    5468:	80 91 2e 0e 	lds	r24, 0x0E2E
    546c:	90 91 2f 0e 	lds	r25, 0x0E2F
    5470:	c8 9f       	mul	r28, r24
    5472:	f0 01       	movw	r30, r0
    5474:	c9 9f       	mul	r28, r25
    5476:	f0 0d       	add	r31, r0
    5478:	11 24       	eor	r1, r1
    547a:	e0 5d       	subi	r30, 0xD0	; 208
    547c:	f1 4f       	sbci	r31, 0xF1	; 241
    547e:	13 86       	std	Z+11, r1	; 0x0b
					}					
				}
				//
				//在执行定时器服务程序的过程中能够再次设置定时器				
				OnTimer(soft_timer[soft_timer_id].id);//定时器溢出处理
    5480:	80 91 2e 0e 	lds	r24, 0x0E2E
    5484:	90 91 2f 0e 	lds	r25, 0x0E2F
    5488:	cc e0       	ldi	r28, 0x0C	; 12
    548a:	c8 9f       	mul	r28, r24
    548c:	f0 01       	movw	r30, r0
    548e:	c9 9f       	mul	r28, r25
    5490:	f0 0d       	add	r31, r0
    5492:	11 24       	eor	r1, r1
    5494:	e0 5d       	subi	r30, 0xD0	; 208
    5496:	f1 4f       	sbci	r31, 0xF1	; 241
    5498:	80 81       	ld	r24, Z
    549a:	91 81       	ldd	r25, Z+1	; 0x01
    549c:	0e 94 2a 05 	call	0xa54	; 0xa54 <OnTimer>
				//
				//定时器服务程序运行时间不算在定时时间内
				if(TRUE == soft_timer[soft_timer_id].enable)
    54a0:	80 91 2e 0e 	lds	r24, 0x0E2E
    54a4:	90 91 2f 0e 	lds	r25, 0x0E2F
    54a8:	c8 9f       	mul	r28, r24
    54aa:	f0 01       	movw	r30, r0
    54ac:	c9 9f       	mul	r28, r25
    54ae:	f0 0d       	add	r31, r0
    54b0:	11 24       	eor	r1, r1
    54b2:	e0 5d       	subi	r30, 0xD0	; 208
    54b4:	f1 4f       	sbci	r31, 0xF1	; 241
    54b6:	83 85       	ldd	r24, Z+11	; 0x0b
    54b8:	81 30       	cpi	r24, 0x01	; 1
    54ba:	51 f5       	brne	.+84     	; 0x5510 <timer_run+0x176>
				{
					//定时继续运行，重置定时器时间
					soft_timer[soft_timer_id].overtime = soft_timer[soft_timer_id].ms + boot_time;
    54bc:	20 91 2e 0e 	lds	r18, 0x0E2E
    54c0:	30 91 2f 0e 	lds	r19, 0x0E2F
    54c4:	80 91 2e 0e 	lds	r24, 0x0E2E
    54c8:	90 91 2f 0e 	lds	r25, 0x0E2F
    54cc:	c8 9f       	mul	r28, r24
    54ce:	f0 01       	movw	r30, r0
    54d0:	c9 9f       	mul	r28, r25
    54d2:	f0 0d       	add	r31, r0
    54d4:	11 24       	eor	r1, r1
    54d6:	e0 5d       	subi	r30, 0xD0	; 208
    54d8:	f1 4f       	sbci	r31, 0xF1	; 241
    54da:	42 81       	ldd	r20, Z+2	; 0x02
    54dc:	53 81       	ldd	r21, Z+3	; 0x03
    54de:	64 81       	ldd	r22, Z+4	; 0x04
    54e0:	75 81       	ldd	r23, Z+5	; 0x05
    54e2:	80 91 58 0b 	lds	r24, 0x0B58
    54e6:	90 91 59 0b 	lds	r25, 0x0B59
    54ea:	a0 91 5a 0b 	lds	r26, 0x0B5A
    54ee:	b0 91 5b 0b 	lds	r27, 0x0B5B
    54f2:	84 0f       	add	r24, r20
    54f4:	95 1f       	adc	r25, r21
    54f6:	a6 1f       	adc	r26, r22
    54f8:	b7 1f       	adc	r27, r23
    54fa:	c2 9f       	mul	r28, r18
    54fc:	f0 01       	movw	r30, r0
    54fe:	c3 9f       	mul	r28, r19
    5500:	f0 0d       	add	r31, r0
    5502:	11 24       	eor	r1, r1
    5504:	e0 5d       	subi	r30, 0xD0	; 208
    5506:	f1 4f       	sbci	r31, 0xF1	; 241
    5508:	86 83       	std	Z+6, r24	; 0x06
    550a:	97 83       	std	Z+7, r25	; 0x07
    550c:	a0 87       	std	Z+8, r26	; 0x08
    550e:	b1 87       	std	Z+9, r27	; 0x09
				}
				//
				soft_timer_id++;
    5510:	80 91 2e 0e 	lds	r24, 0x0E2E
    5514:	90 91 2f 0e 	lds	r25, 0x0E2F
    5518:	01 96       	adiw	r24, 0x01	; 1
    551a:	90 93 2f 0e 	sts	0x0E2F, r25
    551e:	80 93 2e 0e 	sts	0x0E2E, r24
				soft_timer_id %= SOFT_TIMER_NUM;
    5522:	80 91 2e 0e 	lds	r24, 0x0E2E
    5526:	90 91 2f 0e 	lds	r25, 0x0E2F
    552a:	87 70       	andi	r24, 0x07	; 7
    552c:	99 27       	eor	r25, r25
    552e:	90 93 2f 0e 	sts	0x0E2F, r25
    5532:	80 93 2e 0e 	sts	0x0E2E, r24
				//
				return;//执行了一次有效的定时服务后退出，等待下次扫描
    5536:	19 c0       	rjmp	.+50     	; 0x556a <timer_run+0x1d0>
			}
		}
		//
		soft_timer_id++;
    5538:	80 91 2e 0e 	lds	r24, 0x0E2E
    553c:	90 91 2f 0e 	lds	r25, 0x0E2F
    5540:	01 96       	adiw	r24, 0x01	; 1
    5542:	90 93 2f 0e 	sts	0x0E2F, r25
    5546:	80 93 2e 0e 	sts	0x0E2E, r24
		soft_timer_id %= SOFT_TIMER_NUM;	
    554a:	80 91 2e 0e 	lds	r24, 0x0E2E
    554e:	90 91 2f 0e 	lds	r25, 0x0E2F
    5552:	87 70       	andi	r24, 0x07	; 7
    5554:	99 27       	eor	r25, r25
    5556:	90 93 2f 0e 	sts	0x0E2F, r25
    555a:	80 93 2e 0e 	sts	0x0E2E, r24
    555e:	21 50       	subi	r18, 0x01	; 1
    5560:	31 09       	sbc	r19, r1
	int id;
	//
	//避免初始化异常
	soft_timer_id %= SOFT_TIMER_NUM;
	//
	for(id=0; id<SOFT_TIMER_NUM; id++)
    5562:	21 15       	cp	r18, r1
    5564:	31 05       	cpc	r19, r1
    5566:	09 f0       	breq	.+2      	; 0x556a <timer_run+0x1d0>
    5568:	27 cf       	rjmp	.-434    	; 0x53b8 <timer_run+0x1e>
		}
		//
		soft_timer_id++;
		soft_timer_id %= SOFT_TIMER_NUM;	
	}		
}
    556a:	df 91       	pop	r29
    556c:	cf 91       	pop	r28
    556e:	08 95       	ret

00005570 <init_soft_timer>:
/////////////////////////////////////////////
void init_soft_timer(void)
{
	//在主程序初始化函数中调用
	boot_time=0;
    5570:	10 92 58 0b 	sts	0x0B58, r1
    5574:	10 92 59 0b 	sts	0x0B59, r1
    5578:	10 92 5a 0b 	sts	0x0B5A, r1
    557c:	10 92 5b 0b 	sts	0x0B5B, r1
	soft_timer_id = 0;
    5580:	10 92 2f 0e 	sts	0x0E2F, r1
    5584:	10 92 2e 0e 	sts	0x0E2E, r1
	//
	memset((char*)&soft_timer,0x00,sizeof(soft_timer));
    5588:	80 e6       	ldi	r24, 0x60	; 96
    558a:	e0 e3       	ldi	r30, 0x30	; 48
    558c:	fe e0       	ldi	r31, 0x0E	; 14
    558e:	df 01       	movw	r26, r30
    5590:	1d 92       	st	X+, r1
    5592:	8a 95       	dec	r24
    5594:	e9 f7       	brne	.-6      	; 0x5590 <init_soft_timer+0x20>
    5596:	08 95       	ret

00005598 <timer_is_running>:
unsigned char timer_is_running(unsigned short id)
{	
	//判断某个ID对应的定时器是否在运行
	unsigned int i;
	//
	if(SOFT_TIMER_ERROR == id)
    5598:	00 97       	sbiw	r24, 0x00	; 0
    559a:	b1 f0       	breq	.+44     	; 0x55c8 <timer_is_running+0x30>
    559c:	20 e0       	ldi	r18, 0x00	; 0
    559e:	30 e0       	ldi	r19, 0x00	; 0
	}
	//
	//搜索id号匹配的软件定时器
	for(i=0; i<SOFT_TIMER_NUM; i++)
	{
		if(soft_timer[i].id == id)
    55a0:	6c e0       	ldi	r22, 0x0C	; 12
    55a2:	62 9f       	mul	r22, r18
    55a4:	f0 01       	movw	r30, r0
    55a6:	63 9f       	mul	r22, r19
    55a8:	f0 0d       	add	r31, r0
    55aa:	11 24       	eor	r1, r1
    55ac:	e0 5d       	subi	r30, 0xD0	; 208
    55ae:	f1 4f       	sbci	r31, 0xF1	; 241
    55b0:	40 81       	ld	r20, Z
    55b2:	51 81       	ldd	r21, Z+1	; 0x01
    55b4:	48 17       	cp	r20, r24
    55b6:	59 07       	cpc	r21, r25
    55b8:	11 f4       	brne	.+4      	; 0x55be <timer_is_running+0x26>
		{
			return soft_timer[i].enable;
    55ba:	83 85       	ldd	r24, Z+11	; 0x0b
    55bc:	08 95       	ret
	{
		return SOFT_TIMER_ERROR;
	}
	//
	//搜索id号匹配的软件定时器
	for(i=0; i<SOFT_TIMER_NUM; i++)
    55be:	2f 5f       	subi	r18, 0xFF	; 255
    55c0:	3f 4f       	sbci	r19, 0xFF	; 255
    55c2:	28 30       	cpi	r18, 0x08	; 8
    55c4:	31 05       	cpc	r19, r1
    55c6:	69 f7       	brne	.-38     	; 0x55a2 <timer_is_running+0xa>
	//判断某个ID对应的定时器是否在运行
	unsigned int i;
	//
	if(SOFT_TIMER_ERROR == id)
	{
		return SOFT_TIMER_ERROR;
    55c8:	80 e0       	ldi	r24, 0x00	; 0
			return soft_timer[i].enable;
		}
	}
	//
	return FALSE;
}
    55ca:	08 95       	ret

000055cc <set_modbus_baud>:
}
/////////////////////////////////////////////////////////////////
void set_modbus_baud(unsigned char baud)
{
	//?????????
	UCSR1B &= ~(_BV(RXEN1)|_BV(TXEN1));
    55cc:	e9 ec       	ldi	r30, 0xC9	; 201
    55ce:	f0 e0       	ldi	r31, 0x00	; 0
    55d0:	80 81       	ld	r24, Z
    55d2:	87 7e       	andi	r24, 0xE7	; 231
    55d4:	80 83       	st	Z, r24
    55d6:	87 e8       	ldi	r24, 0x87	; 135
    55d8:	93 e1       	ldi	r25, 0x13	; 19
    55da:	01 97       	sbiw	r24, 0x01	; 1
    55dc:	f1 f7       	brne	.-4      	; 0x55da <set_modbus_baud+0xe>
    55de:	00 c0       	rjmp	.+0      	; 0x55e0 <set_modbus_baud+0x14>
    55e0:	00 00       	nop
		}
		break;
		case MODBUS_BAUD_38400://38400
		{
			//38461.5 Bd //0.2%
			UBRR1H = 0;
    55e2:	10 92 cd 00 	sts	0x00CD, r1
			UBRR1L = 12;
    55e6:	8c e0       	ldi	r24, 0x0C	; 12
    55e8:	80 93 cc 00 	sts	0x00CC, r24
			UCSR1A |= _BV(U2X1);//????????8,??
    55ec:	e8 ec       	ldi	r30, 0xC8	; 200
    55ee:	f0 e0       	ldi	r31, 0x00	; 0
    55f0:	80 81       	ld	r24, Z
    55f2:	82 60       	ori	r24, 0x02	; 2
    55f4:	80 83       	st	Z, r24
			UCSR1A &= ~_BV(U2X1);//????????16,???
		}
		break;
	}
	//
	UCSR1B = _BV(RXEN1)|_BV(TXEN1)|_BV(RXCIE1);//??????
    55f6:	88 e9       	ldi	r24, 0x98	; 152
    55f8:	80 93 c9 00 	sts	0x00C9, r24
	UCSR1C = (3<<UCSZ10);//8N1
    55fc:	86 e0       	ldi	r24, 0x06	; 6
    55fe:	80 93 ca 00 	sts	0x00CA, r24
	bpc_485en = 0;//????,????
    5602:	28 98       	cbi	0x05, 0	; 5
    5604:	8f e0       	ldi	r24, 0x0F	; 15
    5606:	97 e2       	ldi	r25, 0x27	; 39
    5608:	01 97       	sbiw	r24, 0x01	; 1
    560a:	f1 f7       	brne	.-4      	; 0x5608 <set_modbus_baud+0x3c>
    560c:	00 c0       	rjmp	.+0      	; 0x560e <set_modbus_baud+0x42>
    560e:	00 00       	nop
    5610:	08 95       	ret

00005612 <uart1_init>:
	}
}
/////////////////////////////////////////////////////////////////
void uart1_init(void)
{
	set_modbus_baud(m_rPara.para.baud_modbus);
    5612:	80 91 73 0a 	lds	r24, 0x0A73
    5616:	0e 94 e6 2a 	call	0x55cc	; 0x55cc <set_modbus_baud>
	//
	ddr_pc_485di = 1;
    561a:	53 9a       	sbi	0x0a, 3	; 10
	ddr_pc_485ro = 0;
    561c:	52 98       	cbi	0x0a, 2	; 10
	ddr_pc_485en = 1;
    561e:	20 9a       	sbi	0x04, 0	; 4
	bpc_485di=1;
    5620:	5b 9a       	sbi	0x0b, 3	; 11
	port_pc_485ro=1;//??
    5622:	5a 9a       	sbi	0x0b, 2	; 11
	bpc_485en = 0;	
    5624:	28 98       	cbi	0x05, 0	; 5
	//
	bootloader_flay_is_valid = FALSE;
    5626:	10 92 ad 0e 	sts	0x0EAD, r1
    562a:	10 92 ac 0e 	sts	0x0EAC, r1
	bootloader_flag.ml = 0;
    562e:	10 92 90 0e 	sts	0x0E90, r1
    5632:	10 92 91 0e 	sts	0x0E91, r1
    5636:	10 92 92 0e 	sts	0x0E92, r1
    563a:	10 92 93 0e 	sts	0x0E93, r1
    563e:	08 95       	ret

00005640 <send_uart1_to_computer>:
	delay_us(400);
	bpc_485en=0;
}

void send_uart1_to_computer(unsigned char *p,unsigned char len)
{
    5640:	08 95       	ret

00005642 <send_ulong_ascii>:
}

////////////////////////////////////////////////////////////////
void send_ulong_ascii(unsigned long n,unsigned char newline)
{
    5642:	08 95       	ret

00005644 <bootloader_handling>:
	#define UPDATE_KEY_WORD  0x1324
	//
	extern void wdt_reset_mcu(void);
	//
	//在链接过程中已经隔离出一部分EEPROM空间给bootloader用
	eeprom_write_word((uint16_t *)0x10,UPDATE_KEY_WORD);
    5644:	64 e2       	ldi	r22, 0x24	; 36
    5646:	73 e1       	ldi	r23, 0x13	; 19
    5648:	80 e1       	ldi	r24, 0x10	; 16
    564a:	90 e0       	ldi	r25, 0x00	; 0
    564c:	0e 94 b1 37 	call	0x6f62	; 0x6f62 <__eewr_word_m644pa>
	eeprom_busy_wait();
    5650:	f9 99       	sbic	0x1f, 1	; 31
    5652:	fe cf       	rjmp	.-4      	; 0x5650 <bootloader_handling+0xc>
	eeprom_write_word((uint16_t *)0x30,UPDATE_KEY_WORD);
    5654:	64 e2       	ldi	r22, 0x24	; 36
    5656:	73 e1       	ldi	r23, 0x13	; 19
    5658:	80 e3       	ldi	r24, 0x30	; 48
    565a:	90 e0       	ldi	r25, 0x00	; 0
    565c:	0e 94 b1 37 	call	0x6f62	; 0x6f62 <__eewr_word_m644pa>
	eeprom_busy_wait();
    5660:	f9 99       	sbic	0x1f, 1	; 31
    5662:	fe cf       	rjmp	.-4      	; 0x5660 <bootloader_handling+0x1c>
	eeprom_write_word((uint16_t *)0x50,UPDATE_KEY_WORD);
    5664:	64 e2       	ldi	r22, 0x24	; 36
    5666:	73 e1       	ldi	r23, 0x13	; 19
    5668:	80 e5       	ldi	r24, 0x50	; 80
    566a:	90 e0       	ldi	r25, 0x00	; 0
    566c:	0e 94 b1 37 	call	0x6f62	; 0x6f62 <__eewr_word_m644pa>
	eeprom_busy_wait();
    5670:	f9 99       	sbic	0x1f, 1	; 31
    5672:	fe cf       	rjmp	.-4      	; 0x5670 <bootloader_handling+0x2c>
    5674:	8f e4       	ldi	r24, 0x4F	; 79
    5676:	93 ec       	ldi	r25, 0xC3	; 195
    5678:	01 97       	sbiw	r24, 0x01	; 1
    567a:	f1 f7       	brne	.-4      	; 0x5678 <bootloader_handling+0x34>
    567c:	00 c0       	rjmp	.+0      	; 0x567e <bootloader_handling+0x3a>
    567e:	00 00       	nop
	//
	delay_ms(50);
	wdt_reset_mcu();
    5680:	0c 94 0e 12 	jmp	0x241c	; 0x241c <wdt_reset_mcu>

00005684 <bootloader_key_word>:
	send_uart1_to_computer((unsigned char*)(tmp+i),(U8)strlen(tmp+i));
}
////////////////////////////////////////////////////////////////
void bootloader_key_word(unsigned char val)
{
	bootloader_flag.ml <<= 8;
    5684:	40 91 90 0e 	lds	r20, 0x0E90
    5688:	50 91 91 0e 	lds	r21, 0x0E91
    568c:	60 91 92 0e 	lds	r22, 0x0E92
    5690:	70 91 93 0e 	lds	r23, 0x0E93
    5694:	76 2f       	mov	r23, r22
    5696:	65 2f       	mov	r22, r21
    5698:	54 2f       	mov	r21, r20
    569a:	44 27       	eor	r20, r20
    569c:	40 93 90 0e 	sts	0x0E90, r20
    56a0:	50 93 91 0e 	sts	0x0E91, r21
    56a4:	60 93 92 0e 	sts	0x0E92, r22
    56a8:	70 93 93 0e 	sts	0x0E93, r23
	bootloader_flag.mc[0] = val;
    56ac:	80 93 90 0e 	sts	0x0E90, r24
	if(('B'==bootloader_flag.mc[3]) && ('E'==bootloader_flag.mc[2]) &&
    56b0:	80 91 93 0e 	lds	r24, 0x0E93
    56b4:	82 34       	cpi	r24, 0x42	; 66
    56b6:	a1 f4       	brne	.+40     	; 0x56e0 <bootloader_key_word+0x5c>
    56b8:	80 91 92 0e 	lds	r24, 0x0E92
    56bc:	85 34       	cpi	r24, 0x45	; 69
    56be:	81 f4       	brne	.+32     	; 0x56e0 <bootloader_key_word+0x5c>
	   ('A'==bootloader_flag.mc[1]) && ('R'==bootloader_flag.mc[0]))
    56c0:	80 91 91 0e 	lds	r24, 0x0E91
////////////////////////////////////////////////////////////////
void bootloader_key_word(unsigned char val)
{
	bootloader_flag.ml <<= 8;
	bootloader_flag.mc[0] = val;
	if(('B'==bootloader_flag.mc[3]) && ('E'==bootloader_flag.mc[2]) &&
    56c4:	81 34       	cpi	r24, 0x41	; 65
    56c6:	61 f4       	brne	.+24     	; 0x56e0 <bootloader_key_word+0x5c>
	   ('A'==bootloader_flag.mc[1]) && ('R'==bootloader_flag.mc[0]))
    56c8:	80 91 90 0e 	lds	r24, 0x0E90
    56cc:	82 35       	cpi	r24, 0x52	; 82
    56ce:	41 f4       	brne	.+16     	; 0x56e0 <bootloader_key_word+0x5c>
	{
		bootloader_flay_is_valid = TRUE;
    56d0:	81 e0       	ldi	r24, 0x01	; 1
    56d2:	90 e0       	ldi	r25, 0x00	; 0
    56d4:	90 93 ad 0e 	sts	0x0EAD, r25
    56d8:	80 93 ac 0e 	sts	0x0EAC, r24
		//
		bootloader_handling();
    56dc:	0c 94 22 2b 	jmp	0x5644	; 0x5644 <bootloader_handling>
    56e0:	08 95       	ret

000056e2 <__vector_28>:

extern unsigned int temp_count_data[10];
//10通道寄存器
//AA 55 01 E5 01 A7 01 AB 01 AD 01 A9 01 B0 01 E5 01 A0 01 BC 01 DC 55 AA 
ISR(USART1_RX_vect)
{
    56e2:	1f 92       	push	r1
    56e4:	0f 92       	push	r0
    56e6:	0f b6       	in	r0, 0x3f	; 63
    56e8:	0f 92       	push	r0
    56ea:	11 24       	eor	r1, r1
    56ec:	2f 93       	push	r18
    56ee:	3f 93       	push	r19
    56f0:	4f 93       	push	r20
    56f2:	5f 93       	push	r21
    56f4:	6f 93       	push	r22
    56f6:	7f 93       	push	r23
    56f8:	8f 93       	push	r24
    56fa:	9f 93       	push	r25
    56fc:	af 93       	push	r26
    56fe:	bf 93       	push	r27
    5700:	cf 93       	push	r28
    5702:	df 93       	push	r29
    5704:	ef 93       	push	r30
    5706:	ff 93       	push	r31

	unsigned char sum =0,i;
	//接收中断处理函数
	//
	unsigned char val = UDR1;
    5708:	c0 91 ce 00 	lds	r28, 0x00CE
	//
	bootloader_key_word(val);
    570c:	8c 2f       	mov	r24, r28
    570e:	0e 94 42 2b 	call	0x5684	; 0x5684 <bootloader_key_word>
	modbus_rtu_rx_frame(val);
    5712:	8c 2f       	mov	r24, r28
    5714:	0e 94 9d 20 	call	0x413a	; 0x413a <modbus_rtu_rx_frame>
	//temp_rtu_rx_frame(val);
	
	if (val == 0xaa)
    5718:	ca 3a       	cpi	r28, 0xAA	; 170
    571a:	11 f4       	brne	.+4      	; 0x5720 <__vector_28+0x3e>
	{
		usart1_receive_count = 0;
    571c:	10 92 6d 08 	sts	0x086D, r1
	}
	usart1_receive_data[usart1_receive_count++] = val;
    5720:	e0 91 6d 08 	lds	r30, 0x086D
    5724:	81 e0       	ldi	r24, 0x01	; 1
    5726:	8e 0f       	add	r24, r30
    5728:	80 93 6d 08 	sts	0x086D, r24
    572c:	f0 e0       	ldi	r31, 0x00	; 0
    572e:	ec 56       	subi	r30, 0x6C	; 108
    5730:	f1 4f       	sbci	r31, 0xF1	; 241
    5732:	c0 83       	st	Z, r28

	if (usart1_receive_count == 24)
    5734:	88 31       	cpi	r24, 0x18	; 24
    5736:	d1 f5       	brne	.+116    	; 0x57ac <__vector_28+0xca>
    5738:	e5 e9       	ldi	r30, 0x95	; 149
    573a:	fe e0       	ldi	r31, 0x0E	; 14
    573c:	8a ea       	ldi	r24, 0xAA	; 170
	{	

		sum = 0xaa;
		for (i = 1; i< 23; i++)
		{
			sum += usart1_receive_data[i];
    573e:	91 91       	ld	r25, Z+
    5740:	89 0f       	add	r24, r25

	if (usart1_receive_count == 24)
	{	

		sum = 0xaa;
		for (i = 1; i< 23; i++)
    5742:	9e e0       	ldi	r25, 0x0E	; 14
    5744:	eb 3a       	cpi	r30, 0xAB	; 171
    5746:	f9 07       	cpc	r31, r25
    5748:	d1 f7       	brne	.-12     	; 0x573e <__vector_28+0x5c>
		{
			sum += usart1_receive_data[i];
		}

		usart1_receive_count = 0;
    574a:	10 92 6d 08 	sts	0x086D, r1
		{
			if(sum == usart1_receive_data[23]&&usart1_receive_data[0] == 0xaa &&  usart1_receive_data[1]  <2)
    574e:	90 91 ab 0e 	lds	r25, 0x0EAB
    5752:	89 13       	cpse	r24, r25
    5754:	2b c0       	rjmp	.+86     	; 0x57ac <__vector_28+0xca>
    5756:	80 91 94 0e 	lds	r24, 0x0E94
    575a:	8a 3a       	cpi	r24, 0xAA	; 170
    575c:	39 f5       	brne	.+78     	; 0x57ac <__vector_28+0xca>
    575e:	20 91 95 0e 	lds	r18, 0x0E95
    5762:	22 30       	cpi	r18, 0x02	; 2
    5764:	18 f5       	brcc	.+70     	; 0x57ac <__vector_28+0xca>
			{
				for (i =1; i < 11; i ++)
				{
					temp_count_data[usart1_receive_data[1]] =0;
    5766:	e2 2f       	mov	r30, r18
    5768:	f0 e0       	ldi	r31, 0x00	; 0
					temp_data[ usart1_receive_data[1] * 20 + i * 2]      =    usart1_receive_data[i * 2];					
    576a:	8a e0       	ldi	r24, 0x0A	; 10
    576c:	28 9f       	mul	r18, r24
    576e:	90 01       	movw	r18, r0
    5770:	11 24       	eor	r1, r1
    5772:	22 0f       	add	r18, r18
    5774:	33 1f       	adc	r19, r19
    5776:	22 5f       	subi	r18, 0xF2	; 242
    5778:	37 4f       	sbci	r19, 0xF7	; 247
    577a:	80 e0       	ldi	r24, 0x00	; 0
    577c:	90 e0       	ldi	r25, 0x00	; 0
    577e:	ec 01       	movw	r28, r24
    5780:	cc 56       	subi	r28, 0x6C	; 108
    5782:	d1 4f       	sbci	r29, 0xF1	; 241
    5784:	d9 01       	movw	r26, r18
    5786:	a8 0f       	add	r26, r24
    5788:	b9 1f       	adc	r27, r25
    578a:	4a 81       	ldd	r20, Y+2	; 0x02
    578c:	12 96       	adiw	r26, 0x02	; 2
    578e:	4c 93       	st	X, r20
    5790:	12 97       	sbiw	r26, 0x02	; 2
					temp_data[ usart1_receive_data[1] * 20 + i * 2 + 1]  =    usart1_receive_data[i * 2 + 1];
    5792:	4b 81       	ldd	r20, Y+3	; 0x03
    5794:	13 96       	adiw	r26, 0x03	; 3
    5796:	4c 93       	st	X, r20
    5798:	02 96       	adiw	r24, 0x02	; 2

		usart1_receive_count = 0;
		{
			if(sum == usart1_receive_data[23]&&usart1_receive_data[0] == 0xaa &&  usart1_receive_data[1]  <2)
			{
				for (i =1; i < 11; i ++)
    579a:	84 31       	cpi	r24, 0x14	; 20
    579c:	91 05       	cpc	r25, r1
    579e:	79 f7       	brne	.-34     	; 0x577e <__vector_28+0x9c>
    57a0:	ee 0f       	add	r30, r30
    57a2:	ff 1f       	adc	r31, r31
    57a4:	e2 52       	subi	r30, 0x22	; 34
    57a6:	f8 4f       	sbci	r31, 0xF8	; 248
    57a8:	11 82       	std	Z+1, r1	; 0x01
    57aa:	10 82       	st	Z, r1
		}
		
	}
	
	
}
    57ac:	ff 91       	pop	r31
    57ae:	ef 91       	pop	r30
    57b0:	df 91       	pop	r29
    57b2:	cf 91       	pop	r28
    57b4:	bf 91       	pop	r27
    57b6:	af 91       	pop	r26
    57b8:	9f 91       	pop	r25
    57ba:	8f 91       	pop	r24
    57bc:	7f 91       	pop	r23
    57be:	6f 91       	pop	r22
    57c0:	5f 91       	pop	r21
    57c2:	4f 91       	pop	r20
    57c4:	3f 91       	pop	r19
    57c6:	2f 91       	pop	r18
    57c8:	0f 90       	pop	r0
    57ca:	0f be       	out	0x3f, r0	; 63
    57cc:	0f 90       	pop	r0
    57ce:	1f 90       	pop	r1
    57d0:	18 95       	reti

000057d2 <w5500_chipselect.part.0>:
	//
	if (bSelect)
	{
		// Select SPI chip.
		//
		bw5500_cs = 0;
    57d2:	2b 98       	cbi	0x05, 3	; 5
		asm volatile("nop");
    57d4:	00 00       	nop
		asm volatile("nop");
    57d6:	00 00       	nop
    57d8:	08 95       	ret

000057da <get_w5500_RxMAX>:
	I_STATUS[s] = val;
}
/////////////////////////////////////////////////
U16 get_w5500_RxMAX(U8 s)
{
	return RSIZE[s];
    57da:	e8 2f       	mov	r30, r24
    57dc:	f0 e0       	ldi	r31, 0x00	; 0
    57de:	ee 0f       	add	r30, r30
    57e0:	ff 1f       	adc	r31, r31
    57e2:	e2 59       	subi	r30, 0x92	; 146
    57e4:	f7 4f       	sbci	r31, 0xF7	; 247
}
    57e6:	80 81       	ld	r24, Z
    57e8:	91 81       	ldd	r25, Z+1	; 0x01
    57ea:	08 95       	ret

000057ec <get_w5500_RxMASK>:
	return SSIZE[s];
}
/////////////////////////////////////////////////
U16 get_w5500_RxMASK(U8 s)
{
	return RMASK[s];
    57ec:	e8 2f       	mov	r30, r24
    57ee:	f0 e0       	ldi	r31, 0x00	; 0
    57f0:	ee 0f       	add	r30, r30
    57f2:	ff 1f       	adc	r31, r31
    57f4:	e2 57       	subi	r30, 0x72	; 114
    57f6:	f7 4f       	sbci	r31, 0xF7	; 247
}
    57f8:	80 81       	ld	r24, Z
    57fa:	91 81       	ldd	r25, Z+1	; 0x01
    57fc:	08 95       	ret

000057fe <w5500_chipselect>:
}
///////////////////////////////////////////////////
void w5500_chipselect(Bool bSelect)
{
	//确保w5500_cs管腿为输出
	ddr_w5500_cs = 1;
    57fe:	23 9a       	sbi	0x04, 3	; 4
	//
	if (bSelect)
    5800:	81 11       	cpse	r24, r1
    5802:	0c 94 e9 2b 	jmp	0x57d2	; 0x57d2 <w5500_chipselect.part.0>
		asm volatile("nop");
	}
	else
	{
		// Unselect SPI chip.
		asm volatile("nop");
    5806:	00 00       	nop
		asm volatile("nop");
    5808:	00 00       	nop
		bw5500_cs = 1;
    580a:	2b 9a       	sbi	0x05, 3	; 5
    580c:	08 95       	ret

0000580e <w5500_spi_write>:
//
//该函数只是写数据,对读出的数据不关心
U8 w5500_spi_write(U8 data)
{
	U16 timeout = SPI_TIMEOUT;
	SPSR;//清除SPIF(不要改变)
    580e:	9d b5       	in	r25, 0x2d	; 45
	SPDR = data;//(不要改变)
    5810:	8e bd       	out	0x2e, r24	; 46
	asm volatile("nop");
    5812:	00 00       	nop
	asm volatile("nop");
    5814:	00 00       	nop
	while(FALSE == spi_interrupt_flag)
    5816:	28 ec       	ldi	r18, 0xC8	; 200
    5818:	3f ea       	ldi	r19, 0xAF	; 175
    581a:	8d b5       	in	r24, 0x2d	; 45
    581c:	80 78       	andi	r24, 0x80	; 128
    581e:	31 f4       	brne	.+12     	; 0x582c <w5500_spi_write+0x1e>
    5820:	21 50       	subi	r18, 0x01	; 1
    5822:	31 09       	sbc	r19, r1
	{
		timeout--;
		if(0 == timeout)
    5824:	21 15       	cp	r18, r1
    5826:	31 05       	cpc	r19, r1
    5828:	c1 f7       	brne	.-16     	; 0x581a <w5500_spi_write+0xc>
    582a:	01 c0       	rjmp	.+2      	; 0x582e <w5500_spi_write+0x20>
		{
			return FALSE;
		}
	}
	//
	return TRUE;
    582c:	81 e0       	ldi	r24, 0x01	; 1
}
    582e:	08 95       	ret

00005830 <w5500_write_buf>:
		bw5500_cs = 1;
	}
}
/////////////////////////////////////////////////
U16 w5500_write_buf(U32 addr,U8* buf,U16 len)
{
    5830:	cf 92       	push	r12
    5832:	df 92       	push	r13
    5834:	ef 92       	push	r14
    5836:	ff 92       	push	r15
    5838:	0f 93       	push	r16
    583a:	1f 93       	push	r17
    583c:	cf 93       	push	r28
    583e:	df 93       	push	r29
    5840:	00 d0       	rcall	.+0      	; 0x5842 <w5500_write_buf+0x12>
    5842:	00 d0       	rcall	.+0      	; 0x5844 <w5500_write_buf+0x14>
    5844:	1f 92       	push	r1
    5846:	cd b7       	in	r28, 0x3d	; 61
    5848:	de b7       	in	r29, 0x3e	; 62
    584a:	89 01       	movw	r16, r18
	//This function writes into W5500 memory(Buffer)
	U16 idx;
	
	if(len == 0)
    584c:	21 15       	cp	r18, r1
    584e:	31 05       	cpc	r19, r1
    5850:	81 f1       	breq	.+96     	; 0x58b2 <w5500_write_buf+0x82>
}
///////////////////////////////////////////////////
void w5500_chipselect(Bool bSelect)
{
	//确保w5500_cs管腿为输出
	ddr_w5500_cs = 1;
    5852:	23 9a       	sbi	0x04, 3	; 4
    5854:	4c 83       	std	Y+4, r20	; 0x04
    5856:	5d 83       	std	Y+5, r21	; 0x05
    5858:	6b 83       	std	Y+3, r22	; 0x03
    585a:	7a 83       	std	Y+2, r23	; 0x02
    585c:	89 83       	std	Y+1, r24	; 0x01
    585e:	0e 94 e9 2b 	call	0x57d2	; 0x57d2 <w5500_chipselect.part.0>
		return 0;
	}
	
	//SPI MODE I/F
	w5500_chipselect(TRUE);                             // CS=0, SPI start
	ddr_w5500_mosi = 1;
    5862:	25 9a       	sbi	0x04, 5	; 4
	ddr_w5500_sck = 1;
    5864:	27 9a       	sbi	0x04, 7	; 4
	
	w5500_spi_write((addr & 0x00FF0000) >> 16);              // Address byte 1
    5866:	89 81       	ldd	r24, Y+1	; 0x01
    5868:	0e 94 07 2c 	call	0x580e	; 0x580e <w5500_spi_write>
	w5500_spi_write((addr & 0x0000FF00) >> 8);              // Address byte 2
    586c:	7a 81       	ldd	r23, Y+2	; 0x02
    586e:	87 2f       	mov	r24, r23
    5870:	0e 94 07 2c 	call	0x580e	; 0x580e <w5500_spi_write>
	w5500_spi_write((U8)(addr & 0x000000F8)+0b0100);        // 控制字段
    5874:	6b 81       	ldd	r22, Y+3	; 0x03
    5876:	86 2f       	mov	r24, r22
    5878:	88 7f       	andi	r24, 0xF8	; 248
    587a:	8c 5f       	subi	r24, 0xFC	; 252
    587c:	0e 94 07 2c 	call	0x580e	; 0x580e <w5500_spi_write>
	#else
		//round up by default
		__ticks_dc = (uint32_t)(ceil(fabs(__tmp)));
	#endif

	__builtin_avr_delay_cycles(__ticks_dc);
    5880:	86 e0       	ldi	r24, 0x06	; 6
    5882:	8a 95       	dec	r24
    5884:	f1 f7       	brne	.-4      	; 0x5882 <w5500_write_buf+0x52>
    5886:	00 c0       	rjmp	.+0      	; 0x5888 <w5500_write_buf+0x58>
    5888:	4c 81       	ldd	r20, Y+4	; 0x04
    588a:	c4 2e       	mov	r12, r20
    588c:	5d 81       	ldd	r21, Y+5	; 0x05
    588e:	d5 2e       	mov	r13, r21
    5890:	76 01       	movw	r14, r12
    5892:	e0 0e       	add	r14, r16
    5894:	f1 1e       	adc	r15, r17
	//
	delay_us(5);
	//
	for(idx = 0; idx < len; idx++)                          // Write data in loop
    5896:	ce 14       	cp	r12, r14
    5898:	df 04       	cpc	r13, r15
    589a:	31 f0       	breq	.+12     	; 0x58a8 <w5500_write_buf+0x78>
	{
		w5500_spi_write(buf[idx]);
    589c:	f6 01       	movw	r30, r12
    589e:	81 91       	ld	r24, Z+
    58a0:	6f 01       	movw	r12, r30
    58a2:	0e 94 07 2c 	call	0x580e	; 0x580e <w5500_spi_write>
    58a6:	f7 cf       	rjmp	.-18     	; 0x5896 <w5500_write_buf+0x66>
	}
	//
	w5500_chipselect(FALSE);                            // CS=1, SPI end
    58a8:	80 e0       	ldi	r24, 0x00	; 0
    58aa:	0e 94 ff 2b 	call	0x57fe	; 0x57fe <w5500_chipselect>
    58ae:	c8 01       	movw	r24, r16
    58b0:	02 c0       	rjmp	.+4      	; 0x58b6 <w5500_write_buf+0x86>
	//This function writes into W5500 memory(Buffer)
	U16 idx;
	
	if(len == 0)
	{
		return 0;
    58b2:	80 e0       	ldi	r24, 0x00	; 0
    58b4:	90 e0       	ldi	r25, 0x00	; 0
	}
	//
	w5500_chipselect(FALSE);                            // CS=1, SPI end
	//
	return len;
}
    58b6:	0f 90       	pop	r0
    58b8:	0f 90       	pop	r0
    58ba:	0f 90       	pop	r0
    58bc:	0f 90       	pop	r0
    58be:	0f 90       	pop	r0
    58c0:	df 91       	pop	r29
    58c2:	cf 91       	pop	r28
    58c4:	1f 91       	pop	r17
    58c6:	0f 91       	pop	r16
    58c8:	ff 90       	pop	r15
    58ca:	ef 90       	pop	r14
    58cc:	df 90       	pop	r13
    58ce:	cf 90       	pop	r12
    58d0:	08 95       	ret

000058d2 <set_w5500_GAR>:
}
///////////////////////////////////////////////////
void set_w5500_GAR(U8 * addr)//a pointer to a 4 -byte array responsible to set the Gateway IP address.
{
	//This function sets up gateway IP address.
	w5500_write_buf(GAR0,addr,4);
    58d2:	24 e0       	ldi	r18, 0x04	; 4
    58d4:	30 e0       	ldi	r19, 0x00	; 0
    58d6:	ac 01       	movw	r20, r24
    58d8:	60 e0       	ldi	r22, 0x00	; 0
    58da:	71 e0       	ldi	r23, 0x01	; 1
    58dc:	80 e0       	ldi	r24, 0x00	; 0
    58de:	90 e0       	ldi	r25, 0x00	; 0
    58e0:	0c 94 18 2c 	jmp	0x5830	; 0x5830 <w5500_write_buf>

000058e4 <set_w5500_SUBR>:
}
///////////////////////////////////////////////////
void set_w5500_SUBR(U8 * addr)//a pointer to a 4 -byte array responsible to set the SubnetMask address
{
	//It sets up SubnetMask address
	w5500_write_buf(SUBR0,addr,4);
    58e4:	24 e0       	ldi	r18, 0x04	; 4
    58e6:	30 e0       	ldi	r19, 0x00	; 0
    58e8:	ac 01       	movw	r20, r24
    58ea:	60 e0       	ldi	r22, 0x00	; 0
    58ec:	75 e0       	ldi	r23, 0x05	; 5
    58ee:	80 e0       	ldi	r24, 0x00	; 0
    58f0:	90 e0       	ldi	r25, 0x00	; 0
    58f2:	0c 94 18 2c 	jmp	0x5830	; 0x5830 <w5500_write_buf>

000058f6 <set_w5500_SHAR>:
}
///////////////////////////////////////////////////
void set_w5500_SHAR(U8 * addr)//a pointer to a 6 -byte array responsible to set the MAC address.
{
	//This function sets up MAC address.
	w5500_write_buf(SHAR0,addr,6);
    58f6:	26 e0       	ldi	r18, 0x06	; 6
    58f8:	30 e0       	ldi	r19, 0x00	; 0
    58fa:	ac 01       	movw	r20, r24
    58fc:	60 e0       	ldi	r22, 0x00	; 0
    58fe:	79 e0       	ldi	r23, 0x09	; 9
    5900:	80 e0       	ldi	r24, 0x00	; 0
    5902:	90 e0       	ldi	r25, 0x00	; 0
    5904:	0c 94 18 2c 	jmp	0x5830	; 0x5830 <w5500_write_buf>

00005908 <set_w5500_SIPR>:
}
///////////////////////////////////////////////////
void set_w5500_SIPR(U8 * addr)//a pointer to a 4 -byte array responsible to set the Source IP address.
{
	//This function sets up Source IP address.
	w5500_write_buf(SIPR0,addr,4);
    5908:	24 e0       	ldi	r18, 0x04	; 4
    590a:	30 e0       	ldi	r19, 0x00	; 0
    590c:	ac 01       	movw	r20, r24
    590e:	60 e0       	ldi	r22, 0x00	; 0
    5910:	7f e0       	ldi	r23, 0x0F	; 15
    5912:	80 e0       	ldi	r24, 0x00	; 0
    5914:	90 e0       	ldi	r25, 0x00	; 0
    5916:	0c 94 18 2c 	jmp	0x5830	; 0x5830 <w5500_write_buf>

0000591a <set_w5500_Sn_PORT>:
{
	w5500_write(Sn_MR(s),val);
}
///////////////////////////////////////////////////
void set_w5500_Sn_PORT(SOCKET s,U16 port)
{
    591a:	1f 93       	push	r17
    591c:	cf 93       	push	r28
    591e:	df 93       	push	r29
    5920:	00 d0       	rcall	.+0      	; 0x5922 <set_w5500_Sn_PORT+0x8>
    5922:	cd b7       	in	r28, 0x3d	; 61
    5924:	de b7       	in	r29, 0x3e	; 62
    5926:	18 2f       	mov	r17, r24
    5928:	cb 01       	movw	r24, r22
    592a:	7a 83       	std	Y+2, r23	; 0x02
    592c:	69 83       	std	Y+1, r22	; 0x01
	port = swap_ushort(port);
    592e:	0e 94 b5 32 	call	0x656a	; 0x656a <swap_ushort>
    5932:	9a 83       	std	Y+2, r25	; 0x02
    5934:	89 83       	std	Y+1, r24	; 0x01
	w5500_write_buf(Sn_PORT0(s),(U8*)&port,2);
    5936:	80 e2       	ldi	r24, 0x20	; 32
    5938:	18 9f       	mul	r17, r24
    593a:	b0 01       	movw	r22, r0
    593c:	11 24       	eor	r1, r1
    593e:	68 5f       	subi	r22, 0xF8	; 248
    5940:	7b 4f       	sbci	r23, 0xFB	; 251
    5942:	88 27       	eor	r24, r24
    5944:	77 fd       	sbrc	r23, 7
    5946:	80 95       	com	r24
    5948:	98 2f       	mov	r25, r24
    594a:	22 e0       	ldi	r18, 0x02	; 2
    594c:	30 e0       	ldi	r19, 0x00	; 0
    594e:	ae 01       	movw	r20, r28
    5950:	4f 5f       	subi	r20, 0xFF	; 255
    5952:	5f 4f       	sbci	r21, 0xFF	; 255
    5954:	0e 94 18 2c 	call	0x5830	; 0x5830 <w5500_write_buf>
}
    5958:	0f 90       	pop	r0
    595a:	0f 90       	pop	r0
    595c:	df 91       	pop	r29
    595e:	cf 91       	pop	r28
    5960:	1f 91       	pop	r17
    5962:	08 95       	ret

00005964 <set_w5500_Sn_DPORT>:
///////////////////////////////////////////////////
void set_w5500_Sn_DPORT(SOCKET s,U16 port)
{
    5964:	1f 93       	push	r17
    5966:	cf 93       	push	r28
    5968:	df 93       	push	r29
    596a:	00 d0       	rcall	.+0      	; 0x596c <set_w5500_Sn_DPORT+0x8>
    596c:	cd b7       	in	r28, 0x3d	; 61
    596e:	de b7       	in	r29, 0x3e	; 62
    5970:	18 2f       	mov	r17, r24
    5972:	cb 01       	movw	r24, r22
    5974:	7a 83       	std	Y+2, r23	; 0x02
    5976:	69 83       	std	Y+1, r22	; 0x01
	port = swap_ushort(port);
    5978:	0e 94 b5 32 	call	0x656a	; 0x656a <swap_ushort>
    597c:	9a 83       	std	Y+2, r25	; 0x02
    597e:	89 83       	std	Y+1, r24	; 0x01
	w5500_write_buf(Sn_DPORT0(s),(U8*)&port,2);
    5980:	80 e2       	ldi	r24, 0x20	; 32
    5982:	18 9f       	mul	r17, r24
    5984:	b0 01       	movw	r22, r0
    5986:	11 24       	eor	r1, r1
    5988:	68 5f       	subi	r22, 0xF8	; 248
    598a:	7f 4e       	sbci	r23, 0xEF	; 239
    598c:	88 27       	eor	r24, r24
    598e:	77 fd       	sbrc	r23, 7
    5990:	80 95       	com	r24
    5992:	98 2f       	mov	r25, r24
    5994:	22 e0       	ldi	r18, 0x02	; 2
    5996:	30 e0       	ldi	r19, 0x00	; 0
    5998:	ae 01       	movw	r20, r28
    599a:	4f 5f       	subi	r20, 0xFF	; 255
    599c:	5f 4f       	sbci	r21, 0xFF	; 255
    599e:	0e 94 18 2c 	call	0x5830	; 0x5830 <w5500_write_buf>
}
    59a2:	0f 90       	pop	r0
    59a4:	0f 90       	pop	r0
    59a6:	df 91       	pop	r29
    59a8:	cf 91       	pop	r28
    59aa:	1f 91       	pop	r17
    59ac:	08 95       	ret

000059ae <set_w5500_Sn_DIPR>:
///////////////////////////////////////////////////
void set_w5500_Sn_DIPR(SOCKET s,U8 *ip)
{	
    59ae:	ab 01       	movw	r20, r22
	w5500_write_buf(Sn_DIPR0(s),ip,4);
    59b0:	20 e2       	ldi	r18, 0x20	; 32
    59b2:	82 9f       	mul	r24, r18
    59b4:	c0 01       	movw	r24, r0
    59b6:	11 24       	eor	r1, r1
    59b8:	88 5f       	subi	r24, 0xF8	; 248
    59ba:	93 4f       	sbci	r25, 0xF3	; 243
    59bc:	bc 01       	movw	r22, r24
    59be:	88 27       	eor	r24, r24
    59c0:	77 fd       	sbrc	r23, 7
    59c2:	80 95       	com	r24
    59c4:	98 2f       	mov	r25, r24
    59c6:	24 e0       	ldi	r18, 0x04	; 4
    59c8:	30 e0       	ldi	r19, 0x00	; 0
    59ca:	0c 94 18 2c 	jmp	0x5830	; 0x5830 <w5500_write_buf>

000059ce <set_w5500_RTR>:
{
    w5500_write(SIR,val);
}
///////////////////////////////////////////////////
void set_w5500_RTR(U16 timeout)
{
    59ce:	cf 93       	push	r28
    59d0:	df 93       	push	r29
    59d2:	00 d0       	rcall	.+0      	; 0x59d4 <set_w5500_RTR+0x6>
    59d4:	cd b7       	in	r28, 0x3d	; 61
    59d6:	de b7       	in	r29, 0x3e	; 62
    59d8:	9a 83       	std	Y+2, r25	; 0x02
    59da:	89 83       	std	Y+1, r24	; 0x01
	//This function sets up Retransmission time.
	//
	//If there is no response from the peer or delay in response then retransmission 
	//will be there as per RTR (Retry Time-value Register)setting
	//
	timeout = swap_ushort(timeout);
    59dc:	0e 94 b5 32 	call	0x656a	; 0x656a <swap_ushort>
    59e0:	9a 83       	std	Y+2, r25	; 0x02
    59e2:	89 83       	std	Y+1, r24	; 0x01
	w5500_write_buf(RTR0,(U8*)&timeout,2);
    59e4:	22 e0       	ldi	r18, 0x02	; 2
    59e6:	30 e0       	ldi	r19, 0x00	; 0
    59e8:	ae 01       	movw	r20, r28
    59ea:	4f 5f       	subi	r20, 0xFF	; 255
    59ec:	5f 4f       	sbci	r21, 0xFF	; 255
    59ee:	60 e0       	ldi	r22, 0x00	; 0
    59f0:	79 e1       	ldi	r23, 0x19	; 25
    59f2:	80 e0       	ldi	r24, 0x00	; 0
    59f4:	90 e0       	ldi	r25, 0x00	; 0
    59f6:	0e 94 18 2c 	call	0x5830	; 0x5830 <w5500_write_buf>
}
    59fa:	0f 90       	pop	r0
    59fc:	0f 90       	pop	r0
    59fe:	df 91       	pop	r29
    5a00:	cf 91       	pop	r28
    5a02:	08 95       	ret

00005a04 <set_w5500_Sn_RX_RD>:
	//
	return val;
}
///////////////////////////////////////////////////
void set_w5500_Sn_RX_RD(SOCKET s,U16 val)
{
    5a04:	1f 93       	push	r17
    5a06:	cf 93       	push	r28
    5a08:	df 93       	push	r29
    5a0a:	00 d0       	rcall	.+0      	; 0x5a0c <set_w5500_Sn_RX_RD+0x8>
    5a0c:	cd b7       	in	r28, 0x3d	; 61
    5a0e:	de b7       	in	r29, 0x3e	; 62
    5a10:	18 2f       	mov	r17, r24
    5a12:	cb 01       	movw	r24, r22
    5a14:	7a 83       	std	Y+2, r23	; 0x02
    5a16:	69 83       	std	Y+1, r22	; 0x01
	val = swap_ushort(val);
    5a18:	0e 94 b5 32 	call	0x656a	; 0x656a <swap_ushort>
    5a1c:	9a 83       	std	Y+2, r25	; 0x02
    5a1e:	89 83       	std	Y+1, r24	; 0x01
	w5500_write_buf(Sn_RX_RD0(s),(U8*)&val,2);
    5a20:	80 e2       	ldi	r24, 0x20	; 32
    5a22:	18 9f       	mul	r17, r24
    5a24:	b0 01       	movw	r22, r0
    5a26:	11 24       	eor	r1, r1
    5a28:	68 5f       	subi	r22, 0xF8	; 248
    5a2a:	77 4d       	sbci	r23, 0xD7	; 215
    5a2c:	88 27       	eor	r24, r24
    5a2e:	77 fd       	sbrc	r23, 7
    5a30:	80 95       	com	r24
    5a32:	98 2f       	mov	r25, r24
    5a34:	22 e0       	ldi	r18, 0x02	; 2
    5a36:	30 e0       	ldi	r19, 0x00	; 0
    5a38:	ae 01       	movw	r20, r28
    5a3a:	4f 5f       	subi	r20, 0xFF	; 255
    5a3c:	5f 4f       	sbci	r21, 0xFF	; 255
    5a3e:	0e 94 18 2c 	call	0x5830	; 0x5830 <w5500_write_buf>
}
    5a42:	0f 90       	pop	r0
    5a44:	0f 90       	pop	r0
    5a46:	df 91       	pop	r29
    5a48:	cf 91       	pop	r28
    5a4a:	1f 91       	pop	r17
    5a4c:	08 95       	ret

00005a4e <w5500_write>:
	//
	return val;
}
/////////////////////////////////////////////////
void w5500_write(U32 addr,U8 value)
{
    5a4e:	cf 93       	push	r28
    5a50:	df 93       	push	r29
    5a52:	00 d0       	rcall	.+0      	; 0x5a54 <w5500_write+0x6>
    5a54:	00 d0       	rcall	.+0      	; 0x5a56 <w5500_write+0x8>
    5a56:	cd b7       	in	r28, 0x3d	; 61
    5a58:	de b7       	in	r29, 0x3e	; 62
}
///////////////////////////////////////////////////
void w5500_chipselect(Bool bSelect)
{
	//确保w5500_cs管腿为输出
	ddr_w5500_cs = 1;
    5a5a:	23 9a       	sbi	0x04, 3	; 4
    5a5c:	4c 83       	std	Y+4, r20	; 0x04
    5a5e:	6b 83       	std	Y+3, r22	; 0x03
    5a60:	7a 83       	std	Y+2, r23	; 0x02
    5a62:	89 83       	std	Y+1, r24	; 0x01
    5a64:	0e 94 e9 2b 	call	0x57d2	; 0x57d2 <w5500_chipselect.part.0>
}
/////////////////////////////////////////////////
void w5500_write(U32 addr,U8 value)
{
	w5500_chipselect(TRUE);
	ddr_w5500_mosi = 1;
    5a68:	25 9a       	sbi	0x04, 5	; 4
	ddr_w5500_sck = 1;
    5a6a:	27 9a       	sbi	0x04, 7	; 4
	//
	w5500_spi_write((addr&0x00ff0000)>>16);
    5a6c:	89 81       	ldd	r24, Y+1	; 0x01
    5a6e:	0e 94 07 2c 	call	0x580e	; 0x580e <w5500_spi_write>
	w5500_spi_write((addr&0x0000ff00)>>8);
    5a72:	7a 81       	ldd	r23, Y+2	; 0x02
    5a74:	87 2f       	mov	r24, r23
    5a76:	0e 94 07 2c 	call	0x580e	; 0x580e <w5500_spi_write>
	w5500_spi_write((U8)(addr&0x000000f8)+0b0100);
    5a7a:	6b 81       	ldd	r22, Y+3	; 0x03
    5a7c:	86 2f       	mov	r24, r22
    5a7e:	88 7f       	andi	r24, 0xF8	; 248
    5a80:	8c 5f       	subi	r24, 0xFC	; 252
    5a82:	0e 94 07 2c 	call	0x580e	; 0x580e <w5500_spi_write>
    5a86:	86 e0       	ldi	r24, 0x06	; 6
    5a88:	8a 95       	dec	r24
    5a8a:	f1 f7       	brne	.-4      	; 0x5a88 <w5500_write+0x3a>
    5a8c:	00 c0       	rjmp	.+0      	; 0x5a8e <w5500_write+0x40>
	//
	delay_us(5);
	//
	w5500_spi_write(value);
    5a8e:	4c 81       	ldd	r20, Y+4	; 0x04
    5a90:	84 2f       	mov	r24, r20
    5a92:	0e 94 07 2c 	call	0x580e	; 0x580e <w5500_spi_write>
	//
	w5500_chipselect(FALSE);
    5a96:	80 e0       	ldi	r24, 0x00	; 0
}
    5a98:	0f 90       	pop	r0
    5a9a:	0f 90       	pop	r0
    5a9c:	0f 90       	pop	r0
    5a9e:	0f 90       	pop	r0
    5aa0:	df 91       	pop	r29
    5aa2:	cf 91       	pop	r28
	//
	delay_us(5);
	//
	w5500_spi_write(value);
	//
	w5500_chipselect(FALSE);
    5aa4:	0c 94 ff 2b 	jmp	0x57fe	; 0x57fe <w5500_chipselect>

00005aa8 <w5500_sysinit>:
{
	return SMASK[s];
}
/////////////////////////////////////////////////
void w5500_sysinit( U8 *tx_size, U8 *rx_size	)
{
    5aa8:	2f 92       	push	r2
    5aaa:	3f 92       	push	r3
    5aac:	4f 92       	push	r4
    5aae:	5f 92       	push	r5
    5ab0:	6f 92       	push	r6
    5ab2:	7f 92       	push	r7
    5ab4:	8f 92       	push	r8
    5ab6:	9f 92       	push	r9
    5ab8:	af 92       	push	r10
    5aba:	bf 92       	push	r11
    5abc:	cf 92       	push	r12
    5abe:	df 92       	push	r13
    5ac0:	ef 92       	push	r14
    5ac2:	ff 92       	push	r15
    5ac4:	0f 93       	push	r16
    5ac6:	1f 93       	push	r17
    5ac8:	cf 93       	push	r28
    5aca:	df 93       	push	r29
    5acc:	00 d0       	rcall	.+0      	; 0x5ace <w5500_sysinit+0x26>
    5ace:	00 d0       	rcall	.+0      	; 0x5ad0 <w5500_sysinit+0x28>
    5ad0:	1f 92       	push	r1
    5ad2:	cd b7       	in	r28, 0x3d	; 61
    5ad4:	de b7       	in	r29, 0x3e	; 62
    5ad6:	4c 01       	movw	r8, r24
    5ad8:	6c 83       	std	Y+4, r22	; 0x04
    5ada:	7d 83       	std	Y+5, r23	; 0x05
    5adc:	0e e7       	ldi	r16, 0x7E	; 126
    5ade:	18 e0       	ldi	r17, 0x08	; 8
    5ae0:	7e e6       	ldi	r23, 0x6E	; 110
    5ae2:	e7 2e       	mov	r14, r23
    5ae4:	78 e0       	ldi	r23, 0x08	; 8
    5ae6:	f7 2e       	mov	r15, r23
    5ae8:	ee e8       	ldi	r30, 0x8E	; 142
    5aea:	ae 2e       	mov	r10, r30
    5aec:	e8 e0       	ldi	r30, 0x08	; 8
    5aee:	be 2e       	mov	r11, r30
    5af0:	fe e9       	ldi	r31, 0x9E	; 158
    5af2:	cf 2e       	mov	r12, r31
    5af4:	f8 e0       	ldi	r31, 0x08	; 8
    5af6:	df 2e       	mov	r13, r31
    5af8:	22 24       	eor	r2, r2
    5afa:	23 94       	inc	r2
    5afc:	31 2c       	mov	r3, r1

	ssum = 0;
	rsum = 0;
	
	U8 i;
	for (i=0 ; i<W5500_MAX_SOCK_NUM; i++)       // Set the size, masking and base address of Tx & Rx memory by each channel
    5afe:	50 e0       	ldi	r21, 0x00	; 0
void w5500_sysinit( U8 *tx_size, U8 *rx_size	)
{
	U16 ssum,rsum;

	ssum = 0;
	rsum = 0;
    5b00:	41 2c       	mov	r4, r1
    5b02:	51 2c       	mov	r5, r1
/////////////////////////////////////////////////
void w5500_sysinit( U8 *tx_size, U8 *rx_size	)
{
	U16 ssum,rsum;

	ssum = 0;
    5b04:	61 2c       	mov	r6, r1
    5b06:	71 2c       	mov	r7, r1
	rsum = 0;
	
	U8 i;
	for (i=0 ; i<W5500_MAX_SOCK_NUM; i++)       // Set the size, masking and base address of Tx & Rx memory by each channel
	{
		w5500_write((Sn_TXBUF_SIZE(i)),tx_size[i]);//单位是K（1024字节）
    5b08:	91 01       	movw	r18, r2
    5b0a:	63 e0       	ldi	r22, 0x03	; 3
    5b0c:	22 0f       	add	r18, r18
    5b0e:	33 1f       	adc	r19, r19
    5b10:	6a 95       	dec	r22
    5b12:	e1 f7       	brne	.-8      	; 0x5b0c <w5500_sysinit+0x64>
    5b14:	c9 01       	movw	r24, r18
    5b16:	91 5e       	subi	r25, 0xE1	; 225
    5b18:	bc 01       	movw	r22, r24
    5b1a:	88 27       	eor	r24, r24
    5b1c:	77 fd       	sbrc	r23, 7
    5b1e:	80 95       	com	r24
    5b20:	98 2f       	mov	r25, r24
    5b22:	f4 01       	movw	r30, r8
    5b24:	40 81       	ld	r20, Z
    5b26:	29 83       	std	Y+1, r18	; 0x01
    5b28:	3a 83       	std	Y+2, r19	; 0x02
    5b2a:	5b 83       	std	Y+3, r21	; 0x03
    5b2c:	0e 94 27 2d 	call	0x5a4e	; 0x5a4e <w5500_write>
		w5500_write((Sn_RXBUF_SIZE(i)),rx_size[i]);
    5b30:	29 81       	ldd	r18, Y+1	; 0x01
    5b32:	3a 81       	ldd	r19, Y+2	; 0x02
    5b34:	32 5e       	subi	r19, 0xE2	; 226
    5b36:	b9 01       	movw	r22, r18
    5b38:	88 27       	eor	r24, r24
    5b3a:	77 fd       	sbrc	r23, 7
    5b3c:	80 95       	com	r24
    5b3e:	98 2f       	mov	r25, r24
    5b40:	ec 81       	ldd	r30, Y+4	; 0x04
    5b42:	fd 81       	ldd	r31, Y+5	; 0x05
    5b44:	40 81       	ld	r20, Z
    5b46:	0e 94 27 2d 	call	0x5a4e	; 0x5a4e <w5500_write>


		SSIZE[i] = (U16)(0);
    5b4a:	f8 01       	movw	r30, r16
    5b4c:	11 82       	std	Z+1, r1	; 0x01
    5b4e:	10 82       	st	Z, r1
		RSIZE[i] = (U16)(0);
    5b50:	f7 01       	movw	r30, r14
    5b52:	11 82       	std	Z+1, r1	; 0x01
    5b54:	10 82       	st	Z, r1

		if (ssum <= 16384)//0x4000
    5b56:	5b 81       	ldd	r21, Y+3	; 0x03
    5b58:	f1 e0       	ldi	r31, 0x01	; 1
    5b5a:	6f 16       	cp	r6, r31
    5b5c:	f0 e4       	ldi	r31, 0x40	; 64
    5b5e:	7f 06       	cpc	r7, r31
    5b60:	b0 f4       	brcc	.+44     	; 0x5b8e <w5500_sysinit+0xe6>
		{
			if(tx_size[i] == 0)
    5b62:	f4 01       	movw	r30, r8
    5b64:	80 81       	ld	r24, Z
    5b66:	81 11       	cpse	r24, r1
    5b68:	04 c0       	rjmp	.+8      	; 0x5b72 <w5500_sysinit+0xca>
			{				
				SSIZE[i] = (U16)(0);
				SMASK[i] = (U16)(0);
    5b6a:	f6 01       	movw	r30, r12
    5b6c:	11 82       	std	Z+1, r1	; 0x01
    5b6e:	10 82       	st	Z, r1
    5b70:	0e c0       	rjmp	.+28     	; 0x5b8e <w5500_sysinit+0xe6>
			}
			else if(tx_size[i] <= 16)
    5b72:	81 31       	cpi	r24, 0x11	; 17
    5b74:	60 f4       	brcc	.+24     	; 0x5b8e <w5500_sysinit+0xe6>
			{
				SSIZE[i] = (U16)(1024)*(U16)tx_size[i];
    5b76:	90 e0       	ldi	r25, 0x00	; 0
    5b78:	98 2f       	mov	r25, r24
    5b7a:	88 27       	eor	r24, r24
    5b7c:	99 0f       	add	r25, r25
    5b7e:	99 0f       	add	r25, r25
    5b80:	f8 01       	movw	r30, r16
    5b82:	91 83       	std	Z+1, r25	; 0x01
    5b84:	80 83       	st	Z, r24
				SMASK[i] = SSIZE[i]-1;
    5b86:	01 97       	sbiw	r24, 0x01	; 1
    5b88:	f6 01       	movw	r30, r12
    5b8a:	91 83       	std	Z+1, r25	; 0x01
    5b8c:	80 83       	st	Z, r24
    5b8e:	f8 01       	movw	r30, r16
    5b90:	20 81       	ld	r18, Z
    5b92:	31 81       	ldd	r19, Z+1	; 0x01
			}
		}

		if (rsum <= 16384)//0x4000
    5b94:	f1 e0       	ldi	r31, 0x01	; 1
    5b96:	4f 16       	cp	r4, r31
    5b98:	f0 e4       	ldi	r31, 0x40	; 64
    5b9a:	5f 06       	cpc	r5, r31
    5b9c:	a8 f4       	brcc	.+42     	; 0x5bc8 <w5500_sysinit+0x120>
		{			
			if(rx_size[i] == 0)
    5b9e:	ec 81       	ldd	r30, Y+4	; 0x04
    5ba0:	fd 81       	ldd	r31, Y+5	; 0x05
    5ba2:	80 81       	ld	r24, Z
    5ba4:	81 11       	cpse	r24, r1
    5ba6:	04 c0       	rjmp	.+8      	; 0x5bb0 <w5500_sysinit+0x108>
			{
				RSIZE[i] = (U16)(0);
				RMASK[i] = (U16)(0);				
    5ba8:	f5 01       	movw	r30, r10
    5baa:	11 82       	std	Z+1, r1	; 0x01
    5bac:	10 82       	st	Z, r1
    5bae:	0c c0       	rjmp	.+24     	; 0x5bc8 <w5500_sysinit+0x120>
			}
			else if(rx_size[i] <= 16)
    5bb0:	81 31       	cpi	r24, 0x11	; 17
    5bb2:	50 f4       	brcc	.+20     	; 0x5bc8 <w5500_sysinit+0x120>
			{
				RSIZE[i] = (U16)(1024)*(U16)rx_size[i];
    5bb4:	88 0f       	add	r24, r24
    5bb6:	88 0f       	add	r24, r24
    5bb8:	f7 01       	movw	r30, r14
    5bba:	10 82       	st	Z, r1
    5bbc:	81 83       	std	Z+1, r24	; 0x01
				RMASK[i] = SSIZE[i]-1;
    5bbe:	c9 01       	movw	r24, r18
    5bc0:	01 97       	sbiw	r24, 0x01	; 1
    5bc2:	f5 01       	movw	r30, r10
    5bc4:	91 83       	std	Z+1, r25	; 0x01
    5bc6:	80 83       	st	Z, r24
			}
		}
		ssum += SSIZE[i];
    5bc8:	62 0e       	add	r6, r18
    5bca:	73 1e       	adc	r7, r19
		rsum += RSIZE[i];
    5bcc:	f7 01       	movw	r30, r14
    5bce:	81 91       	ld	r24, Z+
    5bd0:	91 91       	ld	r25, Z+
    5bd2:	7f 01       	movw	r14, r30
    5bd4:	48 0e       	add	r4, r24
    5bd6:	59 1e       	adc	r5, r25

	ssum = 0;
	rsum = 0;
	
	U8 i;
	for (i=0 ; i<W5500_MAX_SOCK_NUM; i++)       // Set the size, masking and base address of Tx & Rx memory by each channel
    5bd8:	5f 5f       	subi	r21, 0xFF	; 255
    5bda:	ff ef       	ldi	r31, 0xFF	; 255
    5bdc:	8f 1a       	sub	r8, r31
    5bde:	9f 0a       	sbc	r9, r31
    5be0:	84 e0       	ldi	r24, 0x04	; 4
    5be2:	28 0e       	add	r2, r24
    5be4:	31 1c       	adc	r3, r1
    5be6:	ec 81       	ldd	r30, Y+4	; 0x04
    5be8:	fd 81       	ldd	r31, Y+5	; 0x05
    5bea:	31 96       	adiw	r30, 0x01	; 1
    5bec:	fd 83       	std	Y+5, r31	; 0x05
    5bee:	ec 83       	std	Y+4, r30	; 0x04
    5bf0:	0e 5f       	subi	r16, 0xFE	; 254
    5bf2:	1f 4f       	sbci	r17, 0xFF	; 255
    5bf4:	f2 e0       	ldi	r31, 0x02	; 2
    5bf6:	af 0e       	add	r10, r31
    5bf8:	b1 1c       	adc	r11, r1
    5bfa:	82 e0       	ldi	r24, 0x02	; 2
    5bfc:	c8 0e       	add	r12, r24
    5bfe:	d1 1c       	adc	r13, r1
    5c00:	58 30       	cpi	r21, 0x08	; 8
    5c02:	09 f0       	breq	.+2      	; 0x5c06 <w5500_sysinit+0x15e>
    5c04:	81 cf       	rjmp	.-254    	; 0x5b08 <w5500_sysinit+0x60>
			}
		}
		ssum += SSIZE[i];
		rsum += RSIZE[i];
	}
}
    5c06:	0f 90       	pop	r0
    5c08:	0f 90       	pop	r0
    5c0a:	0f 90       	pop	r0
    5c0c:	0f 90       	pop	r0
    5c0e:	0f 90       	pop	r0
    5c10:	df 91       	pop	r29
    5c12:	cf 91       	pop	r28
    5c14:	1f 91       	pop	r17
    5c16:	0f 91       	pop	r16
    5c18:	ff 90       	pop	r15
    5c1a:	ef 90       	pop	r14
    5c1c:	df 90       	pop	r13
    5c1e:	cf 90       	pop	r12
    5c20:	bf 90       	pop	r11
    5c22:	af 90       	pop	r10
    5c24:	9f 90       	pop	r9
    5c26:	8f 90       	pop	r8
    5c28:	7f 90       	pop	r7
    5c2a:	6f 90       	pop	r6
    5c2c:	5f 90       	pop	r5
    5c2e:	4f 90       	pop	r4
    5c30:	3f 90       	pop	r3
    5c32:	2f 90       	pop	r2
    5c34:	08 95       	ret

00005c36 <set_w5500_MR>:
	w5500_read_buf(SIPR0,addr,4);
}
///////////////////////////////////////////////////
void set_w5500_MR(U8 val)
{
	w5500_write(MR,val);
    5c36:	48 2f       	mov	r20, r24
    5c38:	60 e0       	ldi	r22, 0x00	; 0
    5c3a:	70 e0       	ldi	r23, 0x00	; 0
    5c3c:	cb 01       	movw	r24, r22
    5c3e:	0c 94 27 2d 	jmp	0x5a4e	; 0x5a4e <w5500_write>

00005c42 <set_w5500_Sn_MR>:
}
///////////////////////////////////////////////////
void set_w5500_Sn_MR(SOCKET s,U8 val)
{
    5c42:	46 2f       	mov	r20, r22
	w5500_write(Sn_MR(s),val);
    5c44:	24 e0       	ldi	r18, 0x04	; 4
    5c46:	82 9f       	mul	r24, r18
    5c48:	c0 01       	movw	r24, r0
    5c4a:	11 24       	eor	r1, r1
    5c4c:	01 96       	adiw	r24, 0x01	; 1
    5c4e:	b3 e0       	ldi	r27, 0x03	; 3
    5c50:	88 0f       	add	r24, r24
    5c52:	99 1f       	adc	r25, r25
    5c54:	ba 95       	dec	r27
    5c56:	e1 f7       	brne	.-8      	; 0x5c50 <set_w5500_Sn_MR+0xe>
    5c58:	bc 01       	movw	r22, r24
    5c5a:	88 27       	eor	r24, r24
    5c5c:	77 fd       	sbrc	r23, 7
    5c5e:	80 95       	com	r24
    5c60:	98 2f       	mov	r25, r24
    5c62:	0c 94 27 2d 	jmp	0x5a4e	; 0x5a4e <w5500_write>

00005c66 <set_w5500_Sn_CR>:
{	
	w5500_write_buf(Sn_DIPR0(s),ip,4);
}
///////////////////////////////////////////////////
void set_w5500_Sn_CR(SOCKET s,U8 val)
{
    5c66:	46 2f       	mov	r20, r22
	w5500_write(Sn_CR(s),val);
    5c68:	20 e2       	ldi	r18, 0x20	; 32
    5c6a:	82 9f       	mul	r24, r18
    5c6c:	c0 01       	movw	r24, r0
    5c6e:	11 24       	eor	r1, r1
    5c70:	88 5f       	subi	r24, 0xF8	; 248
    5c72:	9e 4f       	sbci	r25, 0xFE	; 254
    5c74:	bc 01       	movw	r22, r24
    5c76:	88 27       	eor	r24, r24
    5c78:	77 fd       	sbrc	r23, 7
    5c7a:	80 95       	com	r24
    5c7c:	98 2f       	mov	r25, r24
    5c7e:	0c 94 27 2d 	jmp	0x5a4e	; 0x5a4e <w5500_write>

00005c82 <set_w5500_PHYSTATUS>:
	return val;
}
///////////////////////////////////////////////////
void set_w5500_PHYSTATUS(U8 val)
{
	w5500_write(PHYCFGR,val);
    5c82:	48 2f       	mov	r20, r24
    5c84:	60 e0       	ldi	r22, 0x00	; 0
    5c86:	7e e2       	ldi	r23, 0x2E	; 46
    5c88:	80 e0       	ldi	r24, 0x00	; 0
    5c8a:	90 e0       	ldi	r25, 0x00	; 0
    5c8c:	0c 94 27 2d 	jmp	0x5a4e	; 0x5a4e <w5500_write>

00005c90 <set_w5500_RCR>:
	//This function set the number of Retransmission.
	//
	//If there is no response from the peer or delay in response then recorded time 
	//as per RTR & RCR register seeting then time out will occur.
	//
	w5500_write(RCR,retry);
    5c90:	48 2f       	mov	r20, r24
    5c92:	60 e0       	ldi	r22, 0x00	; 0
    5c94:	7b e1       	ldi	r23, 0x1B	; 27
    5c96:	80 e0       	ldi	r24, 0x00	; 0
    5c98:	90 e0       	ldi	r25, 0x00	; 0
    5c9a:	0c 94 27 2d 	jmp	0x5a4e	; 0x5a4e <w5500_write>

00005c9e <set_w5500_SIMR>:
	//This function set the interrupt mask Enable/Disable appropriate Interrupt. ('1' : interrupt enable)
	//
	//If any bit in IMR is set as '0' then there is not interrupt signal though the bit is
	//set in IR register.
	//
	w5500_write(SIMR,mask); 
    5c9e:	48 2f       	mov	r20, r24
    5ca0:	60 e0       	ldi	r22, 0x00	; 0
    5ca2:	78 e1       	ldi	r23, 0x18	; 24
    5ca4:	80 e0       	ldi	r24, 0x00	; 0
    5ca6:	90 e0       	ldi	r25, 0x00	; 0
    5ca8:	0c 94 27 2d 	jmp	0x5a4e	; 0x5a4e <w5500_write>

00005cac <set_w5500_IMR>:
}
///////////////////////////////////////////////////
void set_w5500_IMR(U8 mask)
{
	w5500_write(IMR,mask);
    5cac:	48 2f       	mov	r20, r24
    5cae:	60 e0       	ldi	r22, 0x00	; 0
    5cb0:	76 e1       	ldi	r23, 0x16	; 22
    5cb2:	80 e0       	ldi	r24, 0x00	; 0
    5cb4:	90 e0       	ldi	r25, 0x00	; 0
    5cb6:	0c 94 27 2d 	jmp	0x5a4e	; 0x5a4e <w5500_write>

00005cba <set_w5500_Sn_IMR>:
{
	w5500_write(Sn_IR(0),val);
}
///////////////////////////////////////////////////
void set_w5500_Sn_IMR(SOCKET s,U8 val)
{
    5cba:	46 2f       	mov	r20, r22
	w5500_write(Sn_IMR(0),val);
    5cbc:	68 e0       	ldi	r22, 0x08	; 8
    5cbe:	7c e2       	ldi	r23, 0x2C	; 44
    5cc0:	80 e0       	ldi	r24, 0x00	; 0
    5cc2:	90 e0       	ldi	r25, 0x00	; 0
    5cc4:	0c 94 27 2d 	jmp	0x5a4e	; 0x5a4e <w5500_write>

00005cc8 <w5500_spi_read>:
	return TRUE;
}
//////////////////////////////////////////////////
//该函数只为读数据,写入的数值无所谓
U8 w5500_spi_read(U8 *data)
{
    5cc8:	fc 01       	movw	r30, r24
	U16 timeout = SPI_TIMEOUT;
	//
	SPDR = SPSR;//清除SPIF(不要改变)
    5cca:	8d b5       	in	r24, 0x2d	; 45
    5ccc:	8e bd       	out	0x2e, r24	; 46
	asm volatile("nop");
    5cce:	00 00       	nop
	asm volatile("nop");
    5cd0:	00 00       	nop
	while(FALSE == spi_interrupt_flag)
    5cd2:	28 ec       	ldi	r18, 0xC8	; 200
    5cd4:	3f ea       	ldi	r19, 0xAF	; 175
    5cd6:	8d b5       	in	r24, 0x2d	; 45
    5cd8:	80 78       	andi	r24, 0x80	; 128
    5cda:	31 f4       	brne	.+12     	; 0x5ce8 <w5500_spi_read+0x20>
    5cdc:	21 50       	subi	r18, 0x01	; 1
    5cde:	31 09       	sbc	r19, r1
	{
		timeout--;
		if(0 == timeout)
    5ce0:	21 15       	cp	r18, r1
    5ce2:	31 05       	cpc	r19, r1
    5ce4:	c1 f7       	brne	.-16     	; 0x5cd6 <w5500_spi_read+0xe>
    5ce6:	03 c0       	rjmp	.+6      	; 0x5cee <w5500_spi_read+0x26>
		{
			return FALSE;
		}
	}
	//
	*data = SPDR;
    5ce8:	8e b5       	in	r24, 0x2e	; 46
    5cea:	80 83       	st	Z, r24
	//
	return TRUE;
    5cec:	81 e0       	ldi	r24, 0x01	; 1
}
    5cee:	08 95       	ret

00005cf0 <w5500_read_buf>:
	//
	return len;
}
///////////////////////////////////////////////////
U16 w5500_read_buf(U32 addr, U8* buf,U16 len)
{
    5cf0:	cf 92       	push	r12
    5cf2:	df 92       	push	r13
    5cf4:	ef 92       	push	r14
    5cf6:	ff 92       	push	r15
    5cf8:	0f 93       	push	r16
    5cfa:	1f 93       	push	r17
    5cfc:	cf 93       	push	r28
    5cfe:	df 93       	push	r29
    5d00:	00 d0       	rcall	.+0      	; 0x5d02 <w5500_read_buf+0x12>
    5d02:	00 d0       	rcall	.+0      	; 0x5d04 <w5500_read_buf+0x14>
    5d04:	1f 92       	push	r1
    5d06:	cd b7       	in	r28, 0x3d	; 61
    5d08:	de b7       	in	r29, 0x3e	; 62
    5d0a:	89 01       	movw	r16, r18
}
///////////////////////////////////////////////////
void w5500_chipselect(Bool bSelect)
{
	//确保w5500_cs管腿为输出
	ddr_w5500_cs = 1;
    5d0c:	23 9a       	sbi	0x04, 3	; 4
    5d0e:	4c 83       	std	Y+4, r20	; 0x04
    5d10:	5d 83       	std	Y+5, r21	; 0x05
    5d12:	6b 83       	std	Y+3, r22	; 0x03
    5d14:	7a 83       	std	Y+2, r23	; 0x02
    5d16:	89 83       	std	Y+1, r24	; 0x01
    5d18:	0e 94 e9 2b 	call	0x57d2	; 0x57d2 <w5500_chipselect.part.0>
	//This function reads into W5500 memory(Buffer)
	//
	U16 idx;
	//
	w5500_chipselect(TRUE);
	ddr_w5500_mosi = 1;
    5d1c:	25 9a       	sbi	0x04, 5	; 4
	ddr_w5500_sck = 1;                             // CS=0, SPI start
    5d1e:	27 9a       	sbi	0x04, 7	; 4
	//
	w5500_spi_write((addr & 0x00FF0000) >> 16);              // Address byte 1
    5d20:	89 81       	ldd	r24, Y+1	; 0x01
    5d22:	0e 94 07 2c 	call	0x580e	; 0x580e <w5500_spi_write>
	w5500_spi_write((addr & 0x0000FF00) >> 8);              // Address byte 2
    5d26:	7a 81       	ldd	r23, Y+2	; 0x02
    5d28:	87 2f       	mov	r24, r23
    5d2a:	0e 94 07 2c 	call	0x580e	; 0x580e <w5500_spi_write>
	w5500_spi_write(addr & 0x000000F8);                     // 控制字段
    5d2e:	6b 81       	ldd	r22, Y+3	; 0x03
    5d30:	86 2f       	mov	r24, r22
    5d32:	88 7f       	andi	r24, 0xF8	; 248
    5d34:	0e 94 07 2c 	call	0x580e	; 0x580e <w5500_spi_write>
    5d38:	86 e0       	ldi	r24, 0x06	; 6
    5d3a:	8a 95       	dec	r24
    5d3c:	f1 f7       	brne	.-4      	; 0x5d3a <w5500_read_buf+0x4a>
    5d3e:	00 c0       	rjmp	.+0      	; 0x5d40 <w5500_read_buf+0x50>
    5d40:	4c 81       	ldd	r20, Y+4	; 0x04
    5d42:	c4 2e       	mov	r12, r20
    5d44:	5d 81       	ldd	r21, Y+5	; 0x05
    5d46:	d5 2e       	mov	r13, r21
    5d48:	76 01       	movw	r14, r12
    5d4a:	e0 0e       	add	r14, r16
    5d4c:	f1 1e       	adc	r15, r17
	//
	delay_us(5);
	//
	for(idx = 0; idx < len; idx++)                      // Read data in loop
    5d4e:	ce 14       	cp	r12, r14
    5d50:	df 04       	cpc	r13, r15
    5d52:	39 f0       	breq	.+14     	; 0x5d62 <w5500_read_buf+0x72>
	{
		w5500_spi_read(&buf[idx]);
    5d54:	c6 01       	movw	r24, r12
    5d56:	0e 94 64 2e 	call	0x5cc8	; 0x5cc8 <w5500_spi_read>
    5d5a:	ef ef       	ldi	r30, 0xFF	; 255
    5d5c:	ce 1a       	sub	r12, r30
    5d5e:	de 0a       	sbc	r13, r30
    5d60:	f6 cf       	rjmp	.-20     	; 0x5d4e <w5500_read_buf+0x5e>
	}
	//
	w5500_chipselect(FALSE);                            // CS=0, SPI end
    5d62:	80 e0       	ldi	r24, 0x00	; 0
    5d64:	0e 94 ff 2b 	call	0x57fe	; 0x57fe <w5500_chipselect>
	//
	return len;
}
    5d68:	c8 01       	movw	r24, r16
    5d6a:	0f 90       	pop	r0
    5d6c:	0f 90       	pop	r0
    5d6e:	0f 90       	pop	r0
    5d70:	0f 90       	pop	r0
    5d72:	0f 90       	pop	r0
    5d74:	df 91       	pop	r29
    5d76:	cf 91       	pop	r28
    5d78:	1f 91       	pop	r17
    5d7a:	0f 91       	pop	r16
    5d7c:	ff 90       	pop	r15
    5d7e:	ef 90       	pop	r14
    5d80:	df 90       	pop	r13
    5d82:	cf 90       	pop	r12
    5d84:	08 95       	ret

00005d86 <w5500_read>:
///////////////////////////////////////////////////
U8 w5500_read(U32 addr)
{
    5d86:	cf 93       	push	r28
    5d88:	df 93       	push	r29
    5d8a:	00 d0       	rcall	.+0      	; 0x5d8c <w5500_read+0x6>
    5d8c:	00 d0       	rcall	.+0      	; 0x5d8e <w5500_read+0x8>
    5d8e:	cd b7       	in	r28, 0x3d	; 61
    5d90:	de b7       	in	r29, 0x3e	; 62
}
///////////////////////////////////////////////////
void w5500_chipselect(Bool bSelect)
{
	//确保w5500_cs管腿为输出
	ddr_w5500_cs = 1;
    5d92:	23 9a       	sbi	0x04, 3	; 4
    5d94:	6c 83       	std	Y+4, r22	; 0x04
    5d96:	7b 83       	std	Y+3, r23	; 0x03
    5d98:	8a 83       	std	Y+2, r24	; 0x02
    5d9a:	0e 94 e9 2b 	call	0x57d2	; 0x57d2 <w5500_chipselect.part.0>
U8 w5500_read(U32 addr)
{
	U8 val;
	//
	w5500_chipselect(TRUE);
	ddr_w5500_mosi = 1;
    5d9e:	25 9a       	sbi	0x04, 5	; 4
	ddr_w5500_sck = 1;
    5da0:	27 9a       	sbi	0x04, 7	; 4
	//
	w5500_spi_write((addr&0x00ff0000)>>16);
    5da2:	8a 81       	ldd	r24, Y+2	; 0x02
    5da4:	0e 94 07 2c 	call	0x580e	; 0x580e <w5500_spi_write>
	w5500_spi_write((addr&0x0000ff00)>>8);
    5da8:	7b 81       	ldd	r23, Y+3	; 0x03
    5daa:	87 2f       	mov	r24, r23
    5dac:	0e 94 07 2c 	call	0x580e	; 0x580e <w5500_spi_write>
	w5500_spi_write(addr&0x000000f8);
    5db0:	6c 81       	ldd	r22, Y+4	; 0x04
    5db2:	86 2f       	mov	r24, r22
    5db4:	88 7f       	andi	r24, 0xF8	; 248
    5db6:	0e 94 07 2c 	call	0x580e	; 0x580e <w5500_spi_write>
    5dba:	86 e0       	ldi	r24, 0x06	; 6
    5dbc:	8a 95       	dec	r24
    5dbe:	f1 f7       	brne	.-4      	; 0x5dbc <w5500_read+0x36>
    5dc0:	00 c0       	rjmp	.+0      	; 0x5dc2 <w5500_read+0x3c>
	//
	delay_us(5);
	//
	w5500_spi_read(&val);
    5dc2:	ce 01       	movw	r24, r28
    5dc4:	01 96       	adiw	r24, 0x01	; 1
    5dc6:	0e 94 64 2e 	call	0x5cc8	; 0x5cc8 <w5500_spi_read>
	//
	w5500_chipselect(FALSE);
    5dca:	80 e0       	ldi	r24, 0x00	; 0
    5dcc:	0e 94 ff 2b 	call	0x57fe	; 0x57fe <w5500_chipselect>
	//
	return val;
}
    5dd0:	89 81       	ldd	r24, Y+1	; 0x01
    5dd2:	0f 90       	pop	r0
    5dd4:	0f 90       	pop	r0
    5dd6:	0f 90       	pop	r0
    5dd8:	0f 90       	pop	r0
    5dda:	df 91       	pop	r29
    5ddc:	cf 91       	pop	r28
    5dde:	08 95       	ret

00005de0 <get_w5500_PHYSTATUS>:
	//
	return val;
}
///////////////////////////////////////////////////
U8 get_w5500_PHYSTATUS(void)
{
    5de0:	cf 93       	push	r28
    5de2:	df 93       	push	r29
    5de4:	c5 e0       	ldi	r28, 0x05	; 5
	U8 val,val1;
	U8 i;
	for(i=0; i<5; i++)
	{
		val = w5500_read(PHYCFGR);
    5de6:	60 e0       	ldi	r22, 0x00	; 0
    5de8:	7e e2       	ldi	r23, 0x2E	; 46
    5dea:	80 e0       	ldi	r24, 0x00	; 0
    5dec:	90 e0       	ldi	r25, 0x00	; 0
    5dee:	0e 94 c3 2e 	call	0x5d86	; 0x5d86 <w5500_read>
    5df2:	d8 2f       	mov	r29, r24
		asm volatile("nop");
    5df4:	00 00       	nop
		asm volatile("nop");
    5df6:	00 00       	nop
		val1 = w5500_read(PHYCFGR);
    5df8:	60 e0       	ldi	r22, 0x00	; 0
    5dfa:	7e e2       	ldi	r23, 0x2E	; 46
    5dfc:	80 e0       	ldi	r24, 0x00	; 0
    5dfe:	90 e0       	ldi	r25, 0x00	; 0
    5e00:	0e 94 c3 2e 	call	0x5d86	; 0x5d86 <w5500_read>
		if(val == val1)
    5e04:	d8 17       	cp	r29, r24
    5e06:	11 f0       	breq	.+4      	; 0x5e0c <get_w5500_PHYSTATUS+0x2c>
    5e08:	c1 50       	subi	r28, 0x01	; 1
///////////////////////////////////////////////////
U8 get_w5500_PHYSTATUS(void)
{
	U8 val,val1;
	U8 i;
	for(i=0; i<5; i++)
    5e0a:	69 f7       	brne	.-38     	; 0x5de6 <get_w5500_PHYSTATUS+0x6>
			break;
		}
	}
	//
	return val;
}	
    5e0c:	8d 2f       	mov	r24, r29
    5e0e:	df 91       	pop	r29
    5e10:	cf 91       	pop	r28
    5e12:	08 95       	ret

00005e14 <get_w5500_Sn_SR>:
	//
	return val;
}
///////////////////////////////////////////////////
U8 get_w5500_Sn_SR(SOCKET s)
{
    5e14:	cf 92       	push	r12
    5e16:	df 92       	push	r13
    5e18:	ef 92       	push	r14
    5e1a:	ff 92       	push	r15
    5e1c:	cf 93       	push	r28
    5e1e:	df 93       	push	r29
	//get socket status
	U8 val,val1;
	U8 i;
	for(i=0; i<5; i++)
	{
		val = w5500_read(Sn_SR(s));
    5e20:	20 e2       	ldi	r18, 0x20	; 32
    5e22:	82 9f       	mul	r24, r18
    5e24:	c0 01       	movw	r24, r0
    5e26:	11 24       	eor	r1, r1
    5e28:	88 5f       	subi	r24, 0xF8	; 248
    5e2a:	9c 4f       	sbci	r25, 0xFC	; 252
    5e2c:	6c 01       	movw	r12, r24
    5e2e:	ee 24       	eor	r14, r14
    5e30:	d7 fc       	sbrc	r13, 7
    5e32:	e0 94       	com	r14
    5e34:	fe 2c       	mov	r15, r14
    5e36:	c5 e0       	ldi	r28, 0x05	; 5
    5e38:	c7 01       	movw	r24, r14
    5e3a:	b6 01       	movw	r22, r12
    5e3c:	0e 94 c3 2e 	call	0x5d86	; 0x5d86 <w5500_read>
    5e40:	d8 2f       	mov	r29, r24
		asm volatile("nop");
    5e42:	00 00       	nop
		asm volatile("nop");
    5e44:	00 00       	nop
		val1 =w5500_read(Sn_SR(s));
    5e46:	c7 01       	movw	r24, r14
    5e48:	b6 01       	movw	r22, r12
    5e4a:	0e 94 c3 2e 	call	0x5d86	; 0x5d86 <w5500_read>
		if(val == val1)
    5e4e:	d8 17       	cp	r29, r24
    5e50:	11 f0       	breq	.+4      	; 0x5e56 <get_w5500_Sn_SR+0x42>
    5e52:	c1 50       	subi	r28, 0x01	; 1
U8 get_w5500_Sn_SR(SOCKET s)
{
	//get socket status
	U8 val,val1;
	U8 i;
	for(i=0; i<5; i++)
    5e54:	89 f7       	brne	.-30     	; 0x5e38 <get_w5500_Sn_SR+0x24>
			break;
		}
	}
	//
	return val;
}
    5e56:	8d 2f       	mov	r24, r29
    5e58:	df 91       	pop	r29
    5e5a:	cf 91       	pop	r28
    5e5c:	ff 90       	pop	r15
    5e5e:	ef 90       	pop	r14
    5e60:	df 90       	pop	r13
    5e62:	cf 90       	pop	r12
    5e64:	08 95       	ret

00005e66 <get_w5500_Sn_CR>:
///////////////////////////////////////////////////
U8 get_w5500_Sn_CR(SOCKET s)
{
    5e66:	cf 92       	push	r12
    5e68:	df 92       	push	r13
    5e6a:	ef 92       	push	r14
    5e6c:	ff 92       	push	r15
    5e6e:	cf 93       	push	r28
    5e70:	df 93       	push	r29
	//get CMD status
	U8 val,val1;
	U8 i;
	for(i=0; i<5; i++)
	{
		val = w5500_read(Sn_CR(s));
    5e72:	20 e2       	ldi	r18, 0x20	; 32
    5e74:	82 9f       	mul	r24, r18
    5e76:	c0 01       	movw	r24, r0
    5e78:	11 24       	eor	r1, r1
    5e7a:	88 5f       	subi	r24, 0xF8	; 248
    5e7c:	9e 4f       	sbci	r25, 0xFE	; 254
    5e7e:	6c 01       	movw	r12, r24
    5e80:	ee 24       	eor	r14, r14
    5e82:	d7 fc       	sbrc	r13, 7
    5e84:	e0 94       	com	r14
    5e86:	fe 2c       	mov	r15, r14
    5e88:	c5 e0       	ldi	r28, 0x05	; 5
    5e8a:	c7 01       	movw	r24, r14
    5e8c:	b6 01       	movw	r22, r12
    5e8e:	0e 94 c3 2e 	call	0x5d86	; 0x5d86 <w5500_read>
    5e92:	d8 2f       	mov	r29, r24
		asm volatile("nop");
    5e94:	00 00       	nop
		asm volatile("nop");
    5e96:	00 00       	nop
		val1 = w5500_read(Sn_CR(s));
    5e98:	c7 01       	movw	r24, r14
    5e9a:	b6 01       	movw	r22, r12
    5e9c:	0e 94 c3 2e 	call	0x5d86	; 0x5d86 <w5500_read>
		if(val == val1)
    5ea0:	d8 17       	cp	r29, r24
    5ea2:	11 f0       	breq	.+4      	; 0x5ea8 <get_w5500_Sn_CR+0x42>
    5ea4:	c1 50       	subi	r28, 0x01	; 1
U8 get_w5500_Sn_CR(SOCKET s)
{
	//get CMD status
	U8 val,val1;
	U8 i;
	for(i=0; i<5; i++)
    5ea6:	89 f7       	brne	.-30     	; 0x5e8a <get_w5500_Sn_CR+0x24>
			break;
		}
	}
	//
	return val;
}
    5ea8:	8d 2f       	mov	r24, r29
    5eaa:	df 91       	pop	r29
    5eac:	cf 91       	pop	r28
    5eae:	ff 90       	pop	r15
    5eb0:	ef 90       	pop	r14
    5eb2:	df 90       	pop	r13
    5eb4:	cf 90       	pop	r12
    5eb6:	08 95       	ret

00005eb8 <get_w5500_Sn_TX_FSR>:
///////////////////////////////////////////////////
U16 get_w5500_Sn_TX_FSR(SOCKET s)
{
    5eb8:	7f 92       	push	r7
    5eba:	8f 92       	push	r8
    5ebc:	9f 92       	push	r9
    5ebe:	af 92       	push	r10
    5ec0:	bf 92       	push	r11
    5ec2:	cf 92       	push	r12
    5ec4:	df 92       	push	r13
    5ec6:	ef 92       	push	r14
    5ec8:	ff 92       	push	r15
    5eca:	0f 93       	push	r16
    5ecc:	1f 93       	push	r17
    5ece:	cf 93       	push	r28
    5ed0:	df 93       	push	r29
		if(retry++ > 5)
		{
			break;
		}
		//
		val1 = w5500_read(Sn_TX_FSR0(s));
    5ed2:	24 e0       	ldi	r18, 0x04	; 4
    5ed4:	82 9f       	mul	r24, r18
    5ed6:	c0 01       	movw	r24, r0
    5ed8:	11 24       	eor	r1, r1
    5eda:	01 96       	adiw	r24, 0x01	; 1
    5edc:	23 e0       	ldi	r18, 0x03	; 3
    5ede:	88 0f       	add	r24, r24
    5ee0:	99 1f       	adc	r25, r25
    5ee2:	2a 95       	dec	r18
    5ee4:	e1 f7       	brne	.-8      	; 0x5ede <get_w5500_Sn_TX_FSR+0x26>
    5ee6:	6c 01       	movw	r12, r24
    5ee8:	20 ee       	ldi	r18, 0xE0	; 224
    5eea:	d2 1a       	sub	r13, r18
    5eec:	ee 24       	eor	r14, r14
    5eee:	d7 fc       	sbrc	r13, 7
    5ef0:	e0 94       	com	r14
    5ef2:	fe 2c       	mov	r15, r14
		asm volatile("nop");
		val1 = (val1 << 8) + w5500_read(Sn_TX_FSR1(s));
    5ef4:	4c 01       	movw	r8, r24
    5ef6:	2f ed       	ldi	r18, 0xDF	; 223
    5ef8:	92 1a       	sub	r9, r18
    5efa:	aa 24       	eor	r10, r10
    5efc:	97 fc       	sbrc	r9, 7
    5efe:	a0 94       	com	r10
    5f00:	ba 2c       	mov	r11, r10
    5f02:	37 e0       	ldi	r19, 0x07	; 7
    5f04:	73 2e       	mov	r7, r19
	//get socket TX free buf size
	//
	//This gives free buffer size of transmit buffer. This is the data size that user can transmit.
	//User shuold check this value first and control the size of transmitting data
	//
	U16 val=0,val1=0;
    5f06:	00 e0       	ldi	r16, 0x00	; 0
    5f08:	10 e0       	ldi	r17, 0x00	; 0
    5f0a:	7a 94       	dec	r7
	unsigned char retry=0;
	//
	do
	{
		if(retry++ > 5)
    5f0c:	29 f1       	breq	.+74     	; 0x5f58 <get_w5500_Sn_TX_FSR+0xa0>
		{
			break;
		}
		//
		val1 = w5500_read(Sn_TX_FSR0(s));
    5f0e:	c7 01       	movw	r24, r14
    5f10:	b6 01       	movw	r22, r12
    5f12:	0e 94 c3 2e 	call	0x5d86	; 0x5d86 <w5500_read>
		asm volatile("nop");
    5f16:	00 00       	nop
		if(retry++ > 5)
		{
			break;
		}
		//
		val1 = w5500_read(Sn_TX_FSR0(s));
    5f18:	c8 2f       	mov	r28, r24
    5f1a:	d0 e0       	ldi	r29, 0x00	; 0
		asm volatile("nop");
		val1 = (val1 << 8) + w5500_read(Sn_TX_FSR1(s));
    5f1c:	dc 2f       	mov	r29, r28
    5f1e:	cc 27       	eor	r28, r28
    5f20:	c5 01       	movw	r24, r10
    5f22:	b4 01       	movw	r22, r8
    5f24:	0e 94 c3 2e 	call	0x5d86	; 0x5d86 <w5500_read>
    5f28:	c8 0f       	add	r28, r24
    5f2a:	d1 1d       	adc	r29, r1
		if (val1 != 0)
    5f2c:	20 97       	sbiw	r28, 0x00	; 0
    5f2e:	89 f0       	breq	.+34     	; 0x5f52 <get_w5500_Sn_TX_FSR+0x9a>
		{
			asm volatile("nop");
    5f30:	00 00       	nop
			asm volatile("nop");
    5f32:	00 00       	nop
   			val = w5500_read(Sn_TX_FSR0(s));
    5f34:	c7 01       	movw	r24, r14
    5f36:	b6 01       	movw	r22, r12
    5f38:	0e 94 c3 2e 	call	0x5d86	; 0x5d86 <w5500_read>
   			asm volatile("nop");
    5f3c:	00 00       	nop
		val1 = (val1 << 8) + w5500_read(Sn_TX_FSR1(s));
		if (val1 != 0)
		{
			asm volatile("nop");
			asm volatile("nop");
   			val = w5500_read(Sn_TX_FSR0(s));
    5f3e:	08 2f       	mov	r16, r24
    5f40:	10 e0       	ldi	r17, 0x00	; 0
   			asm volatile("nop");
   			val = (val << 8) + w5500_read(Sn_TX_FSR1(s));
    5f42:	10 2f       	mov	r17, r16
    5f44:	00 27       	eor	r16, r16
    5f46:	c5 01       	movw	r24, r10
    5f48:	b4 01       	movw	r22, r8
    5f4a:	0e 94 c3 2e 	call	0x5d86	; 0x5d86 <w5500_read>
    5f4e:	08 0f       	add	r16, r24
    5f50:	11 1d       	adc	r17, r1
		}
	} while (val != val1);
    5f52:	0c 17       	cp	r16, r28
    5f54:	1d 07       	cpc	r17, r29
    5f56:	c9 f6       	brne	.-78     	; 0x5f0a <get_w5500_Sn_TX_FSR+0x52>
	//
	return val;
}
    5f58:	c8 01       	movw	r24, r16
    5f5a:	df 91       	pop	r29
    5f5c:	cf 91       	pop	r28
    5f5e:	1f 91       	pop	r17
    5f60:	0f 91       	pop	r16
    5f62:	ff 90       	pop	r15
    5f64:	ef 90       	pop	r14
    5f66:	df 90       	pop	r13
    5f68:	cf 90       	pop	r12
    5f6a:	bf 90       	pop	r11
    5f6c:	af 90       	pop	r10
    5f6e:	9f 90       	pop	r9
    5f70:	8f 90       	pop	r8
    5f72:	7f 90       	pop	r7
    5f74:	08 95       	ret

00005f76 <get_w5500_Sn_RX_RSR>:
///////////////////////////////////////////////////
U16 get_w5500_Sn_RX_RSR(SOCKET s)
{
    5f76:	7f 92       	push	r7
    5f78:	8f 92       	push	r8
    5f7a:	9f 92       	push	r9
    5f7c:	af 92       	push	r10
    5f7e:	bf 92       	push	r11
    5f80:	cf 92       	push	r12
    5f82:	df 92       	push	r13
    5f84:	ef 92       	push	r14
    5f86:	ff 92       	push	r15
    5f88:	0f 93       	push	r16
    5f8a:	1f 93       	push	r17
    5f8c:	cf 93       	push	r28
    5f8e:	df 93       	push	r29
		if(retry++ > 5)
		{
			break;
		}
		//
		val1 = w5500_read(Sn_RX_RSR0(s));
    5f90:	24 e0       	ldi	r18, 0x04	; 4
    5f92:	82 9f       	mul	r24, r18
    5f94:	c0 01       	movw	r24, r0
    5f96:	11 24       	eor	r1, r1
    5f98:	01 96       	adiw	r24, 0x01	; 1
    5f9a:	63 e0       	ldi	r22, 0x03	; 3
    5f9c:	88 0f       	add	r24, r24
    5f9e:	99 1f       	adc	r25, r25
    5fa0:	6a 95       	dec	r22
    5fa2:	e1 f7       	brne	.-8      	; 0x5f9c <get_w5500_Sn_RX_RSR+0x26>
    5fa4:	6c 01       	movw	r12, r24
    5fa6:	2a ed       	ldi	r18, 0xDA	; 218
    5fa8:	d2 1a       	sub	r13, r18
    5faa:	ee 24       	eor	r14, r14
    5fac:	d7 fc       	sbrc	r13, 7
    5fae:	e0 94       	com	r14
    5fb0:	fe 2c       	mov	r15, r14
		asm volatile("nop");
		val1 = (val1 << 8) + w5500_read(Sn_RX_RSR1(s));
    5fb2:	4c 01       	movw	r8, r24
    5fb4:	29 ed       	ldi	r18, 0xD9	; 217
    5fb6:	92 1a       	sub	r9, r18
    5fb8:	aa 24       	eor	r10, r10
    5fba:	97 fc       	sbrc	r9, 7
    5fbc:	a0 94       	com	r10
    5fbe:	ba 2c       	mov	r11, r10
    5fc0:	77 e0       	ldi	r23, 0x07	; 7
    5fc2:	77 2e       	mov	r7, r23
{
	//get socket RX recv buf size
	//
	//This gives size of received data in receive buffer. 
	//
	U16 val=0,val1=0;
    5fc4:	00 e0       	ldi	r16, 0x00	; 0
    5fc6:	10 e0       	ldi	r17, 0x00	; 0
    5fc8:	7a 94       	dec	r7
	unsigned char retry=0;
	//
	do
	{
		if(retry++ > 5)
    5fca:	29 f1       	breq	.+74     	; 0x6016 <get_w5500_Sn_RX_RSR+0xa0>
		{
			break;
		}
		//
		val1 = w5500_read(Sn_RX_RSR0(s));
    5fcc:	c7 01       	movw	r24, r14
    5fce:	b6 01       	movw	r22, r12
    5fd0:	0e 94 c3 2e 	call	0x5d86	; 0x5d86 <w5500_read>
		asm volatile("nop");
    5fd4:	00 00       	nop
		if(retry++ > 5)
		{
			break;
		}
		//
		val1 = w5500_read(Sn_RX_RSR0(s));
    5fd6:	c8 2f       	mov	r28, r24
    5fd8:	d0 e0       	ldi	r29, 0x00	; 0
		asm volatile("nop");
		val1 = (val1 << 8) + w5500_read(Sn_RX_RSR1(s));
    5fda:	dc 2f       	mov	r29, r28
    5fdc:	cc 27       	eor	r28, r28
    5fde:	c5 01       	movw	r24, r10
    5fe0:	b4 01       	movw	r22, r8
    5fe2:	0e 94 c3 2e 	call	0x5d86	; 0x5d86 <w5500_read>
    5fe6:	c8 0f       	add	r28, r24
    5fe8:	d1 1d       	adc	r29, r1
		if(val1 != 0)
    5fea:	20 97       	sbiw	r28, 0x00	; 0
    5fec:	89 f0       	breq	.+34     	; 0x6010 <get_w5500_Sn_RX_RSR+0x9a>
		{
			asm volatile("nop");
    5fee:	00 00       	nop
			asm volatile("nop");
    5ff0:	00 00       	nop
   			val = w5500_read(Sn_RX_RSR0(s));
    5ff2:	c7 01       	movw	r24, r14
    5ff4:	b6 01       	movw	r22, r12
    5ff6:	0e 94 c3 2e 	call	0x5d86	; 0x5d86 <w5500_read>
   			asm volatile("nop");
    5ffa:	00 00       	nop
		val1 = (val1 << 8) + w5500_read(Sn_RX_RSR1(s));
		if(val1 != 0)
		{
			asm volatile("nop");
			asm volatile("nop");
   			val = w5500_read(Sn_RX_RSR0(s));
    5ffc:	08 2f       	mov	r16, r24
    5ffe:	10 e0       	ldi	r17, 0x00	; 0
   			asm volatile("nop");
   			val = (val << 8) + w5500_read(Sn_RX_RSR1(s));
    6000:	10 2f       	mov	r17, r16
    6002:	00 27       	eor	r16, r16
    6004:	c5 01       	movw	r24, r10
    6006:	b4 01       	movw	r22, r8
    6008:	0e 94 c3 2e 	call	0x5d86	; 0x5d86 <w5500_read>
    600c:	08 0f       	add	r16, r24
    600e:	11 1d       	adc	r17, r1
		}
	} while (val != val1);
    6010:	0c 17       	cp	r16, r28
    6012:	1d 07       	cpc	r17, r29
    6014:	c9 f6       	brne	.-78     	; 0x5fc8 <get_w5500_Sn_RX_RSR+0x52>
	//
	return val;
}
    6016:	c8 01       	movw	r24, r16
    6018:	df 91       	pop	r29
    601a:	cf 91       	pop	r28
    601c:	1f 91       	pop	r17
    601e:	0f 91       	pop	r16
    6020:	ff 90       	pop	r15
    6022:	ef 90       	pop	r14
    6024:	df 90       	pop	r13
    6026:	cf 90       	pop	r12
    6028:	bf 90       	pop	r11
    602a:	af 90       	pop	r10
    602c:	9f 90       	pop	r9
    602e:	8f 90       	pop	r8
    6030:	7f 90       	pop	r7
    6032:	08 95       	ret

00006034 <get_w5500_Sn_RX_RD>:
	val = swap_ushort(val);
	w5500_write_buf(Sn_RX_RD0(s),(U8*)&val,2);
}
///////////////////////////////////////////////////
U16 get_w5500_Sn_RX_RD(SOCKET s)
{
    6034:	7f 92       	push	r7
    6036:	8f 92       	push	r8
    6038:	9f 92       	push	r9
    603a:	af 92       	push	r10
    603c:	bf 92       	push	r11
    603e:	cf 92       	push	r12
    6040:	df 92       	push	r13
    6042:	ef 92       	push	r14
    6044:	ff 92       	push	r15
    6046:	0f 93       	push	r16
    6048:	1f 93       	push	r17
    604a:	cf 93       	push	r28
    604c:	df 93       	push	r29
		if(retry++ > 5)
		{
			break;
		}
		//
		tmp1 = w5500_read(Sn_RX_RD0(s));
    604e:	24 e0       	ldi	r18, 0x04	; 4
    6050:	82 9f       	mul	r24, r18
    6052:	c0 01       	movw	r24, r0
    6054:	11 24       	eor	r1, r1
    6056:	01 96       	adiw	r24, 0x01	; 1
    6058:	a3 e0       	ldi	r26, 0x03	; 3
    605a:	88 0f       	add	r24, r24
    605c:	99 1f       	adc	r25, r25
    605e:	aa 95       	dec	r26
    6060:	e1 f7       	brne	.-8      	; 0x605a <get_w5500_Sn_RX_RD+0x26>
    6062:	4c 01       	movw	r8, r24
    6064:	38 ed       	ldi	r19, 0xD8	; 216
    6066:	93 1a       	sub	r9, r19
    6068:	aa 24       	eor	r10, r10
    606a:	97 fc       	sbrc	r9, 7
    606c:	a0 94       	com	r10
    606e:	ba 2c       	mov	r11, r10
		asm volatile("nop");
		tmp1 = ((tmp1 & 0x00ffUL) << 8) + w5500_read(Sn_RX_RD1(s));
    6070:	6c 01       	movw	r12, r24
    6072:	27 ed       	ldi	r18, 0xD7	; 215
    6074:	d2 1a       	sub	r13, r18
    6076:	ee 24       	eor	r14, r14
    6078:	d7 fc       	sbrc	r13, 7
    607a:	e0 94       	com	r14
    607c:	fe 2c       	mov	r15, r14
    607e:	b7 e0       	ldi	r27, 0x07	; 7
    6080:	7b 2e       	mov	r7, r27
	w5500_write_buf(Sn_RX_RD0(s),(U8*)&val,2);
}
///////////////////////////////////////////////////
U16 get_w5500_Sn_RX_RD(SOCKET s)
{
	U16 tmp=0,tmp1=0;
    6082:	80 e0       	ldi	r24, 0x00	; 0
    6084:	90 e0       	ldi	r25, 0x00	; 0
    6086:	7a 94       	dec	r7
	unsigned char retry = 0;
	do 
	{
		if(retry++ > 5)
    6088:	29 f1       	breq	.+74     	; 0x60d4 <get_w5500_Sn_RX_RD+0xa0>
		{
			break;
		}
		//
		tmp1 = w5500_read(Sn_RX_RD0(s));
    608a:	c5 01       	movw	r24, r10
    608c:	b4 01       	movw	r22, r8
    608e:	0e 94 c3 2e 	call	0x5d86	; 0x5d86 <w5500_read>
		asm volatile("nop");
    6092:	00 00       	nop
		if(retry++ > 5)
		{
			break;
		}
		//
		tmp1 = w5500_read(Sn_RX_RD0(s));
    6094:	c8 2f       	mov	r28, r24
    6096:	d0 e0       	ldi	r29, 0x00	; 0
		asm volatile("nop");
		tmp1 = ((tmp1 & 0x00ffUL) << 8) + w5500_read(Sn_RX_RD1(s));
    6098:	dc 2f       	mov	r29, r28
    609a:	cc 27       	eor	r28, r28
    609c:	c7 01       	movw	r24, r14
    609e:	b6 01       	movw	r22, r12
    60a0:	0e 94 c3 2e 	call	0x5d86	; 0x5d86 <w5500_read>
    60a4:	c8 0f       	add	r28, r24
    60a6:	d1 1d       	adc	r29, r1
		asm volatile("nop");
    60a8:	00 00       	nop
		asm volatile("nop");
    60aa:	00 00       	nop
		tmp = w5500_read(Sn_RX_RD0(s));
    60ac:	c5 01       	movw	r24, r10
    60ae:	b4 01       	movw	r22, r8
    60b0:	0e 94 c3 2e 	call	0x5d86	; 0x5d86 <w5500_read>
		asm volatile("nop");
    60b4:	00 00       	nop
		tmp1 = w5500_read(Sn_RX_RD0(s));
		asm volatile("nop");
		tmp1 = ((tmp1 & 0x00ffUL) << 8) + w5500_read(Sn_RX_RD1(s));
		asm volatile("nop");
		asm volatile("nop");
		tmp = w5500_read(Sn_RX_RD0(s));
    60b6:	08 2f       	mov	r16, r24
    60b8:	10 e0       	ldi	r17, 0x00	; 0
		asm volatile("nop");
		tmp = ((tmp & 0x00ffUL) << 8) + w5500_read(Sn_RX_RD1(s));
    60ba:	10 2f       	mov	r17, r16
    60bc:	00 27       	eor	r16, r16
    60be:	c7 01       	movw	r24, r14
    60c0:	b6 01       	movw	r22, r12
    60c2:	0e 94 c3 2e 	call	0x5d86	; 0x5d86 <w5500_read>
    60c6:	98 01       	movw	r18, r16
    60c8:	28 0f       	add	r18, r24
    60ca:	31 1d       	adc	r19, r1
    60cc:	c9 01       	movw	r24, r18
	} while (tmp != tmp1);
    60ce:	2c 17       	cp	r18, r28
    60d0:	3d 07       	cpc	r19, r29
    60d2:	c9 f6       	brne	.-78     	; 0x6086 <get_w5500_Sn_RX_RD+0x52>
	//
	return tmp;
}
    60d4:	df 91       	pop	r29
    60d6:	cf 91       	pop	r28
    60d8:	1f 91       	pop	r17
    60da:	0f 91       	pop	r16
    60dc:	ff 90       	pop	r15
    60de:	ef 90       	pop	r14
    60e0:	df 90       	pop	r13
    60e2:	cf 90       	pop	r12
    60e4:	bf 90       	pop	r11
    60e6:	af 90       	pop	r10
    60e8:	9f 90       	pop	r9
    60ea:	8f 90       	pop	r8
    60ec:	7f 90       	pop	r7
    60ee:	08 95       	ret

000060f0 <enet_analysis_udp>:
		DEBUG_STRING("w5500_phy_link is FALSE\r\n\0");
	}	
}
////////////////////////////////////////////////
void enet_analysis_udp(APP_HEAD *pAH,U8 *pV,U8 len)
{
    60f0:	dc 01       	movw	r26, r24
    60f2:	fb 01       	movw	r30, r22
	extern void modbus_read_maintain_reg_frame_handling(U8 port_type);
	extern READ_MAINTAIN_REG_FRAME *read_maintain_reg_frame_ok;
	extern void modbus_write_multi_reg_frame_handling(U8 port_type);
	extern WRITE_MULTI_REG_FRAME *write_multi_reg_frame_ok;
	//
	switch(pAH->cmd_type)
    60f4:	12 96       	adiw	r26, 0x02	; 2
    60f6:	8c 91       	ld	r24, X
    60f8:	12 97       	sbiw	r26, 0x02	; 2
    60fa:	82 3d       	cpi	r24, 0xD2	; 210
    60fc:	19 f0       	breq	.+6      	; 0x6104 <enet_analysis_udp+0x14>
    60fe:	83 3d       	cpi	r24, 0xD3	; 211
    6100:	31 f0       	breq	.+12     	; 0x610e <enet_analysis_udp+0x1e>
    6102:	08 95       	ret
	{
		//根据命令类型分析，为稍微复杂点的应用做准备
		case FRAME_COMMAND_RUNNING:
		{
			//确定命令类型后，分析具体命令
			switch(pAH->cmd)
    6104:	13 96       	adiw	r26, 0x03	; 3
    6106:	8c 91       	ld	r24, X
    6108:	83 33       	cpi	r24, 0x33	; 51
    610a:	01 f5       	brne	.+64     	; 0x614c <enet_analysis_udp+0x5c>
    610c:	07 c0       	rjmp	.+14     	; 0x611c <enet_analysis_udp+0x2c>
		}
		break;
		case FRAME_COMMAND_PARA:
		{
			//确定命令类型后，分析具体命令
			switch(pAH->cmd)
    610e:	13 96       	adiw	r26, 0x03	; 3
    6110:	8c 91       	ld	r24, X
    6112:	85 33       	cpi	r24, 0x35	; 53
    6114:	19 f0       	breq	.+6      	; 0x611c <enet_analysis_udp+0x2c>
    6116:	86 33       	cpi	r24, 0x36	; 54
    6118:	69 f0       	breq	.+26     	; 0x6134 <enet_analysis_udp+0x44>
    611a:	08 95       	ret
			{
				//根据具体命令，分析帧内容
				case CMD_READ_PARA:
				{
					memcpy(read_maintain_reg_frame_ok->buf,pV,sizeof(READ_MAINTAIN_REG_FRAME));
    611c:	a0 91 0c 0e 	lds	r26, 0x0E0C
    6120:	b0 91 0d 0e 	lds	r27, 0x0E0D
    6124:	88 e0       	ldi	r24, 0x08	; 8
    6126:	01 90       	ld	r0, Z+
    6128:	0d 92       	st	X+, r0
    612a:	8a 95       	dec	r24
    612c:	e1 f7       	brne	.-8      	; 0x6126 <enet_analysis_udp+0x36>
					modbus_read_maintain_reg_frame_handling(PORT_ENET);
    612e:	89 e5       	ldi	r24, 0x59	; 89
    6130:	0c 94 21 20 	jmp	0x4042	; 0x4042 <modbus_read_maintain_reg_frame_handling>
				}
				break;
				case CMD_WRITE_PARA:
				{
					memcpy(write_multi_reg_frame_ok->buf,pV,sizeof(WRITE_MULTI_REG_FRAME));
    6134:	a0 91 00 0c 	lds	r26, 0x0C00
    6138:	b0 91 01 0c 	lds	r27, 0x0C01
    613c:	84 e6       	ldi	r24, 0x64	; 100
    613e:	01 90       	ld	r0, Z+
    6140:	0d 92       	st	X+, r0
    6142:	8a 95       	dec	r24
    6144:	e1 f7       	brne	.-8      	; 0x613e <enet_analysis_udp+0x4e>
					modbus_write_multi_reg_frame_handling(PORT_ENET);
    6146:	89 e5       	ldi	r24, 0x59	; 89
    6148:	0c 94 af 1e 	jmp	0x3d5e	; 0x3d5e <modbus_write_multi_reg_frame_handling>
    614c:	08 95       	ret

0000614e <reset_w5500>:
	}
}
//////////////////////////////////////////////////
void reset_w5500(U16 ms)
{
	ddr_w5500_rst = 1;
    614e:	24 9a       	sbi	0x04, 4	; 4
	bw5500_rst = 0;
    6150:	2c 98       	cbi	0x05, 4	; 5
	//
	U16 i;
	for(i=0; i<ms; i++)
    6152:	20 e0       	ldi	r18, 0x00	; 0
    6154:	30 e0       	ldi	r19, 0x00	; 0
    6156:	28 17       	cp	r18, r24
    6158:	39 07       	cpc	r19, r25
    615a:	49 f0       	breq	.+18     	; 0x616e <reset_w5500+0x20>
	#else
		//round up by default
		__ticks_dc = (uint32_t)(ceil(fabs(__tmp)));
	#endif

	__builtin_avr_delay_cycles(__ticks_dc);
    615c:	e7 ee       	ldi	r30, 0xE7	; 231
    615e:	f3 e0       	ldi	r31, 0x03	; 3
    6160:	31 97       	sbiw	r30, 0x01	; 1
    6162:	f1 f7       	brne	.-4      	; 0x6160 <reset_w5500+0x12>
    6164:	00 c0       	rjmp	.+0      	; 0x6166 <reset_w5500+0x18>
    6166:	00 00       	nop
    6168:	2f 5f       	subi	r18, 0xFF	; 255
    616a:	3f 4f       	sbci	r19, 0xFF	; 255
    616c:	f4 cf       	rjmp	.-24     	; 0x6156 <reset_w5500+0x8>
	{
		delay_ms(1);
	}
	//
	bw5500_rst = 1;
    616e:	2c 9a       	sbi	0x05, 4	; 5
    6170:	08 95       	ret

00006172 <create_mac>:
}
////////////////////////////////////////////////
void create_mac(const IP_PARA *pIP)
{
    6172:	cf 92       	push	r12
    6174:	df 92       	push	r13
    6176:	ef 92       	push	r14
    6178:	ff 92       	push	r15
    617a:	0f 93       	push	r16
    617c:	1f 93       	push	r17
    617e:	cf 93       	push	r28
    6180:	df 93       	push	r29
    6182:	cd b7       	in	r28, 0x3d	; 61
    6184:	de b7       	in	r29, 0x3e	; 62
    6186:	a0 97       	sbiw	r28, 0x20	; 32
    6188:	0f b6       	in	r0, 0x3f	; 63
    618a:	f8 94       	cli
    618c:	de bf       	out	0x3e, r29	; 62
    618e:	0f be       	out	0x3f, r0	; 63
    6190:	cd bf       	out	0x3d, r28	; 61
    6192:	8c 01       	movw	r16, r24
	//需要计算mac地址
	unsigned char tmp[32];
	unsigned long crc32_value;
	tmp[0] = 'I';
    6194:	89 e4       	ldi	r24, 0x49	; 73
    6196:	89 83       	std	Y+1, r24	; 0x01
	tmp[1] = 'P';
    6198:	80 e5       	ldi	r24, 0x50	; 80
    619a:	8a 83       	std	Y+2, r24	; 0x02
	tmp[2] = 'J';//74//注意：MAC地址的第一个字节必须是偶数，奇数是用来作为组播地址的。
    619c:	8a e4       	ldi	r24, 0x4A	; 74
    619e:	8b 83       	std	Y+3, r24	; 0x03
	tmp[3] = 'X';
    61a0:	88 e5       	ldi	r24, 0x58	; 88
    61a2:	8c 83       	std	Y+4, r24	; 0x04
	tmp[4] = TCNT0;//随机数
    61a4:	86 b5       	in	r24, 0x26	; 38
    61a6:	8d 83       	std	Y+5, r24	; 0x05
	tmp[5] = TCNT2;
    61a8:	80 91 b2 00 	lds	r24, 0x00B2
    61ac:	8e 83       	std	Y+6, r24	; 0x06
	tmp[6] = TCNT0;
    61ae:	86 b5       	in	r24, 0x26	; 38
    61b0:	8f 83       	std	Y+7, r24	; 0x07
	tmp[7] = TCNT2;
    61b2:	80 91 b2 00 	lds	r24, 0x00B2
    61b6:	88 87       	std	Y+8, r24	; 0x08
	tmp[8] = TCNT0;
    61b8:	86 b5       	in	r24, 0x26	; 38
    61ba:	89 87       	std	Y+9, r24	; 0x09
	tmp[9] = TCNT2;
    61bc:	80 91 b2 00 	lds	r24, 0x00B2
    61c0:	8a 87       	std	Y+10, r24	; 0x0a
	memcpy(&tmp[10],(char*)pIP,12);
    61c2:	8c e0       	ldi	r24, 0x0C	; 12
    61c4:	f8 01       	movw	r30, r16
    61c6:	de 01       	movw	r26, r28
    61c8:	1b 96       	adiw	r26, 0x0b	; 11
    61ca:	01 90       	ld	r0, Z+
    61cc:	0d 92       	st	X+, r0
    61ce:	8a 95       	dec	r24
    61d0:	e1 f7       	brne	.-8      	; 0x61ca <create_mac+0x58>
	tmp[22] = TCNT1L;//随机数
    61d2:	80 91 84 00 	lds	r24, 0x0084
    61d6:	8f 8b       	std	Y+23, r24	; 0x17
	tmp[23] = TCNT1H;
    61d8:	80 91 85 00 	lds	r24, 0x0085
    61dc:	88 8f       	std	Y+24, r24	; 0x18
	tmp[24] = TCNT3L;
    61de:	80 91 94 00 	lds	r24, 0x0094
    61e2:	89 8f       	std	Y+25, r24	; 0x19
	tmp[25] = TCNT3H;
    61e4:	80 91 95 00 	lds	r24, 0x0095
    61e8:	8a 8f       	std	Y+26, r24	; 0x1a
	crc32_reset();
    61ea:	0e 94 7e 18 	call	0x30fc	; 0x30fc <crc32_reset>
	crc32_iterate_buffer(tmp,22+4);
    61ee:	6a e1       	ldi	r22, 0x1A	; 26
    61f0:	ce 01       	movw	r24, r28
    61f2:	01 96       	adiw	r24, 0x01	; 1
    61f4:	0e 94 ba 18 	call	0x3174	; 0x3174 <crc32_iterate_buffer>
	crc32_value=crc32_get_value();
    61f8:	0e 94 d3 18 	call	0x31a6	; 0x31a6 <crc32_get_value>
	//
	memcpy((char*)&tmp[4],(char*)&crc32_value,4);
    61fc:	6d 83       	std	Y+5, r22	; 0x05
    61fe:	7e 83       	std	Y+6, r23	; 0x06
    6200:	8f 83       	std	Y+7, r24	; 0x07
    6202:	98 87       	std	Y+8, r25	; 0x08
	memcpy((char*)&tmp[8],(char*)pIP,sizeof(IP_PARA));
    6204:	8c e0       	ldi	r24, 0x0C	; 12
    6206:	f8 01       	movw	r30, r16
    6208:	de 01       	movw	r26, r28
    620a:	19 96       	adiw	r26, 0x09	; 9
    620c:	01 90       	ld	r0, Z+
    620e:	0d 92       	st	X+, r0
    6210:	8a 95       	dec	r24
    6212:	e1 f7       	brne	.-8      	; 0x620c <create_mac+0x9a>
    6214:	8e 01       	movw	r16, r28
    6216:	0f 5f       	subi	r16, 0xFF	; 255
    6218:	1f 4f       	sbci	r17, 0xFF	; 255
    621a:	84 e2       	ldi	r24, 0x24	; 36
    621c:	e8 2e       	mov	r14, r24
    621e:	81 e0       	ldi	r24, 0x01	; 1
    6220:	f8 2e       	mov	r15, r24
    6222:	6e 01       	movw	r12, r28
    6224:	85 e1       	ldi	r24, 0x15	; 21
    6226:	c8 0e       	add	r12, r24
    6228:	d1 1c       	adc	r13, r1
	//将新的网络参数写入EEPROM
	unsigned char i;
	uint8_t *p = (uint8_t *)&m_ePara[0].para.w5500_net_para;//‘IP’也写入了FLASH了
	for(i=0; i<sizeof(NET_PARA); i++)
	{
		eeprom_write_byte_user(&p[i],tmp[i]);
    622a:	f8 01       	movw	r30, r16
    622c:	61 91       	ld	r22, Z+
    622e:	8f 01       	movw	r16, r30
    6230:	c7 01       	movw	r24, r14
    6232:	0e 94 a8 0f 	call	0x1f50	; 0x1f50 <eeprom_write_byte_user>
    6236:	ff ef       	ldi	r31, 0xFF	; 255
    6238:	ef 1a       	sub	r14, r31
    623a:	ff 0a       	sbc	r15, r31
	memcpy((char*)&tmp[4],(char*)&crc32_value,4);
	memcpy((char*)&tmp[8],(char*)pIP,sizeof(IP_PARA));
	//将新的网络参数写入EEPROM
	unsigned char i;
	uint8_t *p = (uint8_t *)&m_ePara[0].para.w5500_net_para;//‘IP’也写入了FLASH了
	for(i=0; i<sizeof(NET_PARA); i++)
    623c:	0c 15       	cp	r16, r12
    623e:	1d 05       	cpc	r17, r13
    6240:	a1 f7       	brne	.-24     	; 0x622a <create_mac+0xb8>
	{
		eeprom_write_byte_user(&p[i],tmp[i]);
	}
}
    6242:	a0 96       	adiw	r28, 0x20	; 32
    6244:	0f b6       	in	r0, 0x3f	; 63
    6246:	f8 94       	cli
    6248:	de bf       	out	0x3e, r29	; 62
    624a:	0f be       	out	0x3f, r0	; 63
    624c:	cd bf       	out	0x3d, r28	; 61
    624e:	df 91       	pop	r29
    6250:	cf 91       	pop	r28
    6252:	1f 91       	pop	r17
    6254:	0f 91       	pop	r16
    6256:	ff 90       	pop	r15
    6258:	ef 90       	pop	r14
    625a:	df 90       	pop	r13
    625c:	cf 90       	pop	r12
    625e:	08 95       	ret

00006260 <w5500_udp_close>:
		return TRUE;
	}	
}
///////////////////////////////////////////////
U8 w5500_udp_close(U8 socket)
{
    6260:	cf 93       	push	r28
    6262:	df 93       	push	r29
    6264:	c8 2f       	mov	r28, r24
	U8 i;
	//
	if(socket >= W5500_MAX_SOCK_NUM)
    6266:	88 30       	cpi	r24, 0x08	; 8
    6268:	a0 f4       	brcc	.+40     	; 0x6292 <w5500_udp_close+0x32>
	{
		return FALSE;
	}
	//
	set_w5500_Sn_CR(socket, Sn_CR_CLOSE);// 等待命令执行完成
    626a:	60 e1       	ldi	r22, 0x10	; 16
    626c:	0e 94 33 2e 	call	0x5c66	; 0x5c66 <set_w5500_Sn_CR>
    6270:	d8 ec       	ldi	r29, 0xC8	; 200
	for(i=0; i<200; i++) //100ms
	{
		if(0 == get_w5500_Sn_CR(socket))
    6272:	8c 2f       	mov	r24, r28
    6274:	0e 94 33 2f 	call	0x5e66	; 0x5e66 <get_w5500_Sn_CR>
    6278:	81 11       	cpse	r24, r1
    627a:	02 c0       	rjmp	.+4      	; 0x6280 <w5500_udp_close+0x20>
{
	U8 i;
	//
	if(socket >= W5500_MAX_SOCK_NUM)
	{
		return FALSE;
    627c:	81 e0       	ldi	r24, 0x01	; 1
    627e:	0a c0       	rjmp	.+20     	; 0x6294 <w5500_udp_close+0x34>
	#else
		//round up by default
		__ticks_dc = (uint32_t)(ceil(fabs(__tmp)));
	#endif

	__builtin_avr_delay_cycles(__ticks_dc);
    6280:	83 ef       	ldi	r24, 0xF3	; 243
    6282:	91 e0       	ldi	r25, 0x01	; 1
    6284:	01 97       	sbiw	r24, 0x01	; 1
    6286:	f1 f7       	brne	.-4      	; 0x6284 <w5500_udp_close+0x24>
    6288:	00 c0       	rjmp	.+0      	; 0x628a <w5500_udp_close+0x2a>
    628a:	00 00       	nop
    628c:	d1 50       	subi	r29, 0x01	; 1
	}
	//
	set_w5500_Sn_CR(socket, Sn_CR_CLOSE);// 等待命令执行完成
	for(i=0; i<200; i++) //100ms
    628e:	89 f7       	brne	.-30     	; 0x6272 <w5500_udp_close+0x12>
    6290:	f5 cf       	rjmp	.-22     	; 0x627c <w5500_udp_close+0x1c>
{
	U8 i;
	//
	if(socket >= W5500_MAX_SOCK_NUM)
	{
		return FALSE;
    6292:	80 e0       	ldi	r24, 0x00	; 0
		}
		delay_us(500);
	}
	//
	return TRUE;	
}
    6294:	df 91       	pop	r29
    6296:	cf 91       	pop	r28
    6298:	08 95       	ret

0000629a <w5500_udp_open>:
		eeprom_write_byte_user(&p[i],tmp[i]);
	}
}
///////////////////////////////////////////////
U8 w5500_udp_open(U8 socket,U16 port)
{
    629a:	0f 93       	push	r16
    629c:	1f 93       	push	r17
    629e:	cf 93       	push	r28
    62a0:	df 93       	push	r29
    62a2:	18 2f       	mov	r17, r24
    62a4:	eb 01       	movw	r28, r22
	if(socket >= W5500_MAX_SOCK_NUM)
    62a6:	88 30       	cpi	r24, 0x08	; 8
    62a8:	78 f5       	brcc	.+94     	; 0x6308 <w5500_udp_open+0x6e>
	{
		return FALSE;
	}
	//
	if (0 == port)
    62aa:	20 97       	sbiw	r28, 0x00	; 0
    62ac:	69 f1       	breq	.+90     	; 0x6308 <w5500_udp_open+0x6e>
	{
		return FALSE;
	}
	//
	w5500_udp_close(socket);
    62ae:	0e 94 30 31 	call	0x6260	; 0x6260 <w5500_udp_close>
	//
	set_w5500_Sn_MR(socket,Sn_MR_UDP);
    62b2:	62 e0       	ldi	r22, 0x02	; 2
    62b4:	81 2f       	mov	r24, r17
    62b6:	0e 94 21 2e 	call	0x5c42	; 0x5c42 <set_w5500_Sn_MR>
	set_w5500_Sn_PORT(socket,port);
    62ba:	be 01       	movw	r22, r28
    62bc:	81 2f       	mov	r24, r17
    62be:	0e 94 8d 2c 	call	0x591a	; 0x591a <set_w5500_Sn_PORT>
    62c2:	d5 e0       	ldi	r29, 0x05	; 5
	//
	signed char retry;
	for(retry = 5;retry > 0;retry--)
	{
		//套接字socket设置为UDP模式并打开套接字
		set_w5500_Sn_CR(socket,Sn_CR_OPEN);
    62c4:	61 e0       	ldi	r22, 0x01	; 1
    62c6:	81 2f       	mov	r24, r17
    62c8:	0e 94 33 2e 	call	0x5c66	; 0x5c66 <set_w5500_Sn_CR>
    62cc:	c2 e3       	ldi	r28, 0x32	; 50
	#else
		//round up by default
		__ticks_dc = (uint32_t)(ceil(fabs(__tmp)));
	#endif

	__builtin_avr_delay_cycles(__ticks_dc);
    62ce:	8f ec       	ldi	r24, 0xCF	; 207
    62d0:	97 e0       	ldi	r25, 0x07	; 7
    62d2:	01 97       	sbiw	r24, 0x01	; 1
    62d4:	f1 f7       	brne	.-4      	; 0x62d2 <w5500_udp_open+0x38>
    62d6:	00 c0       	rjmp	.+0      	; 0x62d8 <w5500_udp_open+0x3e>
    62d8:	00 00       	nop
		unsigned char i;
		unsigned char sn_sr;
		for(i=50;i>0;i--)
		{
			delay_ms(2);
			sn_sr = get_w5500_Sn_SR(socket);
    62da:	81 2f       	mov	r24, r17
    62dc:	0e 94 0a 2f 	call	0x5e14	; 0x5e14 <get_w5500_Sn_SR>
    62e0:	08 2f       	mov	r16, r24
			if(sn_sr == SOCK_UDP)
    62e2:	82 32       	cpi	r24, 0x22	; 34
    62e4:	79 f0       	breq	.+30     	; 0x6304 <w5500_udp_open+0x6a>
			{
				break;
			}
			else
			{
				DEBUG_STRING("w5500_Sn_SR = \0");
    62e6:	6e e0       	ldi	r22, 0x0E	; 14
    62e8:	85 e7       	ldi	r24, 0x75	; 117
    62ea:	92 e0       	ldi	r25, 0x02	; 2
    62ec:	0e 94 20 2b 	call	0x5640	; 0x5640 <send_uart1_to_computer>
				DEBUG_VALUE_TEXT(sn_sr);
    62f0:	60 2f       	mov	r22, r16
    62f2:	70 e0       	ldi	r23, 0x00	; 0
    62f4:	80 e0       	ldi	r24, 0x00	; 0
    62f6:	90 e0       	ldi	r25, 0x00	; 0
    62f8:	41 e0       	ldi	r20, 0x01	; 1
    62fa:	0e 94 21 2b 	call	0x5642	; 0x5642 <send_ulong_ascii>
    62fe:	c1 50       	subi	r28, 0x01	; 1
		//套接字socket设置为UDP模式并打开套接字
		set_w5500_Sn_CR(socket,Sn_CR_OPEN);
		//
		unsigned char i;
		unsigned char sn_sr;
		for(i=50;i>0;i--)
    6300:	31 f7       	brne	.-52     	; 0x62ce <w5500_udp_open+0x34>
    6302:	04 c0       	rjmp	.+8      	; 0x630c <w5500_udp_open+0x72>
	{
		return FALSE;
	}
	else
	{
		return TRUE;
    6304:	c1 e0       	ldi	r28, 0x01	; 1
    6306:	0d c0       	rjmp	.+26     	; 0x6322 <w5500_udp_open+0x88>
///////////////////////////////////////////////
U8 w5500_udp_open(U8 socket,U16 port)
{
	if(socket >= W5500_MAX_SOCK_NUM)
	{
		return FALSE;
    6308:	c0 e0       	ldi	r28, 0x00	; 0
    630a:	0b c0       	rjmp	.+22     	; 0x6322 <w5500_udp_open+0x88>
				DEBUG_VALUE_TEXT(sn_sr);
			}
		}
		if(0==i)
		{
			w5500_udp_close(socket);
    630c:	81 2f       	mov	r24, r17
    630e:	0e 94 30 31 	call	0x6260	; 0x6260 <w5500_udp_close>
    6312:	8f e0       	ldi	r24, 0x0F	; 15
    6314:	97 e2       	ldi	r25, 0x27	; 39
    6316:	01 97       	sbiw	r24, 0x01	; 1
    6318:	f1 f7       	brne	.-4      	; 0x6316 <w5500_udp_open+0x7c>
    631a:	00 c0       	rjmp	.+0      	; 0x631c <w5500_udp_open+0x82>
    631c:	00 00       	nop
    631e:	d1 50       	subi	r29, 0x01	; 1
	//
	set_w5500_Sn_MR(socket,Sn_MR_UDP);
	set_w5500_Sn_PORT(socket,port);
	//
	signed char retry;
	for(retry = 5;retry > 0;retry--)
    6320:	89 f6       	brne	.-94     	; 0x62c4 <w5500_udp_open+0x2a>
	}
	else
	{
		return TRUE;
	}	
}
    6322:	8c 2f       	mov	r24, r28
    6324:	df 91       	pop	r29
    6326:	cf 91       	pop	r28
    6328:	1f 91       	pop	r17
    632a:	0f 91       	pop	r16
    632c:	08 95       	ret

0000632e <init_w5500_sub>:
	return TRUE;	
}
///////////////////////////////////////////////
Bool init_w5500_sub(void)
{
	w5500_is_tx_ing=FALSE;
    632e:	10 92 b4 0e 	sts	0x0EB4, r1
	w5500_phy_link=FALSE;
    6332:	10 92 bf 09 	sts	0x09BF, r1
	w5500_phystatus_read_space=boot_time;
    6336:	80 91 58 0b 	lds	r24, 0x0B58
    633a:	90 91 59 0b 	lds	r25, 0x0B59
    633e:	a0 91 5a 0b 	lds	r26, 0x0B5A
    6342:	b0 91 5b 0b 	lds	r27, 0x0B5B
    6346:	80 93 c4 0e 	sts	0x0EC4, r24
    634a:	90 93 c5 0e 	sts	0x0EC5, r25
    634e:	a0 93 c6 0e 	sts	0x0EC6, r26
    6352:	b0 93 c7 0e 	sts	0x0EC7, r27
	//
	w5500_rx_frame_count=0;
    6356:	10 92 c9 10 	sts	0x10C9, r1
	w5500_rx_write_id=0;
    635a:	10 92 ae 0e 	sts	0x0EAE, r1
	w5500_rx_read_id=0;
    635e:	10 92 c3 0e 	sts	0x0EC3, r1
	//
	ddr_w5500_int = 0;
    6362:	22 98       	cbi	0x04, 2	; 4
	bw5500_int = 1;//上拉
    6364:	2a 9a       	sbi	0x05, 2	; 5
	//
	//Init. TX & RX Memory size
	w5500_sysinit(w5500_txsize, w5500_rxsize);
    6366:	62 e0       	ldi	r22, 0x02	; 2
    6368:	71 e0       	ldi	r23, 0x01	; 1
    636a:	8a e0       	ldi	r24, 0x0A	; 10
    636c:	91 e0       	ldi	r25, 0x01	; 1
    636e:	0e 94 54 2d 	call	0x5aa8	; 0x5aa8 <w5500_sysinit>
	//
	set_w5500_MR(0);//MR_PB//资料显示复位值为0，该处显性设置下
    6372:	80 e0       	ldi	r24, 0x00	; 0
    6374:	0e 94 1b 2e 	call	0x5c36	; 0x5c36 <set_w5500_MR>
	//
    //Set PTR and RCR register	
    set_w5500_RTR(WINDOWFULL_WAIT_TIME);//重试时间寄存器，每一个单位值代表100us
    6378:	80 e1       	ldi	r24, 0x10	; 16
    637a:	97 e2       	ldi	r25, 0x27	; 39
    637c:	0e 94 e7 2c 	call	0x59ce	; 0x59ce <set_w5500_RTR>
    set_w5500_RCR(WINDOWFULL_MAX_RETRY_NUM);//重试计数寄存器，最多重传次数
    6380:	83 e0       	ldi	r24, 0x03	; 3
    6382:	0e 94 48 2e 	call	0x5c90	; 0x5c90 <set_w5500_RCR>
	//
	set_w5500_SHAR(m_rPara.para.w5500_net_para.mac_para.mac);
    6386:	8e e7       	ldi	r24, 0x7E	; 126
    6388:	9a e0       	ldi	r25, 0x0A	; 10
    638a:	0e 94 7b 2c 	call	0x58f6	; 0x58f6 <set_w5500_SHAR>
    set_w5500_SUBR(m_rPara.para.w5500_net_para.ip_para.net_mask);
    638e:	88 e8       	ldi	r24, 0x88	; 136
    6390:	9a e0       	ldi	r25, 0x0A	; 10
    6392:	0e 94 72 2c 	call	0x58e4	; 0x58e4 <set_w5500_SUBR>
    set_w5500_GAR(m_rPara.para.w5500_net_para.ip_para.gateway);
    6396:	8c e8       	ldi	r24, 0x8C	; 140
    6398:	9a e0       	ldi	r25, 0x0A	; 10
    639a:	0e 94 69 2c 	call	0x58d2	; 0x58d2 <set_w5500_GAR>
    set_w5500_SIPR(m_rPara.para.w5500_net_para.ip_para.ip_addr);
    639e:	84 e8       	ldi	r24, 0x84	; 132
    63a0:	9a e0       	ldi	r25, 0x0A	; 10
    63a2:	0e 94 84 2c 	call	0x5908	; 0x5908 <set_w5500_SIPR>
	//
	//可以用硬件来设置w5500的PHY工作模式，如果硬件已经设置正确该处就不需要再设置了
	//设置PHY为10M全双工，并设置RST位为零，重启PHY
	set_w5500_PHYSTATUS(PHYCFGR_OPMD|PHYCFGR_OPMDC_10F);//PHYCFGR_OPMDC_10H
    63a6:	88 e4       	ldi	r24, 0x48	; 72
    63a8:	0e 94 41 2e 	call	0x5c82	; 0x5c82 <set_w5500_PHYSTATUS>
    63ac:	87 ee       	ldi	r24, 0xE7	; 231
    63ae:	93 e0       	ldi	r25, 0x03	; 3
    63b0:	01 97       	sbiw	r24, 0x01	; 1
    63b2:	f1 f7       	brne	.-4      	; 0x63b0 <init_w5500_sub+0x82>
    63b4:	00 c0       	rjmp	.+0      	; 0x63b6 <init_w5500_sub+0x88>
    63b6:	00 00       	nop
	delay_ms(1);
	//PHY重启后，设置RST为1，终止PHY的重启
	set_w5500_PHYSTATUS(get_w5500_PHYSTATUS()|PHYCFGR_RST);
    63b8:	0e 94 f0 2e 	call	0x5de0	; 0x5de0 <get_w5500_PHYSTATUS>
    63bc:	80 68       	ori	r24, 0x80	; 128
    63be:	0e 94 41 2e 	call	0x5c82	; 0x5c82 <set_w5500_PHYSTATUS>
	//
	set_w5500_Sn_MR(0,0);//资料显示复位值为0，该处显性设置下
    63c2:	60 e0       	ldi	r22, 0x00	; 0
    63c4:	80 e0       	ldi	r24, 0x00	; 0
    63c6:	0e 94 21 2e 	call	0x5c42	; 0x5c42 <set_w5500_Sn_MR>
	set_w5500_IMR(IMR_UNREACH|IMR_CONFLICT);
    63ca:	80 ec       	ldi	r24, 0xC0	; 192
    63cc:	0e 94 56 2e 	call	0x5cac	; 0x5cac <set_w5500_IMR>
	set_w5500_Sn_IMR(0,Sn_IMR_TIMEOUT);//通道0允许时间溢出中断
    63d0:	68 e0       	ldi	r22, 0x08	; 8
    63d2:	80 e0       	ldi	r24, 0x00	; 0
    63d4:	0e 94 5d 2e 	call	0x5cba	; 0x5cba <set_w5500_Sn_IMR>
	//
	set_w5500_SIMR(0b00000000);
    63d8:	80 e0       	ldi	r24, 0x00	; 0
    63da:	0e 94 4f 2e 	call	0x5c9e	; 0x5c9e <set_w5500_SIMR>
	//
	w5500_udp_open_ok = w5500_udp_open(0,local_udp_port);//套接字0，端口号16529，打开
    63de:	60 91 00 01 	lds	r22, 0x0100
    63e2:	70 91 01 01 	lds	r23, 0x0101
    63e6:	80 e0       	ldi	r24, 0x00	; 0
    63e8:	0e 94 4d 31 	call	0x629a	; 0x629a <w5500_udp_open>
    63ec:	80 93 be 09 	sts	0x09BE, r24
	//
	return w5500_udp_open_ok;
    63f0:	80 91 be 09 	lds	r24, 0x09BE
}
    63f4:	08 95       	ret

000063f6 <init_w5500>:
////////////////////////////////////////////////
Bool init_w5500(U32 reset_ms)
{
	bw5500_int = 1;//上拉
    63f6:	2a 9a       	sbi	0x05, 2	; 5
	ddr_w5500_int = 0;
    63f8:	22 98       	cbi	0x04, 2	; 4
	bw5500_cs = 1;//不选中
    63fa:	2b 9a       	sbi	0x05, 3	; 5
	ddr_w5500_cs = 1;
    63fc:	23 9a       	sbi	0x04, 3	; 4
	bw5500_rst = 1;//不复位
    63fe:	2c 9a       	sbi	0x05, 4	; 5
	ddr_w5500_rst = 1;
    6400:	24 9a       	sbi	0x04, 4	; 4
	//
	reset_w5500(reset_ms);//带有延时
    6402:	cb 01       	movw	r24, r22
    6404:	0e 94 a7 30 	call	0x614e	; 0x614e <reset_w5500>
	//
	return init_w5500_sub();
    6408:	0c 94 97 31 	jmp	0x632e	; 0x632e <init_w5500_sub>

0000640c <w5500_phy_status_check>:
	//w5500数据接收和发送（不主动发送数据，只在收到命令后才回数据）
	w5500_judge_and_read_write_data();
}
////////////////////////////////////////////////
void w5500_phy_status_check(void)
{
    640c:	cf 93       	push	r28
	U16 w5500_link_off_wait=150; //1500ms
	//
	U8 status = get_w5500_PHYSTATUS();
    640e:	0e 94 f0 2e 	call	0x5de0	; 0x5de0 <get_w5500_PHYSTATUS>
    6412:	c8 2f       	mov	r28, r24
	//
	if(PHYCFGR_LNK_ON == (status&PHYCFGR_LNK_ON))//LINK
    6414:	80 ff       	sbrs	r24, 0
    6416:	26 c0       	rjmp	.+76     	; 0x6464 <w5500_phy_status_check+0x58>
	{
		//link on
		if(w5500_link_on_count >= 2)
    6418:	80 91 c2 09 	lds	r24, 0x09C2
    641c:	82 30       	cpi	r24, 0x02	; 2
    641e:	c0 f0       	brcs	.+48     	; 0x6450 <w5500_phy_status_check+0x44>
		{
			if(FALSE == w5500_phy_link)
    6420:	80 91 bf 09 	lds	r24, 0x09BF
    6424:	81 11       	cpse	r24, r1
    6426:	14 c0       	rjmp	.+40     	; 0x6450 <w5500_phy_status_check+0x44>
			{
				w5500_phy_link = TRUE;
    6428:	81 e0       	ldi	r24, 0x01	; 1
    642a:	80 93 bf 09 	sts	0x09BF, r24
				w5500_link_off_wait=150; //1500ms
				//
				TRACE_STRING("w5500 phy link on\r\n\0");
    642e:	63 e1       	ldi	r22, 0x13	; 19
    6430:	85 e8       	ldi	r24, 0x85	; 133
    6432:	92 e0       	ldi	r25, 0x02	; 2
    6434:	0e 94 20 2b 	call	0x5640	; 0x5640 <send_uart1_to_computer>
				//
				if(FALSE == w5500_udp_open_ok)
    6438:	80 91 be 09 	lds	r24, 0x09BE
    643c:	81 11       	cpse	r24, r1
    643e:	08 c0       	rjmp	.+16     	; 0x6450 <w5500_phy_status_check+0x44>
				{
					w5500_udp_open_ok = w5500_udp_open(0,local_udp_port);
    6440:	60 91 00 01 	lds	r22, 0x0100
    6444:	70 91 01 01 	lds	r23, 0x0101
    6448:	0e 94 4d 31 	call	0x629a	; 0x629a <w5500_udp_open>
    644c:	80 93 be 09 	sts	0x09BE, r24
				}
			}
		}
		//
		w5500_link_off_count=0;
    6450:	10 92 c1 09 	sts	0x09C1, r1
    6454:	10 92 c0 09 	sts	0x09C0, r1
		w5500_link_on_count++;
    6458:	80 91 c2 09 	lds	r24, 0x09C2
    645c:	8f 5f       	subi	r24, 0xFF	; 255
    645e:	80 93 c2 09 	sts	0x09C2, r24
    6462:	20 c0       	rjmp	.+64     	; 0x64a4 <w5500_phy_status_check+0x98>
	}
	else
	{
		//link off
		if(w5500_link_off_count >= 3)
    6464:	20 91 c0 09 	lds	r18, 0x09C0
    6468:	30 91 c1 09 	lds	r19, 0x09C1
    646c:	23 30       	cpi	r18, 0x03	; 3
    646e:	31 05       	cpc	r19, r1
    6470:	68 f0       	brcs	.+26     	; 0x648c <w5500_phy_status_check+0x80>
		{
			if(TRUE == w5500_phy_link)
    6472:	80 91 bf 09 	lds	r24, 0x09BF
    6476:	81 30       	cpi	r24, 0x01	; 1
    6478:	49 f4       	brne	.+18     	; 0x648c <w5500_phy_status_check+0x80>
			{
				w5500_phy_link = FALSE;
    647a:	10 92 bf 09 	sts	0x09BF, r1
				TRACE_STRING("w5500 phy link off\r\n\0");
    647e:	64 e1       	ldi	r22, 0x14	; 20
    6480:	8a e9       	ldi	r24, 0x9A	; 154
    6482:	92 e0       	ldi	r25, 0x02	; 2
    6484:	0e 94 20 2b 	call	0x5640	; 0x5640 <send_uart1_to_computer>
				//
				w5500_udp_open_ok = FALSE;
    6488:	10 92 be 09 	sts	0x09BE, r1
			}
		}
		//
		w5500_link_off_count++;
    648c:	20 91 c0 09 	lds	r18, 0x09C0
    6490:	30 91 c1 09 	lds	r19, 0x09C1
    6494:	2f 5f       	subi	r18, 0xFF	; 255
    6496:	3f 4f       	sbci	r19, 0xFF	; 255
    6498:	30 93 c1 09 	sts	0x09C1, r19
    649c:	20 93 c0 09 	sts	0x09C0, r18
		w5500_link_on_count=0;
    64a0:	10 92 c2 09 	sts	0x09C2, r1
	}
	//
	#if 1
	if(PHYCFGR_SPD_100 == (status&PHYCFGR_SPD_100))//SPEED
    64a4:	c1 ff       	sbrs	r28, 1
    64a6:	0d c0       	rjmp	.+26     	; 0x64c2 <w5500_phy_status_check+0xb6>
	{
		w5500_phy_speed_10m = FALSE;
    64a8:	10 92 af 0e 	sts	0x0EAF, r1
		if(FALSE == w5500_phy_speed_100m)
    64ac:	80 91 c1 0e 	lds	r24, 0x0EC1
    64b0:	81 11       	cpse	r24, r1
    64b2:	15 c0       	rjmp	.+42     	; 0x64de <w5500_phy_status_check+0xd2>
		{
			w5500_phy_speed_100m = TRUE;
    64b4:	81 e0       	ldi	r24, 0x01	; 1
    64b6:	80 93 c1 0e 	sts	0x0EC1, r24
			//
			TRACE_STRING("w5500 phy speed 100m\r\n\0");
    64ba:	66 e1       	ldi	r22, 0x16	; 22
    64bc:	80 eb       	ldi	r24, 0xB0	; 176
    64be:	92 e0       	ldi	r25, 0x02	; 2
    64c0:	0c c0       	rjmp	.+24     	; 0x64da <w5500_phy_status_check+0xce>
		}
	}
	else
	{
		w5500_phy_speed_100m = FALSE;
    64c2:	10 92 c1 0e 	sts	0x0EC1, r1
		if(FALSE == w5500_phy_speed_10m)
    64c6:	80 91 af 0e 	lds	r24, 0x0EAF
    64ca:	81 11       	cpse	r24, r1
    64cc:	08 c0       	rjmp	.+16     	; 0x64de <w5500_phy_status_check+0xd2>
		{
			w5500_phy_speed_10m = TRUE;
    64ce:	81 e0       	ldi	r24, 0x01	; 1
    64d0:	80 93 af 0e 	sts	0x0EAF, r24
			//
			TRACE_STRING("w5500 phy speed 10m\r\n\0");
    64d4:	65 e1       	ldi	r22, 0x15	; 21
    64d6:	88 ec       	ldi	r24, 0xC8	; 200
    64d8:	92 e0       	ldi	r25, 0x02	; 2
    64da:	0e 94 20 2b 	call	0x5640	; 0x5640 <send_uart1_to_computer>
		}
	}
	//
	if(PHYCFGR_DPX_FULL == (status&PHYCFGR_DPX_FULL))//DPX
    64de:	c2 ff       	sbrs	r28, 2
    64e0:	0d c0       	rjmp	.+26     	; 0x64fc <w5500_phy_status_check+0xf0>
	{
		w5500_phy_dpx_half = FALSE;
    64e2:	10 92 c8 10 	sts	0x10C8, r1
		if(FALSE == w5500_phy_dpx_full)
    64e6:	80 91 c2 0e 	lds	r24, 0x0EC2
    64ea:	81 11       	cpse	r24, r1
    64ec:	15 c0       	rjmp	.+42     	; 0x6518 <w5500_phy_status_check+0x10c>
		{
			w5500_phy_dpx_full = TRUE;
    64ee:	81 e0       	ldi	r24, 0x01	; 1
    64f0:	80 93 c2 0e 	sts	0x0EC2, r24
			//
			TRACE_STRING("w5500 phy dpx full\r\n\0");
    64f4:	64 e1       	ldi	r22, 0x14	; 20
    64f6:	8f ed       	ldi	r24, 0xDF	; 223
    64f8:	92 e0       	ldi	r25, 0x02	; 2
    64fa:	0c c0       	rjmp	.+24     	; 0x6514 <w5500_phy_status_check+0x108>
		}
	}
	else
	{
		w5500_phy_dpx_full = FALSE;
    64fc:	10 92 c2 0e 	sts	0x0EC2, r1
		if(FALSE == w5500_phy_dpx_half)
    6500:	80 91 c8 10 	lds	r24, 0x10C8
    6504:	81 11       	cpse	r24, r1
    6506:	08 c0       	rjmp	.+16     	; 0x6518 <w5500_phy_status_check+0x10c>
		{
			w5500_phy_dpx_half = TRUE;
    6508:	81 e0       	ldi	r24, 0x01	; 1
    650a:	80 93 c8 10 	sts	0x10C8, r24
			//
			TRACE_STRING("w5500 phy dpx half\r\n\0");
    650e:	64 e1       	ldi	r22, 0x14	; 20
    6510:	85 ef       	ldi	r24, 0xF5	; 245
    6512:	92 e0       	ldi	r25, 0x02	; 2
    6514:	0e 94 20 2b 	call	0x5640	; 0x5640 <send_uart1_to_computer>
	}
	#endif
	///////////////////////////////////////////////////////////////////
	#if 1
	//断开网络，尝试初始化W5500
	if(w5500_link_off_count >= w5500_link_off_wait) //n*10ms
    6518:	80 91 c0 09 	lds	r24, 0x09C0
    651c:	90 91 c1 09 	lds	r25, 0x09C1
    6520:	86 39       	cpi	r24, 0x96	; 150
    6522:	91 05       	cpc	r25, r1
    6524:	a8 f0       	brcs	.+42     	; 0x6550 <w5500_phy_status_check+0x144>
	{
		w5500_link_off_count=0;
    6526:	10 92 c1 09 	sts	0x09C1, r1
    652a:	10 92 c0 09 	sts	0x09C0, r1
    652e:	c3 e0       	ldi	r28, 0x03	; 3
		//
		signed char retry;
		for(retry=3; retry>0; retry--)
		{
			if(TRUE == init_w5500(2)) //100
    6530:	62 e0       	ldi	r22, 0x02	; 2
    6532:	70 e0       	ldi	r23, 0x00	; 0
    6534:	80 e0       	ldi	r24, 0x00	; 0
    6536:	90 e0       	ldi	r25, 0x00	; 0
    6538:	0e 94 fb 31 	call	0x63f6	; 0x63f6 <init_w5500>
    653c:	81 30       	cpi	r24, 0x01	; 1
    653e:	11 f0       	breq	.+4      	; 0x6544 <w5500_phy_status_check+0x138>
    6540:	c1 50       	subi	r28, 0x01	; 1
	if(w5500_link_off_count >= w5500_link_off_wait) //n*10ms
	{
		w5500_link_off_count=0;
		//
		signed char retry;
		for(retry=3; retry>0; retry--)
    6542:	b1 f7       	brne	.-20     	; 0x6530 <w5500_phy_status_check+0x124>
		if(0 == retry)
		{
			w5500_link_off_wait=2000; //n*10ms //2s
		}
		//
		TRACE_STRING("w5500 link off overtime,init w5500\r\n\0");
    6544:	64 e2       	ldi	r22, 0x24	; 36
    6546:	8b e0       	ldi	r24, 0x0B	; 11
    6548:	93 e0       	ldi	r25, 0x03	; 3
	}
	#endif
	///////////////////////////////////////////////////////////////////	
}
    654a:	cf 91       	pop	r28
		if(0 == retry)
		{
			w5500_link_off_wait=2000; //n*10ms //2s
		}
		//
		TRACE_STRING("w5500 link off overtime,init w5500\r\n\0");
    654c:	0c 94 20 2b 	jmp	0x5640	; 0x5640 <send_uart1_to_computer>
	}
	#endif
	///////////////////////////////////////////////////////////////////	
}
    6550:	cf 91       	pop	r28
    6552:	08 95       	ret

00006554 <get_sum>:
	//
	return TRUE;
}
///////////////////////////////////////////////////
U8 get_sum(U8 *p,U8 len)
{
    6554:	28 2f       	mov	r18, r24
	U8 sum=0;
	U8 i;
	for(i=0; i<len; i++)
    6556:	fc 01       	movw	r30, r24
	return TRUE;
}
///////////////////////////////////////////////////
U8 get_sum(U8 *p,U8 len)
{
	U8 sum=0;
    6558:	80 e0       	ldi	r24, 0x00	; 0
    655a:	9e 2f       	mov	r25, r30
    655c:	92 1b       	sub	r25, r18
	U8 i;
	for(i=0; i<len; i++)
    655e:	96 17       	cp	r25, r22
    6560:	18 f4       	brcc	.+6      	; 0x6568 <get_sum+0x14>
	{
		sum += p[i];
    6562:	91 91       	ld	r25, Z+
    6564:	89 0f       	add	r24, r25
    6566:	f9 cf       	rjmp	.-14     	; 0x655a <get_sum+0x6>
	}	
	//
	return sum;
}
    6568:	08 95       	ret

0000656a <swap_ushort>:
///////////////////////////////////////////////////
U16 swap_ushort(U16 val)
{
    656a:	28 2f       	mov	r18, r24
    656c:	89 2f       	mov	r24, r25
	tmp_t = tmp.mc[0];
	tmp.mc[0] = tmp.mc[1];
	tmp.mc[1] = tmp_t;
	//
	return tmp.ms;
}
    656e:	92 2f       	mov	r25, r18
    6570:	08 95       	ret

00006572 <w5500_socket_frame_handing>:
///////////////////////////////////////////////////
U16 w5500_socket_frame_handing(U8 *data,const U16 max_len)
{	
    6572:	ff 92       	push	r15
    6574:	0f 93       	push	r16
    6576:	1f 93       	push	r17
    6578:	cf 93       	push	r28
    657a:	df 93       	push	r29
    657c:	cd b7       	in	r28, 0x3d	; 61
    657e:	de b7       	in	r29, 0x3e	; 62
    6580:	c4 57       	subi	r28, 0x74	; 116
    6582:	d1 09       	sbc	r29, r1
    6584:	0f b6       	in	r0, 0x3f	; 63
    6586:	f8 94       	cli
    6588:	de bf       	out	0x3e, r29	; 62
    658a:	0f be       	out	0x3f, r0	; 63
    658c:	cd bf       	out	0x3d, r28	; 61
    658e:	8c 01       	movw	r16, r24
	APP_HEAD head;
	memcpy((char*)&head,data,sizeof(APP_HEAD));
    6590:	88 e0       	ldi	r24, 0x08	; 8
    6592:	f8 01       	movw	r30, r16
    6594:	de 01       	movw	r26, r28
    6596:	a3 59       	subi	r26, 0x93	; 147
    6598:	bf 4f       	sbci	r27, 0xFF	; 255
    659a:	01 90       	ld	r0, Z+
    659c:	0d 92       	st	X+, r0
    659e:	8a 95       	dec	r24
    65a0:	e1 f7       	brne	.-8      	; 0x659a <w5500_socket_frame_handing+0x28>
	//
	if(ENET_FRAME_FLAG != head.frame_flag)
    65a2:	af 96       	adiw	r28, 0x2f	; 47
    65a4:	8e ad       	ldd	r24, Y+62	; 0x3e
    65a6:	9f ad       	ldd	r25, Y+63	; 0x3f
    65a8:	af 97       	sbiw	r28, 0x2f	; 47
    65aa:	85 3a       	cpi	r24, 0xA5	; 165
    65ac:	9a 45       	sbci	r25, 0x5A	; 90
    65ae:	31 f0       	breq	.+12     	; 0x65bc <w5500_socket_frame_handing+0x4a>
	{
		DEBUG_STRING("frame_flag is error\r\n\0");
    65b0:	65 e1       	ldi	r22, 0x15	; 21
    65b2:	81 e3       	ldi	r24, 0x31	; 49
    65b4:	93 e0       	ldi	r25, 0x03	; 3
    65b6:	0e 94 20 2b 	call	0x5640	; 0x5640 <send_uart1_to_computer>
    65ba:	15 c0       	rjmp	.+42     	; 0x65e6 <w5500_socket_frame_handing+0x74>
		return 0;
	}
	//
	U8 sum = get_sum((U8*)&head,sizeof(APP_HEAD));
    65bc:	68 e0       	ldi	r22, 0x08	; 8
    65be:	ce 01       	movw	r24, r28
    65c0:	83 59       	subi	r24, 0x93	; 147
    65c2:	9f 4f       	sbci	r25, 0xFF	; 255
    65c4:	0e 94 aa 32 	call	0x6554	; 0x6554 <get_sum>
    65c8:	f8 2e       	mov	r15, r24
	if(0 != sum)
    65ca:	88 23       	and	r24, r24
    65cc:	79 f0       	breq	.+30     	; 0x65ec <w5500_socket_frame_handing+0x7a>
	{
		DEBUG_STRING("sum8 error, sum=\0");
    65ce:	60 e1       	ldi	r22, 0x10	; 16
    65d0:	88 e4       	ldi	r24, 0x48	; 72
    65d2:	93 e0       	ldi	r25, 0x03	; 3
    65d4:	0e 94 20 2b 	call	0x5640	; 0x5640 <send_uart1_to_computer>
		DEBUG_VALUE_TEXT(sum);
    65d8:	6f 2d       	mov	r22, r15
    65da:	70 e0       	ldi	r23, 0x00	; 0
    65dc:	80 e0       	ldi	r24, 0x00	; 0
    65de:	90 e0       	ldi	r25, 0x00	; 0
    65e0:	41 e0       	ldi	r20, 0x01	; 1
    65e2:	0e 94 21 2b 	call	0x5642	; 0x5642 <send_ulong_ascii>
		return 0;
    65e6:	80 e0       	ldi	r24, 0x00	; 0
    65e8:	90 e0       	ldi	r25, 0x00	; 0
    65ea:	5e c0       	rjmp	.+188    	; 0x66a8 <w5500_socket_frame_handing+0x136>
	}
	//
	if(FRAME_COMMAND_RUNNING == head.cmd_type)
    65ec:	e0 96       	adiw	r28, 0x30	; 48
    65ee:	8f ad       	ldd	r24, Y+63	; 0x3f
    65f0:	e0 97       	sbiw	r28, 0x30	; 48
    65f2:	82 3d       	cpi	r24, 0xD2	; 210
    65f4:	a9 f4       	brne	.+42     	; 0x6620 <w5500_socket_frame_handing+0xae>
	{	
		SGDK_UDP_READ_MAINTAIN_REG_FRAME tmp;
		memcpy(tmp.buf,data,sizeof(SGDK_UDP_READ_MAINTAIN_REG_FRAME));
    65f6:	80 e1       	ldi	r24, 0x10	; 16
    65f8:	f8 01       	movw	r30, r16
    65fa:	de 01       	movw	r26, r28
    65fc:	11 96       	adiw	r26, 0x01	; 1
    65fe:	01 90       	ld	r0, Z+
    6600:	0d 92       	st	X+, r0
    6602:	8a 95       	dec	r24
    6604:	e1 f7       	brne	.-8      	; 0x65fe <w5500_socket_frame_handing+0x8c>
		//
		U8 crc8 = crc8_cal(tmp.frame.val.buf,sizeof(READ_MAINTAIN_REG_FRAME));
    6606:	68 e0       	ldi	r22, 0x08	; 8
    6608:	ce 01       	movw	r24, r28
    660a:	09 96       	adiw	r24, 0x09	; 9
    660c:	0e 94 e0 18 	call	0x31c0	; 0x31c0 <crc8_cal>
    6610:	18 2f       	mov	r17, r24
		if(tmp.frame.head.verify.crc8 != crc8)
    6612:	8f 81       	ldd	r24, Y+7	; 0x07
    6614:	81 17       	cp	r24, r17
    6616:	01 f1       	breq	.+64     	; 0x6658 <w5500_socket_frame_handing+0xe6>
		{
			DEBUG_STRING("crc8 error(read maintain reg), crc8=\0");
    6618:	64 e2       	ldi	r22, 0x24	; 36
    661a:	8a e5       	ldi	r24, 0x5A	; 90
    661c:	93 e0       	ldi	r25, 0x03	; 3
    661e:	34 c0       	rjmp	.+104    	; 0x6688 <w5500_socket_frame_handing+0x116>
			return 0;
		}
		//
		enet_analysis_udp(&tmp.frame.head,tmp.frame.val.buf,sizeof(READ_MAINTAIN_REG_FRAME));	
	}
	else if(FRAME_COMMAND_PARA == head.cmd_type)
    6620:	83 3d       	cpi	r24, 0xD3	; 211
    6622:	f1 f5       	brne	.+124    	; 0x66a0 <w5500_socket_frame_handing+0x12e>
	{
		if(CMD_READ_PARA == head.cmd)
    6624:	e1 96       	adiw	r28, 0x31	; 49
    6626:	8f ad       	ldd	r24, Y+63	; 0x3f
    6628:	e1 97       	sbiw	r28, 0x31	; 49
    662a:	85 33       	cpi	r24, 0x35	; 53
    662c:	b9 f4       	brne	.+46     	; 0x665c <w5500_socket_frame_handing+0xea>
		{
			//读参数
			SGDK_UDP_READ_PARA_FRAME tmp;
			memcpy(tmp.buf,data,sizeof(SGDK_UDP_READ_PARA_FRAME));
    662e:	80 e1       	ldi	r24, 0x10	; 16
    6630:	f8 01       	movw	r30, r16
    6632:	de 01       	movw	r26, r28
    6634:	11 96       	adiw	r26, 0x01	; 1
    6636:	01 90       	ld	r0, Z+
    6638:	0d 92       	st	X+, r0
    663a:	8a 95       	dec	r24
    663c:	e1 f7       	brne	.-8      	; 0x6636 <w5500_socket_frame_handing+0xc4>
			//
			U8 crc8 = crc8_cal(tmp.frame.val.buf,sizeof(READ_MAINTAIN_REG_FRAME));
    663e:	68 e0       	ldi	r22, 0x08	; 8
    6640:	ce 01       	movw	r24, r28
    6642:	09 96       	adiw	r24, 0x09	; 9
    6644:	0e 94 e0 18 	call	0x31c0	; 0x31c0 <crc8_cal>
    6648:	18 2f       	mov	r17, r24
			if(tmp.frame.head.verify.crc8 != crc8)
    664a:	8f 81       	ldd	r24, Y+7	; 0x07
    664c:	81 17       	cp	r24, r17
    664e:	21 f0       	breq	.+8      	; 0x6658 <w5500_socket_frame_handing+0xe6>
			{
				DEBUG_STRING("crc8 error(read para), crc8=\0");
    6650:	6c e1       	ldi	r22, 0x1C	; 28
    6652:	80 e8       	ldi	r24, 0x80	; 128
    6654:	93 e0       	ldi	r25, 0x03	; 3
    6656:	18 c0       	rjmp	.+48     	; 0x6688 <w5500_socket_frame_handing+0x116>
				DEBUG_VALUE_TEXT(crc8);
				return 0;
			}
			//
			enet_analysis_udp(&tmp.frame.head,tmp.frame.val.buf,sizeof(READ_MAINTAIN_REG_FRAME));
    6658:	48 e0       	ldi	r20, 0x08	; 8
    665a:	1b c0       	rjmp	.+54     	; 0x6692 <w5500_socket_frame_handing+0x120>
		}
		else if(CMD_WRITE_PARA == head.cmd)
    665c:	86 33       	cpi	r24, 0x36	; 54
    665e:	01 f5       	brne	.+64     	; 0x66a0 <w5500_socket_frame_handing+0x12e>
		{
			//写参数
			SGDK_UDP_WRITE_PARA_FRAME tmp;
			memcpy(tmp.buf,data,sizeof(SGDK_UDP_WRITE_PARA_FRAME));
    6660:	8c e6       	ldi	r24, 0x6C	; 108
    6662:	f8 01       	movw	r30, r16
    6664:	de 01       	movw	r26, r28
    6666:	11 96       	adiw	r26, 0x01	; 1
    6668:	01 90       	ld	r0, Z+
    666a:	0d 92       	st	X+, r0
    666c:	8a 95       	dec	r24
    666e:	e1 f7       	brne	.-8      	; 0x6668 <w5500_socket_frame_handing+0xf6>
			//
			U8 crc8 = crc8_cal(tmp.frame.val.buf,sizeof(WRITE_MULTI_REG_FRAME));
    6670:	64 e6       	ldi	r22, 0x64	; 100
    6672:	ce 01       	movw	r24, r28
    6674:	09 96       	adiw	r24, 0x09	; 9
    6676:	0e 94 e0 18 	call	0x31c0	; 0x31c0 <crc8_cal>
    667a:	18 2f       	mov	r17, r24
			if(tmp.frame.head.verify.crc8 != crc8)
    667c:	8f 81       	ldd	r24, Y+7	; 0x07
    667e:	81 17       	cp	r24, r17
    6680:	39 f0       	breq	.+14     	; 0x6690 <w5500_socket_frame_handing+0x11e>
			{
				DEBUG_STRING("crc8 error(write para), crc8=\0");
    6682:	6d e1       	ldi	r22, 0x1D	; 29
    6684:	8e e9       	ldi	r24, 0x9E	; 158
    6686:	93 e0       	ldi	r25, 0x03	; 3
    6688:	0e 94 20 2b 	call	0x5640	; 0x5640 <send_uart1_to_computer>
				DEBUG_VALUE_TEXT(crc8);
    668c:	61 2f       	mov	r22, r17
    668e:	a5 cf       	rjmp	.-182    	; 0x65da <w5500_socket_frame_handing+0x68>
				return 0;
			}
			//
			enet_analysis_udp(&tmp.frame.head,tmp.frame.val.buf,sizeof(WRITE_MULTI_REG_FRAME));
    6690:	44 e6       	ldi	r20, 0x64	; 100
    6692:	be 01       	movw	r22, r28
    6694:	67 5f       	subi	r22, 0xF7	; 247
    6696:	7f 4f       	sbci	r23, 0xFF	; 255
    6698:	ce 01       	movw	r24, r28
    669a:	01 96       	adiw	r24, 0x01	; 1
    669c:	0e 94 78 30 	call	0x60f0	; 0x60f0 <enet_analysis_udp>
		}
	}
	//
	return head.len;
    66a0:	e3 96       	adiw	r28, 0x33	; 51
    66a2:	8f ad       	ldd	r24, Y+63	; 0x3f
    66a4:	e3 97       	sbiw	r28, 0x33	; 51
    66a6:	90 e0       	ldi	r25, 0x00	; 0
}
    66a8:	cc 58       	subi	r28, 0x8C	; 140
    66aa:	df 4f       	sbci	r29, 0xFF	; 255
    66ac:	0f b6       	in	r0, 0x3f	; 63
    66ae:	f8 94       	cli
    66b0:	de bf       	out	0x3e, r29	; 62
    66b2:	0f be       	out	0x3f, r0	; 63
    66b4:	cd bf       	out	0x3d, r28	; 61
    66b6:	df 91       	pop	r29
    66b8:	cf 91       	pop	r28
    66ba:	1f 91       	pop	r17
    66bc:	0f 91       	pop	r16
    66be:	ff 90       	pop	r15
    66c0:	08 95       	ret

000066c2 <w5500_read_para>:
///////////////////////////////////////////////////
void w5500_read_para(void)
{
    66c2:	cf 92       	push	r12
    66c4:	df 92       	push	r13
    66c6:	ef 92       	push	r14
    66c8:	ff 92       	push	r15
    66ca:	0f 93       	push	r16
    66cc:	1f 93       	push	r17
    66ce:	cf 93       	push	r28
    66d0:	df 93       	push	r29
    66d2:	94 e8       	ldi	r25, 0x84	; 132
    66d4:	e9 2e       	mov	r14, r25
    66d6:	9a e0       	ldi	r25, 0x0A	; 10
    66d8:	f9 2e       	mov	r15, r25
    66da:	0c e8       	ldi	r16, 0x8C	; 140
    66dc:	1a e0       	ldi	r17, 0x0A	; 10
    66de:	28 e8       	ldi	r18, 0x88	; 136
    66e0:	c2 2e       	mov	r12, r18
    66e2:	2a e0       	ldi	r18, 0x0A	; 10
    66e4:	d2 2e       	mov	r13, r18
    66e6:	c0 e0       	ldi	r28, 0x00	; 0
    66e8:	d0 e0       	ldi	r29, 0x00	; 0
	//地址等信息
	unsigned char i;
	for(i=0; i<4; i++)
	{
		//ipaddr,netgate,netmask
		m_rPara.para.w5500_net_para.ip_para.ip_addr[i] = eeprom_read_byte_user(&m_ePara[0].para.w5500_net_para.ip_para.ip_addr[i]);
    66ea:	ce 01       	movw	r24, r28
    66ec:	84 5d       	subi	r24, 0xD4	; 212
    66ee:	9e 4f       	sbci	r25, 0xFE	; 254
    66f0:	0e 94 e9 0e 	call	0x1dd2	; 0x1dd2 <eeprom_read_byte_user>
    66f4:	f7 01       	movw	r30, r14
    66f6:	81 93       	st	Z+, r24
    66f8:	7f 01       	movw	r14, r30
		m_rPara.para.w5500_net_para.ip_para.gateway[i] = eeprom_read_byte_user(&m_ePara[0].para.w5500_net_para.ip_para.gateway[i]);
    66fa:	ce 01       	movw	r24, r28
    66fc:	8c 5c       	subi	r24, 0xCC	; 204
    66fe:	9e 4f       	sbci	r25, 0xFE	; 254
    6700:	0e 94 e9 0e 	call	0x1dd2	; 0x1dd2 <eeprom_read_byte_user>
    6704:	f8 01       	movw	r30, r16
    6706:	81 93       	st	Z+, r24
    6708:	8f 01       	movw	r16, r30
		m_rPara.para.w5500_net_para.ip_para.net_mask[i] = eeprom_read_byte_user(&m_ePara[0].para.w5500_net_para.ip_para.net_mask[i]);
    670a:	ce 01       	movw	r24, r28
    670c:	80 5d       	subi	r24, 0xD0	; 208
    670e:	9e 4f       	sbci	r25, 0xFE	; 254
    6710:	0e 94 e9 0e 	call	0x1dd2	; 0x1dd2 <eeprom_read_byte_user>
    6714:	f6 01       	movw	r30, r12
    6716:	81 93       	st	Z+, r24
    6718:	6f 01       	movw	r12, r30
    671a:	21 96       	adiw	r28, 0x01	; 1
///////////////////////////////////////////////////
void w5500_read_para(void)
{
	//地址等信息
	unsigned char i;
	for(i=0; i<4; i++)
    671c:	c4 30       	cpi	r28, 0x04	; 4
    671e:	d1 05       	cpc	r29, r1
    6720:	21 f7       	brne	.-56     	; 0x66ea <w5500_read_para+0x28>
    6722:	0e e7       	ldi	r16, 0x7E	; 126
    6724:	1a e0       	ldi	r17, 0x0A	; 10
    6726:	c0 e0       	ldi	r28, 0x00	; 0
    6728:	d0 e0       	ldi	r29, 0x00	; 0
	}
	//
	//macaddr
	for(i=0; i<6; i++)
	{
		m_rPara.para.w5500_net_para.mac_para.mac[i] = eeprom_read_byte_user(&m_ePara[0].para.w5500_net_para.mac_para.mac[i]);
    672a:	ce 01       	movw	r24, r28
    672c:	8a 5d       	subi	r24, 0xDA	; 218
    672e:	9e 4f       	sbci	r25, 0xFE	; 254
    6730:	0e 94 e9 0e 	call	0x1dd2	; 0x1dd2 <eeprom_read_byte_user>
    6734:	f8 01       	movw	r30, r16
    6736:	81 93       	st	Z+, r24
    6738:	8f 01       	movw	r16, r30
    673a:	21 96       	adiw	r28, 0x01	; 1
		m_rPara.para.w5500_net_para.ip_para.gateway[i] = eeprom_read_byte_user(&m_ePara[0].para.w5500_net_para.ip_para.gateway[i]);
		m_rPara.para.w5500_net_para.ip_para.net_mask[i] = eeprom_read_byte_user(&m_ePara[0].para.w5500_net_para.ip_para.net_mask[i]);
	}
	//
	//macaddr
	for(i=0; i<6; i++)
    673c:	c6 30       	cpi	r28, 0x06	; 6
    673e:	d1 05       	cpc	r29, r1
    6740:	a1 f7       	brne	.-24     	; 0x672a <w5500_read_para+0x68>
	{
		m_rPara.para.w5500_net_para.mac_para.mac[i] = eeprom_read_byte_user(&m_ePara[0].para.w5500_net_para.mac_para.mac[i]);
	}
}
    6742:	df 91       	pop	r29
    6744:	cf 91       	pop	r28
    6746:	1f 91       	pop	r17
    6748:	0f 91       	pop	r16
    674a:	ff 90       	pop	r15
    674c:	ef 90       	pop	r14
    674e:	df 90       	pop	r13
    6750:	cf 90       	pop	r12
    6752:	08 95       	ret

00006754 <w5500_send_data_processing>:
	//This function is for resetting of the iinchip. Initializes the iinchip to work in whether DIRECT or INDIRECT mode	
	set_w5500_MR(MR_RST);
}
///////////////////////////////////////////////////
void w5500_send_data_processing(SOCKET s, U8 *data, const U16 len)
{
    6754:	2f 92       	push	r2
    6756:	3f 92       	push	r3
    6758:	4f 92       	push	r4
    675a:	5f 92       	push	r5
    675c:	6f 92       	push	r6
    675e:	7f 92       	push	r7
    6760:	8f 92       	push	r8
    6762:	9f 92       	push	r9
    6764:	af 92       	push	r10
    6766:	bf 92       	push	r11
    6768:	cf 92       	push	r12
    676a:	df 92       	push	r13
    676c:	ef 92       	push	r14
    676e:	ff 92       	push	r15
    6770:	0f 93       	push	r16
    6772:	1f 93       	push	r17
    6774:	cf 93       	push	r28
    6776:	df 93       	push	r29
    6778:	00 d0       	rcall	.+0      	; 0x677a <w5500_send_data_processing+0x26>
    677a:	1f 92       	push	r1
    677c:	cd b7       	in	r28, 0x3d	; 61
    677e:	de b7       	in	r29, 0x3e	; 62
    6780:	89 83       	std	Y+1, r24	; 0x01
    6782:	1b 01       	movw	r2, r22
    6784:	5b 83       	std	Y+3, r21	; 0x03
    6786:	4a 83       	std	Y+2, r20	; 0x02
	//
	//This function read the Tx write pointer register and after copy the data in buffer update the Tx write pointer
	//register. User should read upper byte first and lower byte later to get proper value.
	//
	UNION_PU8 tmp;
	tmp.val = w5500_read(Sn_TX_WR0(s));
    6788:	08 2f       	mov	r16, r24
    678a:	10 e0       	ldi	r17, 0x00	; 0
    678c:	48 01       	movw	r8, r16
    678e:	35 e0       	ldi	r19, 0x05	; 5
    6790:	88 0c       	add	r8, r8
    6792:	99 1c       	adc	r9, r9
    6794:	3a 95       	dec	r19
    6796:	e1 f7       	brne	.-8      	; 0x6790 <w5500_send_data_processing+0x3c>
    6798:	c4 01       	movw	r24, r8
    679a:	08 96       	adiw	r24, 0x08	; 8
    679c:	4c 01       	movw	r8, r24
    679e:	2c 01       	movw	r4, r24
    67a0:	9c ed       	ldi	r25, 0xDC	; 220
    67a2:	59 1a       	sub	r5, r25
    67a4:	66 24       	eor	r6, r6
    67a6:	57 fc       	sbrc	r5, 7
    67a8:	60 94       	com	r6
    67aa:	76 2c       	mov	r7, r6
    67ac:	c3 01       	movw	r24, r6
    67ae:	b2 01       	movw	r22, r4
    67b0:	0e 94 c3 2e 	call	0x5d86	; 0x5d86 <w5500_read>
    67b4:	c8 2e       	mov	r12, r24
	tmp.val = ((tmp.val & 0x000000ffUL) << 8) + w5500_read(Sn_TX_WR1(s));
    67b6:	eb ed       	ldi	r30, 0xDB	; 219
    67b8:	9e 1a       	sub	r9, r30
    67ba:	aa 24       	eor	r10, r10
    67bc:	97 fc       	sbrc	r9, 7
    67be:	a0 94       	com	r10
    67c0:	ba 2c       	mov	r11, r10
    67c2:	c5 01       	movw	r24, r10
    67c4:	b4 01       	movw	r22, r8
    67c6:	0e 94 c3 2e 	call	0x5d86	; 0x5d86 <w5500_read>
	//
	//This function read the Tx write pointer register and after copy the data in buffer update the Tx write pointer
	//register. User should read upper byte first and lower byte later to get proper value.
	//
	UNION_PU8 tmp;
	tmp.val = w5500_read(Sn_TX_WR0(s));
    67ca:	d1 2c       	mov	r13, r1
    67cc:	e1 2c       	mov	r14, r1
    67ce:	f1 2c       	mov	r15, r1
	tmp.val = ((tmp.val & 0x000000ffUL) << 8) + w5500_read(Sn_TX_WR1(s));
    67d0:	fe 2c       	mov	r15, r14
    67d2:	ed 2c       	mov	r14, r13
    67d4:	dc 2c       	mov	r13, r12
    67d6:	cc 24       	eor	r12, r12
    67d8:	c8 0e       	add	r12, r24
    67da:	d1 1c       	adc	r13, r1
    67dc:	e1 1c       	adc	r14, r1
    67de:	f1 1c       	adc	r15, r1
		TRACE_VALUE_TEXT(len);
	}
	#endif
	//
	//w5500_write_data(s, data, tmp.ptr, len);
	U32 addrbsb = (tmp.val<<8) + (s<<5) + 0x10; //0x10实际上是选择套接字发送缓存0x02左移了三位
    67e0:	b8 01       	movw	r22, r16
    67e2:	55 e0       	ldi	r21, 0x05	; 5
    67e4:	66 0f       	add	r22, r22
    67e6:	77 1f       	adc	r23, r23
    67e8:	5a 95       	dec	r21
    67ea:	e1 f7       	brne	.-8      	; 0x67e4 <w5500_send_data_processing+0x90>
    67ec:	88 27       	eor	r24, r24
    67ee:	77 fd       	sbrc	r23, 7
    67f0:	80 95       	com	r24
    67f2:	98 2f       	mov	r25, r24
    67f4:	60 5f       	subi	r22, 0xF0	; 240
    67f6:	7f 4f       	sbci	r23, 0xFF	; 255
    67f8:	8f 4f       	sbci	r24, 0xFF	; 255
    67fa:	9f 4f       	sbci	r25, 0xFF	; 255
    67fc:	3e 2d       	mov	r19, r14
    67fe:	2d 2d       	mov	r18, r13
    6800:	1c 2d       	mov	r17, r12
    6802:	00 27       	eor	r16, r16
    6804:	60 0f       	add	r22, r16
    6806:	71 1f       	adc	r23, r17
    6808:	82 1f       	adc	r24, r18
    680a:	93 1f       	adc	r25, r19
	w5500_write_buf(addrbsb, data, len);
    680c:	2a 81       	ldd	r18, Y+2	; 0x02
    680e:	3b 81       	ldd	r19, Y+3	; 0x03
    6810:	a1 01       	movw	r20, r2
    6812:	0e 94 18 2c 	call	0x5830	; 0x5830 <w5500_write_buf>
	//
	tmp.val += len;
    6816:	8a 81       	ldd	r24, Y+2	; 0x02
    6818:	9b 81       	ldd	r25, Y+3	; 0x03
    681a:	c8 0e       	add	r12, r24
    681c:	d9 1e       	adc	r13, r25
    681e:	e1 1c       	adc	r14, r1
    6820:	f1 1c       	adc	r15, r1
	w5500_write(Sn_TX_WR0(s),(U8)((tmp.val & 0x0000ff00UL) >> 8));
    6822:	4d 2d       	mov	r20, r13
    6824:	c3 01       	movw	r24, r6
    6826:	b2 01       	movw	r22, r4
    6828:	0e 94 27 2d 	call	0x5a4e	; 0x5a4e <w5500_write>
	w5500_write(Sn_TX_WR1(s),(U8)(tmp.val & 0x000000ffUL));	
    682c:	4c 2d       	mov	r20, r12
    682e:	c5 01       	movw	r24, r10
    6830:	b4 01       	movw	r22, r8
    6832:	0e 94 27 2d 	call	0x5a4e	; 0x5a4e <w5500_write>
	//
	set_w5500_Sn_CR(0,Sn_CR_SEND);
    6836:	60 e2       	ldi	r22, 0x20	; 32
    6838:	80 e0       	ldi	r24, 0x00	; 0
    683a:	0e 94 33 2e 	call	0x5c66	; 0x5c66 <set_w5500_Sn_CR>
    683e:	18 ec       	ldi	r17, 0xC8	; 200
	//
	U8 i;
	for(i=0; i<200; i++) //等待命令执行完
	{
		if(0 == get_w5500_Sn_CR(s))
    6840:	89 81       	ldd	r24, Y+1	; 0x01
    6842:	0e 94 33 2f 	call	0x5e66	; 0x5e66 <get_w5500_Sn_CR>
    6846:	81 11       	cpse	r24, r1
    6848:	18 c0       	rjmp	.+48     	; 0x687a <w5500_send_data_processing+0x126>
			break;
		}
		delay_us(500);
	}	
	//
	w5500_is_tx_ing=FALSE; //中断处理中完成
    684a:	10 92 b4 0e 	sts	0x0EB4, r1
}
    684e:	0f 90       	pop	r0
    6850:	0f 90       	pop	r0
    6852:	0f 90       	pop	r0
    6854:	df 91       	pop	r29
    6856:	cf 91       	pop	r28
    6858:	1f 91       	pop	r17
    685a:	0f 91       	pop	r16
    685c:	ff 90       	pop	r15
    685e:	ef 90       	pop	r14
    6860:	df 90       	pop	r13
    6862:	cf 90       	pop	r12
    6864:	bf 90       	pop	r11
    6866:	af 90       	pop	r10
    6868:	9f 90       	pop	r9
    686a:	8f 90       	pop	r8
    686c:	7f 90       	pop	r7
    686e:	6f 90       	pop	r6
    6870:	5f 90       	pop	r5
    6872:	4f 90       	pop	r4
    6874:	3f 90       	pop	r3
    6876:	2f 90       	pop	r2
    6878:	08 95       	ret
	#else
		//round up by default
		__ticks_dc = (uint32_t)(ceil(fabs(__tmp)));
	#endif

	__builtin_avr_delay_cycles(__ticks_dc);
    687a:	e3 ef       	ldi	r30, 0xF3	; 243
    687c:	f1 e0       	ldi	r31, 0x01	; 1
    687e:	31 97       	sbiw	r30, 0x01	; 1
    6880:	f1 f7       	brne	.-4      	; 0x687e <w5500_send_data_processing+0x12a>
    6882:	00 c0       	rjmp	.+0      	; 0x6884 <w5500_send_data_processing+0x130>
    6884:	00 00       	nop
    6886:	11 50       	subi	r17, 0x01	; 1
	w5500_write(Sn_TX_WR1(s),(U8)(tmp.val & 0x000000ffUL));	
	//
	set_w5500_Sn_CR(0,Sn_CR_SEND);
	//
	U8 i;
	for(i=0; i<200; i++) //等待命令执行完
    6888:	d9 f6       	brne	.-74     	; 0x6840 <w5500_send_data_processing+0xec>
    688a:	df cf       	rjmp	.-66     	; 0x684a <w5500_send_data_processing+0xf6>

0000688c <W5500_socket_send>:
	//
	return init_w5500_sub();
}
////////////////////////////////////////////////
U8 W5500_socket_send(U8 *data,const U8 len)
{
    688c:	4f 92       	push	r4
    688e:	5f 92       	push	r5
    6890:	6f 92       	push	r6
    6892:	7f 92       	push	r7
    6894:	af 92       	push	r10
    6896:	bf 92       	push	r11
    6898:	cf 92       	push	r12
    689a:	df 92       	push	r13
    689c:	ef 92       	push	r14
    689e:	ff 92       	push	r15
    68a0:	0f 93       	push	r16
    68a2:	1f 93       	push	r17
    68a4:	cf 93       	push	r28
    68a6:	df 93       	push	r29
    68a8:	cd b7       	in	r28, 0x3d	; 61
    68aa:	de b7       	in	r29, 0x3e	; 62
    68ac:	29 97       	sbiw	r28, 0x09	; 9
    68ae:	0f b6       	in	r0, 0x3f	; 63
    68b0:	f8 94       	cli
    68b2:	de bf       	out	0x3e, r29	; 62
    68b4:	0f be       	out	0x3f, r0	; 63
    68b6:	cd bf       	out	0x3d, r28	; 61
    68b8:	6c 01       	movw	r12, r24
	//#define W5500_SOCKET0_SEND TRUE
	#define W5500_SOCKET0_SEND FALSE
	//
	static U8 tx_tmp[sizeof(APP_HEAD)+260]; //按最大缓存配备，没管发送多少字节了
	U16 tx_len = sizeof(APP_HEAD)+len;
    68ba:	a6 2e       	mov	r10, r22
    68bc:	b1 2c       	mov	r11, r1
    68be:	75 01       	movw	r14, r10
    68c0:	88 e0       	ldi	r24, 0x08	; 8
    68c2:	e8 0e       	add	r14, r24
    68c4:	f1 1c       	adc	r15, r1
		//发送已经完成
		//本来该检测是应该有的，但我们的程序结构不一样，要发送的数据不会多，而且
		//基本不会两个帧同时等待发送，而且发送缓存设置足够大（目前是8K），所以
		//可以不检测发送缓存不够的情况	
		U32 w5500_tx_wait;
		w5500_tx_wait = boot_time;
    68c6:	40 90 58 0b 	lds	r4, 0x0B58
    68ca:	50 90 59 0b 	lds	r5, 0x0B59
    68ce:	60 90 5a 0b 	lds	r6, 0x0B5A
    68d2:	70 90 5b 0b 	lds	r7, 0x0B5B
		for(;;) //等待发送缓存足够发送待发送数据
		{
			//等待发送缓存空出
			if(tx_len <= get_w5500_Sn_TX_FSR(0))
    68d6:	80 e0       	ldi	r24, 0x00	; 0
    68d8:	69 87       	std	Y+9, r22	; 0x09
    68da:	0e 94 5c 2f 	call	0x5eb8	; 0x5eb8 <get_w5500_Sn_TX_FSR>
    68de:	69 85       	ldd	r22, Y+9	; 0x09
    68e0:	8e 15       	cp	r24, r14
    68e2:	9f 05       	cpc	r25, r15
    68e4:	c0 f4       	brcc	.+48     	; 0x6916 <W5500_socket_send+0x8a>
			{
				break;
			}
			if((boot_time-w5500_tx_wait) > (2000))//2000ms
    68e6:	00 91 58 0b 	lds	r16, 0x0B58
    68ea:	10 91 59 0b 	lds	r17, 0x0B59
    68ee:	20 91 5a 0b 	lds	r18, 0x0B5A
    68f2:	30 91 5b 0b 	lds	r19, 0x0B5B
    68f6:	04 19       	sub	r16, r4
    68f8:	15 09       	sbc	r17, r5
    68fa:	26 09       	sbc	r18, r6
    68fc:	37 09       	sbc	r19, r7
    68fe:	01 3d       	cpi	r16, 0xD1	; 209
    6900:	17 40       	sbci	r17, 0x07	; 7
    6902:	21 05       	cpc	r18, r1
    6904:	31 05       	cpc	r19, r1
    6906:	38 f3       	brcs	.-50     	; 0x68d6 <W5500_socket_send+0x4a>
			{
				DEBUG_STRING("tx_len <= get_w5500_Sn_TX_FSR(0)\r\n\0");
    6908:	62 e2       	ldi	r22, 0x22	; 34
    690a:	8d eb       	ldi	r24, 0xBD	; 189
    690c:	93 e0       	ldi	r25, 0x03	; 3
    690e:	0e 94 20 2b 	call	0x5640	; 0x5640 <send_uart1_to_computer>
				return FALSE;
    6912:	80 e0       	ldi	r24, 0x00	; 0
    6914:	3c c0       	rjmp	.+120    	; 0x698e <W5500_socket_send+0x102>
		TRACE_STRING("socket0 tx buf idle\r\n\0");
	}
	#endif
	//
	APP_HEAD tmp;
	tmp.frame_flag = ENET_FRAME_FLAG;
    6916:	85 ea       	ldi	r24, 0xA5	; 165
    6918:	9a e5       	ldi	r25, 0x5A	; 90
    691a:	9a 83       	std	Y+2, r25	; 0x02
    691c:	89 83       	std	Y+1, r24	; 0x01
	tmp.cmd_type = FRAME_COMMAND_RUNNING;
    691e:	82 ed       	ldi	r24, 0xD2	; 210
    6920:	8b 83       	std	Y+3, r24	; 0x03
	tmp.cmd = ACK_READ_SYSTEM_STATUS;
    6922:	87 e9       	ldi	r24, 0x97	; 151
    6924:	8c 83       	std	Y+4, r24	; 0x04
	tmp.frame_id = 240; //不关心的数值
    6926:	80 ef       	ldi	r24, 0xF0	; 240
    6928:	8d 83       	std	Y+5, r24	; 0x05
	tmp.len = len;
    692a:	6e 83       	std	Y+6, r22	; 0x06
	tmp.verify.crc8 = crc8_cal(data,len);
    692c:	c6 01       	movw	r24, r12
    692e:	0e 94 e0 18 	call	0x31c0	; 0x31c0 <crc8_cal>
    6932:	8f 83       	std	Y+7, r24	; 0x07
	tmp.verify.sum8 = 0;
    6934:	18 86       	std	Y+8, r1	; 0x08
	tmp.verify.sum8 = get_sum((U8*)&tmp,sizeof(APP_HEAD));
    6936:	68 e0       	ldi	r22, 0x08	; 8
    6938:	ce 01       	movw	r24, r28
    693a:	01 96       	adiw	r24, 0x01	; 1
    693c:	0e 94 aa 32 	call	0x6554	; 0x6554 <get_sum>
	tmp.verify.sum8 ^= 0xff;
	tmp.verify.sum8++;
    6940:	81 95       	neg	r24
    6942:	88 87       	std	Y+8, r24	; 0x08
	//
	memcpy(tx_tmp,(U8*)&tmp,sizeof(APP_HEAD));
    6944:	88 e0       	ldi	r24, 0x08	; 8
    6946:	fe 01       	movw	r30, r28
    6948:	31 96       	adiw	r30, 0x01	; 1
    694a:	ae ea       	ldi	r26, 0xAE	; 174
    694c:	b8 e0       	ldi	r27, 0x08	; 8
    694e:	01 90       	ld	r0, Z+
    6950:	0d 92       	st	X+, r0
    6952:	8a 95       	dec	r24
    6954:	e1 f7       	brne	.-8      	; 0x694e <W5500_socket_send+0xc2>
	memcpy(&tx_tmp[sizeof(APP_HEAD)],data,len);
    6956:	a5 01       	movw	r20, r10
    6958:	b6 01       	movw	r22, r12
    695a:	86 eb       	ldi	r24, 0xB6	; 182
    695c:	98 e0       	ldi	r25, 0x08	; 8
    695e:	0e 94 8c 37 	call	0x6f18	; 0x6f18 <memcpy>
	//
	w5500_frame_len = tx_len;
	w5500_frame_data = tx_tmp;
	//
	set_w5500_Sn_DIPR(0,(U8*)w5500_dap_tx.ip);
    6962:	6b eb       	ldi	r22, 0xBB	; 187
    6964:	7e e0       	ldi	r23, 0x0E	; 14
    6966:	80 e0       	ldi	r24, 0x00	; 0
    6968:	0e 94 d7 2c 	call	0x59ae	; 0x59ae <set_w5500_Sn_DIPR>
	set_w5500_Sn_DPORT(0,w5500_dap_tx.port);
    696c:	60 91 bf 0e 	lds	r22, 0x0EBF
    6970:	70 91 c0 0e 	lds	r23, 0x0EC0
    6974:	80 e0       	ldi	r24, 0x00	; 0
    6976:	0e 94 b2 2c 	call	0x5964	; 0x5964 <set_w5500_Sn_DPORT>
	//
	w5500_is_tx_ing=TRUE;
    697a:	81 e0       	ldi	r24, 0x01	; 1
    697c:	80 93 b4 0e 	sts	0x0EB4, r24
	w5500_send_data_processing(0,w5500_frame_data,w5500_frame_len);
    6980:	a7 01       	movw	r20, r14
    6982:	6e ea       	ldi	r22, 0xAE	; 174
    6984:	78 e0       	ldi	r23, 0x08	; 8
    6986:	80 e0       	ldi	r24, 0x00	; 0
    6988:	0e 94 aa 33 	call	0x6754	; 0x6754 <w5500_send_data_processing>
	//
	return TRUE;
    698c:	81 e0       	ldi	r24, 0x01	; 1
}
    698e:	29 96       	adiw	r28, 0x09	; 9
    6990:	0f b6       	in	r0, 0x3f	; 63
    6992:	f8 94       	cli
    6994:	de bf       	out	0x3e, r29	; 62
    6996:	0f be       	out	0x3f, r0	; 63
    6998:	cd bf       	out	0x3d, r28	; 61
    699a:	df 91       	pop	r29
    699c:	cf 91       	pop	r28
    699e:	1f 91       	pop	r17
    69a0:	0f 91       	pop	r16
    69a2:	ff 90       	pop	r15
    69a4:	ef 90       	pop	r14
    69a6:	df 90       	pop	r13
    69a8:	cf 90       	pop	r12
    69aa:	bf 90       	pop	r11
    69ac:	af 90       	pop	r10
    69ae:	7f 90       	pop	r7
    69b0:	6f 90       	pop	r6
    69b2:	5f 90       	pop	r5
    69b4:	4f 90       	pop	r4
    69b6:	08 95       	ret

000069b8 <w5200_read_data>:
	//
	return m_head.len;
}
//////////////////////////////////////////////////
U16 w5200_read_data(SOCKET s, U8 *data, const U16 len)
{
    69b8:	2f 92       	push	r2
    69ba:	3f 92       	push	r3
    69bc:	4f 92       	push	r4
    69be:	5f 92       	push	r5
    69c0:	6f 92       	push	r6
    69c2:	7f 92       	push	r7
    69c4:	9f 92       	push	r9
    69c6:	af 92       	push	r10
    69c8:	bf 92       	push	r11
    69ca:	cf 92       	push	r12
    69cc:	df 92       	push	r13
    69ce:	ef 92       	push	r14
    69d0:	ff 92       	push	r15
    69d2:	0f 93       	push	r16
    69d4:	1f 93       	push	r17
    69d6:	cf 93       	push	r28
    69d8:	df 93       	push	r29
    69da:	cd b7       	in	r28, 0x3d	; 61
    69dc:	de b7       	in	r29, 0x3e	; 62
    69de:	2a 97       	sbiw	r28, 0x0a	; 10
    69e0:	0f b6       	in	r0, 0x3f	; 63
    69e2:	f8 94       	cli
    69e4:	de bf       	out	0x3e, r29	; 62
    69e6:	0f be       	out	0x3f, r0	; 63
    69e8:	cd bf       	out	0x3d, r28	; 61
    69ea:	98 2e       	mov	r9, r24
    69ec:	8b 01       	movw	r16, r22
    69ee:	5a 87       	std	Y+10, r21	; 0x0a
    69f0:	49 87       	std	Y+9, r20	; 0x09
	U16 len_r;
	UNION_PU8 tmp,tmp1;
	//
	tmp1.val = get_w5500_Sn_RX_RD(s); //读接收读指针寄存器
    69f2:	0e 94 1a 30 	call	0x6034	; 0x6034 <get_w5500_Sn_RX_RD>
    69f6:	5c 01       	movw	r10, r24
    69f8:	6c 01       	movw	r12, r24
    69fa:	e1 2c       	mov	r14, r1
    69fc:	f1 2c       	mov	r15, r1
	tmp.val = tmp1.val&get_w5500_RxMASK(s);
    69fe:	89 2d       	mov	r24, r9
    6a00:	0e 94 f6 2b 	call	0x57ec	; 0x57ec <get_w5500_RxMASK>
    6a04:	a8 22       	and	r10, r24
    6a06:	b9 22       	and	r11, r25
    6a08:	a5 01       	movw	r20, r10
    6a0a:	60 e0       	ldi	r22, 0x00	; 0
    6a0c:	70 e0       	ldi	r23, 0x00	; 0
	//
	U32 addr_t;
	U32 addrbsb;
	addr_t = tmp.val+len;
    6a0e:	89 85       	ldd	r24, Y+9	; 0x09
    6a10:	9a 85       	ldd	r25, Y+10	; 0x0a
    6a12:	2c 01       	movw	r4, r24
    6a14:	61 2c       	mov	r6, r1
    6a16:	71 2c       	mov	r7, r1
    6a18:	db 01       	movw	r26, r22
    6a1a:	ca 01       	movw	r24, r20
    6a1c:	84 0d       	add	r24, r4
    6a1e:	95 1d       	adc	r25, r5
    6a20:	a6 1d       	adc	r26, r6
    6a22:	b7 1d       	adc	r27, r7
    6a24:	89 83       	std	Y+1, r24	; 0x01
    6a26:	9a 83       	std	Y+2, r25	; 0x02
    6a28:	ab 83       	std	Y+3, r26	; 0x03
    6a2a:	bc 83       	std	Y+4, r27	; 0x04
	if(addr_t >= get_w5500_RxMAX(s))
    6a2c:	89 2d       	mov	r24, r9
    6a2e:	af 82       	std	Y+7, r10	; 0x07
    6a30:	58 87       	std	Y+8, r21	; 0x08
    6a32:	6d 83       	std	Y+5, r22	; 0x05
    6a34:	7e 83       	std	Y+6, r23	; 0x06
    6a36:	0e 94 ed 2b 	call	0x57da	; 0x57da <get_w5500_RxMAX>
    6a3a:	a0 e0       	ldi	r26, 0x00	; 0
    6a3c:	b0 e0       	ldi	r27, 0x00	; 0
    6a3e:	29 2c       	mov	r2, r9
    6a40:	31 2c       	mov	r3, r1
    6a42:	4f 81       	ldd	r20, Y+7	; 0x07
    6a44:	58 85       	ldd	r21, Y+8	; 0x08
    6a46:	6d 81       	ldd	r22, Y+5	; 0x05
    6a48:	7e 81       	ldd	r23, Y+6	; 0x06
    6a4a:	22 27       	eor	r18, r18
    6a4c:	34 2f       	mov	r19, r20
    6a4e:	45 2f       	mov	r20, r21
    6a50:	56 2f       	mov	r21, r22
    6a52:	c4 0c       	add	r12, r4
    6a54:	d5 1c       	adc	r13, r5
    6a56:	e6 1c       	adc	r14, r6
    6a58:	f7 1c       	adc	r15, r7
    6a5a:	49 80       	ldd	r4, Y+1	; 0x01
    6a5c:	5a 80       	ldd	r5, Y+2	; 0x02
    6a5e:	6b 80       	ldd	r6, Y+3	; 0x03
    6a60:	7c 80       	ldd	r7, Y+4	; 0x04
    6a62:	48 16       	cp	r4, r24
    6a64:	59 06       	cpc	r5, r25
    6a66:	6a 06       	cpc	r6, r26
    6a68:	7b 06       	cpc	r7, r27
    6a6a:	88 f1       	brcs	.+98     	; 0x6ace <w5200_read_data+0x116>
	{
		//已经循环存储，需要分两次读
		//
		//DEBUG_STRING("w5500 rx buf is full\r\n\0");
		//
		len_r = get_w5500_RxMAX(s)-tmp.val;
    6a6c:	89 2d       	mov	r24, r9
    6a6e:	2d 83       	std	Y+5, r18	; 0x05
    6a70:	3e 83       	std	Y+6, r19	; 0x06
    6a72:	4f 83       	std	Y+7, r20	; 0x07
    6a74:	58 87       	std	Y+8, r21	; 0x08
    6a76:	0e 94 ed 2b 	call	0x57da	; 0x57da <get_w5500_RxMAX>
    6a7a:	8a 19       	sub	r24, r10
    6a7c:	9b 09       	sbc	r25, r11
    6a7e:	5c 01       	movw	r10, r24
		addrbsb = (tmp.val<<8) + (s<<5) + 0x18; //0x18实际上是选择套接字接收缓存0x03左移了三位
    6a80:	21 01       	movw	r4, r2
    6a82:	a5 e0       	ldi	r26, 0x05	; 5
    6a84:	44 0c       	add	r4, r4
    6a86:	55 1c       	adc	r5, r5
    6a88:	aa 95       	dec	r26
    6a8a:	e1 f7       	brne	.-8      	; 0x6a84 <w5200_read_data+0xcc>
    6a8c:	66 24       	eor	r6, r6
    6a8e:	57 fc       	sbrc	r5, 7
    6a90:	60 94       	com	r6
    6a92:	76 2c       	mov	r7, r6
    6a94:	88 e1       	ldi	r24, 0x18	; 24
    6a96:	48 0e       	add	r4, r24
    6a98:	51 1c       	adc	r5, r1
    6a9a:	61 1c       	adc	r6, r1
    6a9c:	71 1c       	adc	r7, r1
    6a9e:	2d 81       	ldd	r18, Y+5	; 0x05
    6aa0:	3e 81       	ldd	r19, Y+6	; 0x06
    6aa2:	4f 81       	ldd	r20, Y+7	; 0x07
    6aa4:	58 85       	ldd	r21, Y+8	; 0x08
    6aa6:	ca 01       	movw	r24, r20
    6aa8:	b9 01       	movw	r22, r18
    6aaa:	64 0d       	add	r22, r4
    6aac:	75 1d       	adc	r23, r5
    6aae:	86 1d       	adc	r24, r6
    6ab0:	97 1d       	adc	r25, r7
		w5500_read_buf(addrbsb,data,len_r);
    6ab2:	95 01       	movw	r18, r10
    6ab4:	a8 01       	movw	r20, r16
    6ab6:	0e 94 78 2e 	call	0x5cf0	; 0x5cf0 <w5500_read_buf>
		//
		data += len_r;
		//
		len_r = len-len_r;
    6aba:	29 85       	ldd	r18, Y+9	; 0x09
    6abc:	3a 85       	ldd	r19, Y+10	; 0x0a
    6abe:	2a 19       	sub	r18, r10
    6ac0:	3b 09       	sbc	r19, r11
		//
		len_r = get_w5500_RxMAX(s)-tmp.val;
		addrbsb = (tmp.val<<8) + (s<<5) + 0x18; //0x18实际上是选择套接字接收缓存0x03左移了三位
		w5500_read_buf(addrbsb,data,len_r);
		//
		data += len_r;
    6ac2:	a8 01       	movw	r20, r16
    6ac4:	4a 0d       	add	r20, r10
    6ac6:	5b 1d       	adc	r21, r11
		//
		len_r = len-len_r;
		tmp.val = 0; //前面已经读到缓存结尾处了，现在从头开始读
		addrbsb = (tmp.val<<8) + (s<<5) + 0x18; //0x18实际上是选择套接字接收缓存0x03左移了三位
		w5500_read_buf(addrbsb,data,len_r);
    6ac8:	c3 01       	movw	r24, r6
    6aca:	b2 01       	movw	r22, r4
    6acc:	16 c0       	rjmp	.+44     	; 0x6afa <w5200_read_data+0x142>
	}
	else
	{
		//还没有循环存储，一次就可以读取完成
		len_r = len;
		addrbsb = (tmp.val<<8) + (s<<5) + 0x18; //0x18实际上是选择套接字接收缓存0x03左移了三位
    6ace:	21 01       	movw	r4, r2
    6ad0:	f5 e0       	ldi	r31, 0x05	; 5
    6ad2:	44 0c       	add	r4, r4
    6ad4:	55 1c       	adc	r5, r5
    6ad6:	fa 95       	dec	r31
    6ad8:	e1 f7       	brne	.-8      	; 0x6ad2 <w5200_read_data+0x11a>
    6ada:	b2 01       	movw	r22, r4
    6adc:	88 27       	eor	r24, r24
    6ade:	77 fd       	sbrc	r23, 7
    6ae0:	80 95       	com	r24
    6ae2:	98 2f       	mov	r25, r24
    6ae4:	68 5e       	subi	r22, 0xE8	; 232
    6ae6:	7f 4f       	sbci	r23, 0xFF	; 255
    6ae8:	8f 4f       	sbci	r24, 0xFF	; 255
    6aea:	9f 4f       	sbci	r25, 0xFF	; 255
    6aec:	62 0f       	add	r22, r18
    6aee:	73 1f       	adc	r23, r19
    6af0:	84 1f       	adc	r24, r20
    6af2:	95 1f       	adc	r25, r21
		w5500_read_buf(addrbsb,data,len_r);
    6af4:	29 85       	ldd	r18, Y+9	; 0x09
    6af6:	3a 85       	ldd	r19, Y+10	; 0x0a
    6af8:	a8 01       	movw	r20, r16
    6afa:	0e 94 78 2e 	call	0x5cf0	; 0x5cf0 <w5500_read_buf>
		//
		tmp1.val += len;
		set_w5500_Sn_RX_RD(s,(U16)tmp1.val);//更新读指针
    6afe:	b6 01       	movw	r22, r12
    6b00:	89 2d       	mov	r24, r9
    6b02:	0e 94 02 2d 	call	0x5a04	; 0x5a04 <set_w5500_Sn_RX_RD>
	}
	//
	set_w5500_Sn_CR(0,Sn_CR_RECV);
    6b06:	60 e4       	ldi	r22, 0x40	; 64
    6b08:	80 e0       	ldi	r24, 0x00	; 0
    6b0a:	0e 94 33 2e 	call	0x5c66	; 0x5c66 <set_w5500_Sn_CR>
    6b0e:	18 ec       	ldi	r17, 0xC8	; 200
	U8 i;
	for(i=0; i<200; i++) //等待命令执行完
	{
		if(0 == get_w5500_Sn_CR(s))
    6b10:	89 2d       	mov	r24, r9
    6b12:	0e 94 33 2f 	call	0x5e66	; 0x5e66 <get_w5500_Sn_CR>
    6b16:	88 23       	and	r24, r24
    6b18:	41 f0       	breq	.+16     	; 0x6b2a <w5200_read_data+0x172>
    6b1a:	a3 ef       	ldi	r26, 0xF3	; 243
    6b1c:	b1 e0       	ldi	r27, 0x01	; 1
    6b1e:	11 97       	sbiw	r26, 0x01	; 1
    6b20:	f1 f7       	brne	.-4      	; 0x6b1e <w5200_read_data+0x166>
    6b22:	00 c0       	rjmp	.+0      	; 0x6b24 <w5200_read_data+0x16c>
    6b24:	00 00       	nop
    6b26:	11 50       	subi	r17, 0x01	; 1
		set_w5500_Sn_RX_RD(s,(U16)tmp1.val);//更新读指针
	}
	//
	set_w5500_Sn_CR(0,Sn_CR_RECV);
	U8 i;
	for(i=0; i<200; i++) //等待命令执行完
    6b28:	99 f7       	brne	.-26     	; 0x6b10 <w5200_read_data+0x158>
		}
		delay_us(500);
	}
	//
	return len;	
}
    6b2a:	89 85       	ldd	r24, Y+9	; 0x09
    6b2c:	9a 85       	ldd	r25, Y+10	; 0x0a
    6b2e:	2a 96       	adiw	r28, 0x0a	; 10
    6b30:	0f b6       	in	r0, 0x3f	; 63
    6b32:	f8 94       	cli
    6b34:	de bf       	out	0x3e, r29	; 62
    6b36:	0f be       	out	0x3f, r0	; 63
    6b38:	cd bf       	out	0x3d, r28	; 61
    6b3a:	df 91       	pop	r29
    6b3c:	cf 91       	pop	r28
    6b3e:	1f 91       	pop	r17
    6b40:	0f 91       	pop	r16
    6b42:	ff 90       	pop	r15
    6b44:	ef 90       	pop	r14
    6b46:	df 90       	pop	r13
    6b48:	cf 90       	pop	r12
    6b4a:	bf 90       	pop	r11
    6b4c:	af 90       	pop	r10
    6b4e:	9f 90       	pop	r9
    6b50:	7f 90       	pop	r7
    6b52:	6f 90       	pop	r6
    6b54:	5f 90       	pop	r5
    6b56:	4f 90       	pop	r4
    6b58:	3f 90       	pop	r3
    6b5a:	2f 90       	pop	r2
    6b5c:	08 95       	ret

00006b5e <w5500_rx_ignore>:
//////////////////////////////////////////////////
void w5500_rx_ignore(U8 s, U16 len)
{
	w5500_udp_open_ok = w5500_udp_open(0,local_udp_port);
    6b5e:	60 91 00 01 	lds	r22, 0x0100
    6b62:	70 91 01 01 	lds	r23, 0x0101
    6b66:	80 e0       	ldi	r24, 0x00	; 0
    6b68:	0e 94 4d 31 	call	0x629a	; 0x629a <w5500_udp_open>
    6b6c:	80 93 be 09 	sts	0x09BE, r24
    6b70:	08 95       	ret

00006b72 <w5500_recv_data>:
	//
	return w5500_recv_data(0,data,max_len);
}
///////////////////////////////////////////////////
U16 w5500_recv_data(SOCKET s, U8 *data,const U16 max_len)
{
    6b72:	8f 92       	push	r8
    6b74:	9f 92       	push	r9
    6b76:	af 92       	push	r10
    6b78:	bf 92       	push	r11
    6b7a:	cf 92       	push	r12
    6b7c:	df 92       	push	r13
    6b7e:	ff 92       	push	r15
    6b80:	0f 93       	push	r16
    6b82:	1f 93       	push	r17
    6b84:	cf 93       	push	r28
    6b86:	df 93       	push	r29
    6b88:	cd b7       	in	r28, 0x3d	; 61
    6b8a:	de b7       	in	r29, 0x3e	; 62
    6b8c:	28 97       	sbiw	r28, 0x08	; 8
    6b8e:	0f b6       	in	r0, 0x3f	; 63
    6b90:	f8 94       	cli
    6b92:	de bf       	out	0x3e, r29	; 62
    6b94:	0f be       	out	0x3f, r0	; 63
    6b96:	cd bf       	out	0x3d, r28	; 61
    6b98:	f8 2e       	mov	r15, r24
    6b9a:	5b 01       	movw	r10, r22
    6b9c:	4a 01       	movw	r8, r20
	//and after copy the data from receive buffer update the Rx write pointer register.
	//User should read upper byte first and lower byte later to get proper value.
	//
	U16 len,len_r;
	//
	len_r = get_w5500_Sn_RX_RSR(s); //读套接字已经接收的字节数
    6b9e:	0e 94 bb 2f 	call	0x5f76	; 0x5f76 <get_w5500_Sn_RX_RSR>
    6ba2:	6c 01       	movw	r12, r24
	len = (len_r&get_w5500_RxMASK(s));
    6ba4:	8f 2d       	mov	r24, r15
    6ba6:	0e 94 f6 2b 	call	0x57ec	; 0x57ec <get_w5500_RxMASK>
    6baa:	8c 01       	movw	r16, r24
    6bac:	0c 21       	and	r16, r12
    6bae:	1d 21       	and	r17, r13
	//
	//if(len < sizeof(W5500_UDP_HEAD))
	if(len <= sizeof(W5500_UDP_HEAD))
    6bb0:	09 30       	cpi	r16, 0x09	; 9
    6bb2:	11 05       	cpc	r17, r1
    6bb4:	90 f4       	brcc	.+36     	; 0x6bda <w5500_recv_data+0x68>
	{
		//udp包信息头的长度为8字节
		DEBUG_STRING("len <= sizeof(W5500_UDP_HEAD), len=\0");
    6bb6:	63 e2       	ldi	r22, 0x23	; 35
    6bb8:	81 ee       	ldi	r24, 0xE1	; 225
    6bba:	93 e0       	ldi	r25, 0x03	; 3
    6bbc:	0e 94 20 2b 	call	0x5640	; 0x5640 <send_uart1_to_computer>
		DEBUG_VALUE_TEXT(len);
    6bc0:	b8 01       	movw	r22, r16
    6bc2:	80 e0       	ldi	r24, 0x00	; 0
    6bc4:	90 e0       	ldi	r25, 0x00	; 0
    6bc6:	41 e0       	ldi	r20, 0x01	; 1
    6bc8:	0e 94 21 2b 	call	0x5642	; 0x5642 <send_ulong_ascii>
		DEBUG_STRING("len_r=\0");
    6bcc:	66 e0       	ldi	r22, 0x06	; 6
    6bce:	86 e0       	ldi	r24, 0x06	; 6
    6bd0:	94 e0       	ldi	r25, 0x04	; 4
    6bd2:	0e 94 20 2b 	call	0x5640	; 0x5640 <send_uart1_to_computer>
		DEBUG_VALUE_TEXT(len_r);
    6bd6:	b6 01       	movw	r22, r12
    6bd8:	09 c0       	rjmp	.+18     	; 0x6bec <w5500_recv_data+0x7a>
		//
		w5500_rx_ignore(s,len); //更新读指针
		return 0;
	}
	//
	if(len > W5500_RX_BUFFER_FRAME_SIZE)
    6bda:	01 38       	cpi	r16, 0x81	; 129
    6bdc:	11 05       	cpc	r17, r1
    6bde:	90 f0       	brcs	.+36     	; 0x6c04 <w5500_recv_data+0x92>
	{
		//接收的数据太长也不正常
		DEBUG_STRING("len > W5500_RX_BUFFER_FRAME_SIZE, len=\0");
    6be0:	66 e2       	ldi	r22, 0x26	; 38
    6be2:	8e e0       	ldi	r24, 0x0E	; 14
    6be4:	94 e0       	ldi	r25, 0x04	; 4
    6be6:	0e 94 20 2b 	call	0x5640	; 0x5640 <send_uart1_to_computer>
		DEBUG_VALUE_TEXT(len);
    6bea:	b8 01       	movw	r22, r16
    6bec:	80 e0       	ldi	r24, 0x00	; 0
    6bee:	90 e0       	ldi	r25, 0x00	; 0
    6bf0:	41 e0       	ldi	r20, 0x01	; 1
    6bf2:	0e 94 21 2b 	call	0x5642	; 0x5642 <send_ulong_ascii>
		//
		w5500_rx_ignore(s,len); //更新读指针
    6bf6:	b8 01       	movw	r22, r16
    6bf8:	8f 2d       	mov	r24, r15
    6bfa:	0e 94 af 35 	call	0x6b5e	; 0x6b5e <w5500_rx_ignore>
		return 0;		
    6bfe:	c1 2c       	mov	r12, r1
    6c00:	d1 2c       	mov	r13, r1
    6c02:	84 c0       	rjmp	.+264    	; 0x6d0c <w5500_recv_data+0x19a>
	}
	//
	W5500_UDP_HEAD m_head;
	w5200_read_data(s,(U8*)&m_head,sizeof(W5500_UDP_HEAD));
    6c04:	48 e0       	ldi	r20, 0x08	; 8
    6c06:	50 e0       	ldi	r21, 0x00	; 0
    6c08:	be 01       	movw	r22, r28
    6c0a:	6f 5f       	subi	r22, 0xFF	; 255
    6c0c:	7f 4f       	sbci	r23, 0xFF	; 255
    6c0e:	8f 2d       	mov	r24, r15
    6c10:	0e 94 dc 34 	call	0x69b8	; 0x69b8 <w5200_read_data>
	//
	//网络通信是以大端的方式传送的，需要转换为小端模式
	m_head.len = swap_ushort(m_head.len);
    6c14:	8f 81       	ldd	r24, Y+7	; 0x07
    6c16:	98 85       	ldd	r25, Y+8	; 0x08
    6c18:	0e 94 b5 32 	call	0x656a	; 0x656a <swap_ushort>
    6c1c:	6c 01       	movw	r12, r24
    6c1e:	98 87       	std	Y+8, r25	; 0x08
    6c20:	8f 83       	std	Y+7, r24	; 0x07
	m_head.sent_port = swap_ushort(m_head.sent_port);
    6c22:	8d 81       	ldd	r24, Y+5	; 0x05
    6c24:	9e 81       	ldd	r25, Y+6	; 0x06
    6c26:	0e 94 b5 32 	call	0x656a	; 0x656a <swap_ushort>
    6c2a:	9e 83       	std	Y+6, r25	; 0x06
    6c2c:	8d 83       	std	Y+5, r24	; 0x05
	//
	//保存发送方ip地址和端口号，便于发送时使用
	//目前的程序结构是，不会主动往外发，必须是收到数据帧才会响应
	memcpy((void*)w5500_dap_tx.ip,(void*)m_head.sent_ip,4);
    6c2e:	49 81       	ldd	r20, Y+1	; 0x01
    6c30:	5a 81       	ldd	r21, Y+2	; 0x02
    6c32:	6b 81       	ldd	r22, Y+3	; 0x03
    6c34:	7c 81       	ldd	r23, Y+4	; 0x04
    6c36:	40 93 bb 0e 	sts	0x0EBB, r20
    6c3a:	50 93 bc 0e 	sts	0x0EBC, r21
    6c3e:	60 93 bd 0e 	sts	0x0EBD, r22
    6c42:	70 93 be 0e 	sts	0x0EBE, r23
	w5500_dap_tx.port=m_head.sent_port;
    6c46:	90 93 c0 0e 	sts	0x0EC0, r25
    6c4a:	80 93 bf 0e 	sts	0x0EBF, r24
	//
	if(0 == m_head.len)
    6c4e:	c1 14       	cp	r12, r1
    6c50:	d1 04       	cpc	r13, r1
    6c52:	79 f4       	brne	.+30     	; 0x6c72 <w5500_recv_data+0x100>
	{
		w5500_udp_open_ok = w5500_udp_open(0,local_udp_port);
    6c54:	60 91 00 01 	lds	r22, 0x0100
    6c58:	70 91 01 01 	lds	r23, 0x0101
    6c5c:	80 e0       	ldi	r24, 0x00	; 0
    6c5e:	0e 94 4d 31 	call	0x629a	; 0x629a <w5500_udp_open>
    6c62:	80 93 be 09 	sts	0x09BE, r24
		DEBUG_STRING("m_head.len is zero\r\n\0");
    6c66:	64 e1       	ldi	r22, 0x14	; 20
    6c68:	86 e3       	ldi	r24, 0x36	; 54
    6c6a:	94 e0       	ldi	r25, 0x04	; 4
    6c6c:	0e 94 20 2b 	call	0x5640	; 0x5640 <send_uart1_to_computer>
		return 0;		
    6c70:	4d c0       	rjmp	.+154    	; 0x6d0c <w5500_recv_data+0x19a>
	}
	//
	if(m_head.len > (len-sizeof(W5500_UDP_HEAD)))
    6c72:	b8 01       	movw	r22, r16
    6c74:	68 50       	subi	r22, 0x08	; 8
    6c76:	71 09       	sbc	r23, r1
    6c78:	6c 15       	cp	r22, r12
    6c7a:	7d 05       	cpc	r23, r13
    6c7c:	00 f5       	brcc	.+64     	; 0x6cbe <w5500_recv_data+0x14c>
	{
		//判断接收缓存接收长度正常
		w5500_rx_ignore(s,len-sizeof(W5500_UDP_HEAD)); //更新读指针
    6c7e:	8f 2d       	mov	r24, r15
    6c80:	0e 94 af 35 	call	0x6b5e	; 0x6b5e <w5500_rx_ignore>
		//
		DEBUG_STRING("m_head.len > (len-sizeof(W5500_UDP_HEAD))\r\n\0");
    6c84:	6b e2       	ldi	r22, 0x2B	; 43
    6c86:	8c e4       	ldi	r24, 0x4C	; 76
    6c88:	94 e0       	ldi	r25, 0x04	; 4
    6c8a:	0e 94 20 2b 	call	0x5640	; 0x5640 <send_uart1_to_computer>
		DEBUG_STRING("m_head.len=\0");
    6c8e:	6b e0       	ldi	r22, 0x0B	; 11
    6c90:	89 e7       	ldi	r24, 0x79	; 121
    6c92:	94 e0       	ldi	r25, 0x04	; 4
    6c94:	0e 94 20 2b 	call	0x5640	; 0x5640 <send_uart1_to_computer>
		DEBUG_VALUE_TEXT(m_head.len);
    6c98:	6f 81       	ldd	r22, Y+7	; 0x07
    6c9a:	78 85       	ldd	r23, Y+8	; 0x08
    6c9c:	80 e0       	ldi	r24, 0x00	; 0
    6c9e:	90 e0       	ldi	r25, 0x00	; 0
    6ca0:	41 e0       	ldi	r20, 0x01	; 1
    6ca2:	0e 94 21 2b 	call	0x5642	; 0x5642 <send_ulong_ascii>
		DEBUG_STRING("len=\0");
    6ca6:	64 e0       	ldi	r22, 0x04	; 4
    6ca8:	86 e8       	ldi	r24, 0x86	; 134
    6caa:	94 e0       	ldi	r25, 0x04	; 4
    6cac:	0e 94 20 2b 	call	0x5640	; 0x5640 <send_uart1_to_computer>
		DEBUG_VALUE_TEXT(len);
    6cb0:	b8 01       	movw	r22, r16
    6cb2:	80 e0       	ldi	r24, 0x00	; 0
    6cb4:	90 e0       	ldi	r25, 0x00	; 0
    6cb6:	41 e0       	ldi	r20, 0x01	; 1
    6cb8:	0e 94 21 2b 	call	0x5642	; 0x5642 <send_ulong_ascii>
    6cbc:	a0 cf       	rjmp	.-192    	; 0x6bfe <w5500_recv_data+0x8c>
		return 0;
	}
	//
	if(m_head.len > max_len)
    6cbe:	8c 14       	cp	r8, r12
    6cc0:	9d 04       	cpc	r9, r13
    6cc2:	50 f4       	brcc	.+20     	; 0x6cd8 <w5500_recv_data+0x166>
	{
		//限制读取长度，保证缓存不溢出
		w5500_rx_ignore(s,m_head.len); //更新读指针
    6cc4:	b6 01       	movw	r22, r12
    6cc6:	8f 2d       	mov	r24, r15
    6cc8:	0e 94 af 35 	call	0x6b5e	; 0x6b5e <w5500_rx_ignore>
		DEBUG_STRING("m_head.len > max_len\r\n\0");
    6ccc:	66 e1       	ldi	r22, 0x16	; 22
    6cce:	8c e8       	ldi	r24, 0x8C	; 140
    6cd0:	94 e0       	ldi	r25, 0x04	; 4
    6cd2:	0e 94 20 2b 	call	0x5640	; 0x5640 <send_uart1_to_computer>
    6cd6:	93 cf       	rjmp	.-218    	; 0x6bfe <w5500_recv_data+0x8c>
		return 0;
	}
	//
	w5200_read_data(s,data,m_head.len);
    6cd8:	a6 01       	movw	r20, r12
    6cda:	b5 01       	movw	r22, r10
    6cdc:	8f 2d       	mov	r24, r15
    6cde:	0e 94 dc 34 	call	0x69b8	; 0x69b8 <w5200_read_data>
	//
	//for debug
	w5500_rx_count++;
    6ce2:	80 91 ba 09 	lds	r24, 0x09BA
    6ce6:	90 91 bb 09 	lds	r25, 0x09BB
    6cea:	a0 91 bc 09 	lds	r26, 0x09BC
    6cee:	b0 91 bd 09 	lds	r27, 0x09BD
    6cf2:	01 96       	adiw	r24, 0x01	; 1
    6cf4:	a1 1d       	adc	r26, r1
    6cf6:	b1 1d       	adc	r27, r1
    6cf8:	80 93 ba 09 	sts	0x09BA, r24
    6cfc:	90 93 bb 09 	sts	0x09BB, r25
    6d00:	a0 93 bc 09 	sts	0x09BC, r26
    6d04:	b0 93 bd 09 	sts	0x09BD, r27
	//
	return m_head.len;
    6d08:	cf 80       	ldd	r12, Y+7	; 0x07
    6d0a:	d8 84       	ldd	r13, Y+8	; 0x08
}
    6d0c:	c6 01       	movw	r24, r12
    6d0e:	28 96       	adiw	r28, 0x08	; 8
    6d10:	0f b6       	in	r0, 0x3f	; 63
    6d12:	f8 94       	cli
    6d14:	de bf       	out	0x3e, r29	; 62
    6d16:	0f be       	out	0x3f, r0	; 63
    6d18:	cd bf       	out	0x3d, r28	; 61
    6d1a:	df 91       	pop	r29
    6d1c:	cf 91       	pop	r28
    6d1e:	1f 91       	pop	r17
    6d20:	0f 91       	pop	r16
    6d22:	ff 90       	pop	r15
    6d24:	df 90       	pop	r13
    6d26:	cf 90       	pop	r12
    6d28:	bf 90       	pop	r11
    6d2a:	af 90       	pop	r10
    6d2c:	9f 90       	pop	r9
    6d2e:	8f 90       	pop	r8
    6d30:	08 95       	ret

00006d32 <W5500_socket_recv>:
	//
	w5500_is_tx_ing=FALSE; //中断处理中完成
}
///////////////////////////////////////////////////
U16 W5500_socket_recv(U8 *data,const U16 max_len)
{
    6d32:	ab 01       	movw	r20, r22
	//注意比对帧长度和缓存长度，帧长度不应该超过缓存长度
	//重点函数
	//
	return w5500_recv_data(0,data,max_len);
    6d34:	bc 01       	movw	r22, r24
    6d36:	80 e0       	ldi	r24, 0x00	; 0
    6d38:	0c 94 b9 35 	jmp	0x6b72	; 0x6b72 <w5500_recv_data>

00006d3c <w5500_judge_and_read_data>:
		}
	}	
}
////////////////////////////////////////////////
void w5500_judge_and_read_data(void)
{
    6d3c:	0f 93       	push	r16
    6d3e:	1f 93       	push	r17
    6d40:	cf 93       	push	r28
    6d42:	df 93       	push	r29
	//把w5500接收缓存的数据读取到本地缓存
	//
	//
	if(TRUE == w5500_phy_link)
    6d44:	80 91 bf 09 	lds	r24, 0x09BF
    6d48:	81 30       	cpi	r24, 0x01	; 1
    6d4a:	71 f5       	brne	.+92     	; 0x6da8 <w5500_judge_and_read_data+0x6c>
    6d4c:	c2 e0       	ldi	r28, 0x02	; 2
    6d4e:	d0 e0       	ldi	r29, 0x00	; 0
	{
		//读取w5500接收的数据
		int i;
		for(i=0; i<W5500_RX_BUFFER_FRAME_NUM/2; i++)
		{
			if(0 == (get_w5500_Sn_RX_RSR(0) & get_w5500_RxMASK(0)))
    6d50:	80 e0       	ldi	r24, 0x00	; 0
    6d52:	0e 94 bb 2f 	call	0x5f76	; 0x5f76 <get_w5500_Sn_RX_RSR>
    6d56:	8c 01       	movw	r16, r24
    6d58:	80 e0       	ldi	r24, 0x00	; 0
    6d5a:	0e 94 f6 2b 	call	0x57ec	; 0x57ec <get_w5500_RxMASK>
    6d5e:	80 23       	and	r24, r16
    6d60:	91 23       	and	r25, r17
    6d62:	89 2b       	or	r24, r25
    6d64:	51 f1       	breq	.+84     	; 0x6dba <w5500_judge_and_read_data+0x7e>
			}
			//
			//接收缓存有数据
			//
			//W5500_socket_recv是个重点函数
			U16 rx_write_len = W5500_socket_recv((U8*)w5500_rx_buf[w5500_rx_write_id],W5500_RX_BUFFER_FRAME_SIZE);
    6d66:	80 91 ae 0e 	lds	r24, 0x0EAE
    6d6a:	20 e8       	ldi	r18, 0x80	; 128
    6d6c:	82 9f       	mul	r24, r18
    6d6e:	c0 01       	movw	r24, r0
    6d70:	11 24       	eor	r1, r1
    6d72:	60 e8       	ldi	r22, 0x80	; 128
    6d74:	70 e0       	ldi	r23, 0x00	; 0
    6d76:	88 53       	subi	r24, 0x38	; 56
    6d78:	91 4f       	sbci	r25, 0xF1	; 241
    6d7a:	0e 94 99 36 	call	0x6d32	; 0x6d32 <W5500_socket_recv>
			if(rx_write_len > 0)
    6d7e:	89 2b       	or	r24, r25
    6d80:	79 f0       	breq	.+30     	; 0x6da0 <w5500_judge_and_read_data+0x64>
			{
				//读取了全部或者部分数据
				//更新缓存写入位置
				w5500_rx_write_id++;
    6d82:	80 91 ae 0e 	lds	r24, 0x0EAE
    6d86:	8f 5f       	subi	r24, 0xFF	; 255
    6d88:	80 93 ae 0e 	sts	0x0EAE, r24
				w5500_rx_write_id %= W5500_RX_BUFFER_FRAME_NUM;
    6d8c:	80 91 ae 0e 	lds	r24, 0x0EAE
    6d90:	83 70       	andi	r24, 0x03	; 3
    6d92:	80 93 ae 0e 	sts	0x0EAE, r24
				//
				//更新接收数据缓存区有效字节数
				w5500_rx_frame_count ++;
    6d96:	80 91 c9 10 	lds	r24, 0x10C9
    6d9a:	8f 5f       	subi	r24, 0xFF	; 255
    6d9c:	80 93 c9 10 	sts	0x10C9, r24
    6da0:	21 97       	sbiw	r28, 0x01	; 1
	//
	if(TRUE == w5500_phy_link)
	{
		//读取w5500接收的数据
		int i;
		for(i=0; i<W5500_RX_BUFFER_FRAME_NUM/2; i++)
    6da2:	20 97       	sbiw	r28, 0x00	; 0
    6da4:	51 f0       	breq	.+20     	; 0x6dba <w5500_judge_and_read_data+0x7e>
    6da6:	d4 cf       	rjmp	.-88     	; 0x6d50 <w5500_judge_and_read_data+0x14>
			}
		}
	}
	else
	{
		DEBUG_STRING("w5500_phy_link is FALSE\r\n\0");
    6da8:	69 e1       	ldi	r22, 0x19	; 25
    6daa:	84 ea       	ldi	r24, 0xA4	; 164
    6dac:	94 e0       	ldi	r25, 0x04	; 4
	}	
}
    6dae:	df 91       	pop	r29
    6db0:	cf 91       	pop	r28
    6db2:	1f 91       	pop	r17
    6db4:	0f 91       	pop	r16
			}
		}
	}
	else
	{
		DEBUG_STRING("w5500_phy_link is FALSE\r\n\0");
    6db6:	0c 94 20 2b 	jmp	0x5640	; 0x5640 <send_uart1_to_computer>
	}	
}
    6dba:	df 91       	pop	r29
    6dbc:	cf 91       	pop	r28
    6dbe:	1f 91       	pop	r17
    6dc0:	0f 91       	pop	r16
    6dc2:	08 95       	ret

00006dc4 <w5500_judge_and_read_write_data>:
	#endif
	///////////////////////////////////////////////////////////////////	
}
////////////////////////////////////////////////
void w5500_judge_and_read_write_data(void)
{	
    6dc4:	cf 93       	push	r28
	//关键函数
	//
	if(FALSE == w5500_udp_open_ok)
    6dc6:	80 91 be 09 	lds	r24, 0x09BE
    6dca:	88 23       	and	r24, r24
    6dcc:	41 f1       	breq	.+80     	; 0x6e1e <w5500_judge_and_read_write_data+0x5a>
	{
		return;
	}
	if(FALSE == w5500_phy_link)
    6dce:	80 91 bf 09 	lds	r24, 0x09BF
    6dd2:	88 23       	and	r24, r24
    6dd4:	21 f1       	breq	.+72     	; 0x6e1e <w5500_judge_and_read_write_data+0x5a>
	{
		return;
	}
	//读取数据
	w5500_judge_and_read_data();
    6dd6:	0e 94 9e 36 	call	0x6d3c	; 0x6d3c <w5500_judge_and_read_data>
    6dda:	c2 e0       	ldi	r28, 0x02	; 2
	//
	//处理数据
	U8 read_count;
	for(read_count=0; read_count<W5500_RX_BUFFER_FRAME_NUM/2; read_count++)
	{
		if(w5500_rx_frame_count > 0)
    6ddc:	80 91 c9 10 	lds	r24, 0x10C9
    6de0:	88 23       	and	r24, r24
    6de2:	e9 f0       	breq	.+58     	; 0x6e1e <w5500_judge_and_read_write_data+0x5a>
		{
			//处理接收缓存数据
			w5500_socket_frame_handing((U8*)w5500_rx_buf[w5500_rx_read_id],W5500_RX_BUFFER_FRAME_SIZE);
    6de4:	80 91 c3 0e 	lds	r24, 0x0EC3
    6de8:	20 e8       	ldi	r18, 0x80	; 128
    6dea:	82 9f       	mul	r24, r18
    6dec:	c0 01       	movw	r24, r0
    6dee:	11 24       	eor	r1, r1
    6df0:	60 e8       	ldi	r22, 0x80	; 128
    6df2:	70 e0       	ldi	r23, 0x00	; 0
    6df4:	88 53       	subi	r24, 0x38	; 56
    6df6:	91 4f       	sbci	r25, 0xF1	; 241
    6df8:	0e 94 b9 32 	call	0x6572	; 0x6572 <w5500_socket_frame_handing>
			//
			w5500_rx_frame_count--;
    6dfc:	80 91 c9 10 	lds	r24, 0x10C9
    6e00:	81 50       	subi	r24, 0x01	; 1
    6e02:	80 93 c9 10 	sts	0x10C9, r24
			//
			w5500_rx_read_id++;
    6e06:	80 91 c3 0e 	lds	r24, 0x0EC3
    6e0a:	8f 5f       	subi	r24, 0xFF	; 255
    6e0c:	80 93 c3 0e 	sts	0x0EC3, r24
			w5500_rx_read_id %= W5500_RX_BUFFER_FRAME_NUM;
    6e10:	80 91 c3 0e 	lds	r24, 0x0EC3
    6e14:	83 70       	andi	r24, 0x03	; 3
    6e16:	80 93 c3 0e 	sts	0x0EC3, r24
    6e1a:	c1 50       	subi	r28, 0x01	; 1
	//读取数据
	w5500_judge_and_read_data();
	//
	//处理数据
	U8 read_count;
	for(read_count=0; read_count<W5500_RX_BUFFER_FRAME_NUM/2; read_count++)
    6e1c:	f9 f6       	brne	.-66     	; 0x6ddc <w5500_judge_and_read_write_data+0x18>
		else
		{
			break;
		}
	}	
}
    6e1e:	cf 91       	pop	r28
    6e20:	08 95       	ret

00006e22 <w5500_task>:
void w5500_task(void)
{
	//#define W5500_TASK TRUE
	#define W5500_TASK FALSE
	//
	wdt_reset();//网络任务中喂狗
    6e22:	a8 95       	wdr
	//
	//w5500物理层状态检测
	w5500_phy_status_check(); 
    6e24:	0e 94 06 32 	call	0x640c	; 0x640c <w5500_phy_status_check>
	//
	//w5500数据接收和发送（不主动发送数据，只在收到命令后才回数据）
	w5500_judge_and_read_write_data();
    6e28:	0c 94 e2 36 	jmp	0x6dc4	; 0x6dc4 <w5500_judge_and_read_write_data>

00006e2c <__udivmodqi4>:
    6e2c:	99 1b       	sub	r25, r25
    6e2e:	79 e0       	ldi	r23, 0x09	; 9
    6e30:	04 c0       	rjmp	.+8      	; 0x6e3a <__udivmodqi4_ep>

00006e32 <__udivmodqi4_loop>:
    6e32:	99 1f       	adc	r25, r25
    6e34:	96 17       	cp	r25, r22
    6e36:	08 f0       	brcs	.+2      	; 0x6e3a <__udivmodqi4_ep>
    6e38:	96 1b       	sub	r25, r22

00006e3a <__udivmodqi4_ep>:
    6e3a:	88 1f       	adc	r24, r24
    6e3c:	7a 95       	dec	r23
    6e3e:	c9 f7       	brne	.-14     	; 0x6e32 <__udivmodqi4_loop>
    6e40:	80 95       	com	r24
    6e42:	08 95       	ret

00006e44 <__udivmodhi4>:
    6e44:	aa 1b       	sub	r26, r26
    6e46:	bb 1b       	sub	r27, r27
    6e48:	51 e1       	ldi	r21, 0x11	; 17
    6e4a:	07 c0       	rjmp	.+14     	; 0x6e5a <__udivmodhi4_ep>

00006e4c <__udivmodhi4_loop>:
    6e4c:	aa 1f       	adc	r26, r26
    6e4e:	bb 1f       	adc	r27, r27
    6e50:	a6 17       	cp	r26, r22
    6e52:	b7 07       	cpc	r27, r23
    6e54:	10 f0       	brcs	.+4      	; 0x6e5a <__udivmodhi4_ep>
    6e56:	a6 1b       	sub	r26, r22
    6e58:	b7 0b       	sbc	r27, r23

00006e5a <__udivmodhi4_ep>:
    6e5a:	88 1f       	adc	r24, r24
    6e5c:	99 1f       	adc	r25, r25
    6e5e:	5a 95       	dec	r21
    6e60:	a9 f7       	brne	.-22     	; 0x6e4c <__udivmodhi4_loop>
    6e62:	80 95       	com	r24
    6e64:	90 95       	com	r25
    6e66:	bc 01       	movw	r22, r24
    6e68:	cd 01       	movw	r24, r26
    6e6a:	08 95       	ret

00006e6c <__divmodhi4>:
    6e6c:	97 fb       	bst	r25, 7
    6e6e:	07 2e       	mov	r0, r23
    6e70:	16 f4       	brtc	.+4      	; 0x6e76 <__divmodhi4+0xa>
    6e72:	00 94       	com	r0
    6e74:	07 d0       	rcall	.+14     	; 0x6e84 <__divmodhi4_neg1>
    6e76:	77 fd       	sbrc	r23, 7
    6e78:	09 d0       	rcall	.+18     	; 0x6e8c <__divmodhi4_neg2>
    6e7a:	0e 94 22 37 	call	0x6e44	; 0x6e44 <__udivmodhi4>
    6e7e:	07 fc       	sbrc	r0, 7
    6e80:	05 d0       	rcall	.+10     	; 0x6e8c <__divmodhi4_neg2>
    6e82:	3e f4       	brtc	.+14     	; 0x6e92 <__divmodhi4_exit>

00006e84 <__divmodhi4_neg1>:
    6e84:	90 95       	com	r25
    6e86:	81 95       	neg	r24
    6e88:	9f 4f       	sbci	r25, 0xFF	; 255
    6e8a:	08 95       	ret

00006e8c <__divmodhi4_neg2>:
    6e8c:	70 95       	com	r23
    6e8e:	61 95       	neg	r22
    6e90:	7f 4f       	sbci	r23, 0xFF	; 255

00006e92 <__divmodhi4_exit>:
    6e92:	08 95       	ret

00006e94 <__udivmodsi4>:
    6e94:	a1 e2       	ldi	r26, 0x21	; 33
    6e96:	1a 2e       	mov	r1, r26
    6e98:	aa 1b       	sub	r26, r26
    6e9a:	bb 1b       	sub	r27, r27
    6e9c:	fd 01       	movw	r30, r26
    6e9e:	0d c0       	rjmp	.+26     	; 0x6eba <__udivmodsi4_ep>

00006ea0 <__udivmodsi4_loop>:
    6ea0:	aa 1f       	adc	r26, r26
    6ea2:	bb 1f       	adc	r27, r27
    6ea4:	ee 1f       	adc	r30, r30
    6ea6:	ff 1f       	adc	r31, r31
    6ea8:	a2 17       	cp	r26, r18
    6eaa:	b3 07       	cpc	r27, r19
    6eac:	e4 07       	cpc	r30, r20
    6eae:	f5 07       	cpc	r31, r21
    6eb0:	20 f0       	brcs	.+8      	; 0x6eba <__udivmodsi4_ep>
    6eb2:	a2 1b       	sub	r26, r18
    6eb4:	b3 0b       	sbc	r27, r19
    6eb6:	e4 0b       	sbc	r30, r20
    6eb8:	f5 0b       	sbc	r31, r21

00006eba <__udivmodsi4_ep>:
    6eba:	66 1f       	adc	r22, r22
    6ebc:	77 1f       	adc	r23, r23
    6ebe:	88 1f       	adc	r24, r24
    6ec0:	99 1f       	adc	r25, r25
    6ec2:	1a 94       	dec	r1
    6ec4:	69 f7       	brne	.-38     	; 0x6ea0 <__udivmodsi4_loop>
    6ec6:	60 95       	com	r22
    6ec8:	70 95       	com	r23
    6eca:	80 95       	com	r24
    6ecc:	90 95       	com	r25
    6ece:	9b 01       	movw	r18, r22
    6ed0:	ac 01       	movw	r20, r24
    6ed2:	bd 01       	movw	r22, r26
    6ed4:	cf 01       	movw	r24, r30
    6ed6:	08 95       	ret

00006ed8 <__tablejump2__>:
    6ed8:	ee 0f       	add	r30, r30
    6eda:	ff 1f       	adc	r31, r31

00006edc <__tablejump__>:
    6edc:	05 90       	lpm	r0, Z+
    6ede:	f4 91       	lpm	r31, Z
    6ee0:	e0 2d       	mov	r30, r0
    6ee2:	09 94       	ijmp

00006ee4 <__umulhisi3>:
    6ee4:	a2 9f       	mul	r26, r18
    6ee6:	b0 01       	movw	r22, r0
    6ee8:	b3 9f       	mul	r27, r19
    6eea:	c0 01       	movw	r24, r0
    6eec:	a3 9f       	mul	r26, r19
    6eee:	70 0d       	add	r23, r0
    6ef0:	81 1d       	adc	r24, r1
    6ef2:	11 24       	eor	r1, r1
    6ef4:	91 1d       	adc	r25, r1
    6ef6:	b2 9f       	mul	r27, r18
    6ef8:	70 0d       	add	r23, r0
    6efa:	81 1d       	adc	r24, r1
    6efc:	11 24       	eor	r1, r1
    6efe:	91 1d       	adc	r25, r1
    6f00:	08 95       	ret

00006f02 <__muluhisi3>:
    6f02:	0e 94 72 37 	call	0x6ee4	; 0x6ee4 <__umulhisi3>
    6f06:	a5 9f       	mul	r26, r21
    6f08:	90 0d       	add	r25, r0
    6f0a:	b4 9f       	mul	r27, r20
    6f0c:	90 0d       	add	r25, r0
    6f0e:	a4 9f       	mul	r26, r20
    6f10:	80 0d       	add	r24, r0
    6f12:	91 1d       	adc	r25, r1
    6f14:	11 24       	eor	r1, r1
    6f16:	08 95       	ret

00006f18 <memcpy>:
    6f18:	fb 01       	movw	r30, r22
    6f1a:	dc 01       	movw	r26, r24
    6f1c:	02 c0       	rjmp	.+4      	; 0x6f22 <memcpy+0xa>
    6f1e:	01 90       	ld	r0, Z+
    6f20:	0d 92       	st	X+, r0
    6f22:	41 50       	subi	r20, 0x01	; 1
    6f24:	50 40       	sbci	r21, 0x00	; 0
    6f26:	d8 f7       	brcc	.-10     	; 0x6f1e <memcpy+0x6>
    6f28:	08 95       	ret

00006f2a <__eerd_byte_m644pa>:
    6f2a:	f9 99       	sbic	0x1f, 1	; 31
    6f2c:	fe cf       	rjmp	.-4      	; 0x6f2a <__eerd_byte_m644pa>
    6f2e:	92 bd       	out	0x22, r25	; 34
    6f30:	81 bd       	out	0x21, r24	; 33
    6f32:	f8 9a       	sbi	0x1f, 0	; 31
    6f34:	99 27       	eor	r25, r25
    6f36:	80 b5       	in	r24, 0x20	; 32
    6f38:	08 95       	ret

00006f3a <__eerd_word_m644pa>:
    6f3a:	a8 e1       	ldi	r26, 0x18	; 24
    6f3c:	b0 e0       	ldi	r27, 0x00	; 0
    6f3e:	42 e0       	ldi	r20, 0x02	; 2
    6f40:	50 e0       	ldi	r21, 0x00	; 0
    6f42:	0c 94 b8 37 	jmp	0x6f70	; 0x6f70 <__eerd_blraw_m644pa>

00006f46 <__eewr_byte_m644pa>:
    6f46:	26 2f       	mov	r18, r22

00006f48 <__eewr_r18_m644pa>:
    6f48:	f9 99       	sbic	0x1f, 1	; 31
    6f4a:	fe cf       	rjmp	.-4      	; 0x6f48 <__eewr_r18_m644pa>
    6f4c:	1f ba       	out	0x1f, r1	; 31
    6f4e:	92 bd       	out	0x22, r25	; 34
    6f50:	81 bd       	out	0x21, r24	; 33
    6f52:	20 bd       	out	0x20, r18	; 32
    6f54:	0f b6       	in	r0, 0x3f	; 63
    6f56:	f8 94       	cli
    6f58:	fa 9a       	sbi	0x1f, 2	; 31
    6f5a:	f9 9a       	sbi	0x1f, 1	; 31
    6f5c:	0f be       	out	0x3f, r0	; 63
    6f5e:	01 96       	adiw	r24, 0x01	; 1
    6f60:	08 95       	ret

00006f62 <__eewr_word_m644pa>:
    6f62:	0e 94 a3 37 	call	0x6f46	; 0x6f46 <__eewr_byte_m644pa>
    6f66:	27 2f       	mov	r18, r23
    6f68:	0c 94 a4 37 	jmp	0x6f48	; 0x6f48 <__eewr_r18_m644pa>

00006f6c <__eerd_block_m644pa>:
    6f6c:	dc 01       	movw	r26, r24
    6f6e:	cb 01       	movw	r24, r22

00006f70 <__eerd_blraw_m644pa>:
    6f70:	fc 01       	movw	r30, r24
    6f72:	f9 99       	sbic	0x1f, 1	; 31
    6f74:	fe cf       	rjmp	.-4      	; 0x6f72 <__eerd_blraw_m644pa+0x2>
    6f76:	06 c0       	rjmp	.+12     	; 0x6f84 <__eerd_blraw_m644pa+0x14>
    6f78:	f2 bd       	out	0x22, r31	; 34
    6f7a:	e1 bd       	out	0x21, r30	; 33
    6f7c:	f8 9a       	sbi	0x1f, 0	; 31
    6f7e:	31 96       	adiw	r30, 0x01	; 1
    6f80:	00 b4       	in	r0, 0x20	; 32
    6f82:	0d 92       	st	X+, r0
    6f84:	41 50       	subi	r20, 0x01	; 1
    6f86:	50 40       	sbci	r21, 0x00	; 0
    6f88:	b8 f7       	brcc	.-18     	; 0x6f78 <__eerd_blraw_m644pa+0x8>
    6f8a:	08 95       	ret

00006f8c <_exit>:
    6f8c:	f8 94       	cli

00006f8e <__stop_program>:
    6f8e:	ff cf       	rjmp	.-2      	; 0x6f8e <__stop_program>
